(dp0
S'SSPN'
p1
S'SAI P NILAYAM'
p2
sS'AGN'
p3
S'AMGAON'
p4
sS'MLC'
p5
S'MALKISAR'
p6
sS'AGL'
p7
S'AMARGOL'
p8
sS'KRL'
p9
S'KOTARLIA'
p10
sS'AGI'
p11
S'AMGURI'
p12
sS'SBRA'
p13
S'SARBAHARA'
p14
sS'KPA'
p15
S'KANCHRAPARA'
p16
sS'AGD'
p17
S'AGASOD'
p18
sS'AGC'
p19
S'AGRA CANTT'
p20
sS'AGB'
p21
S'AMBAGAON'
p22
sS'AGA'
p23
S'AGRA CITY'
p24
sS'NYK'
p25
S'NAYA KHARADIA'
p26
sS'NYH'
p27
S'NAYANDAHALLI'
p28
sS'NYY'
p29
S'NEYYATTINKARA'
p30
sS'NYN'
p31
S'NAINI'
p32
sS'AGZ'
p33
S'AMAGURA'
p34
sS'AGY'
p35
S'AGORI KHAS'
p36
sS'KOTI'
p37
S'KOTI'
p38
sS'GVMR'
p39
S'GOVINDI MARWAR'
p40
sS'CKOD'
p41
S'CHAKROD'
p42
sS'AGR'
p43
S'AMARGARH'
p44
sS'BAKA'
p45
S'BANKA'
p46
sS'BWP'
p47
S'BHAWANIPUR KALN'
p48
sS'KYJ'
p49
S'KAYANKULAM JN'
p50
sS'BWR'
p51
S'BARWA SAGAR'
p52
sS'BWS'
p53
S'BADWASI'
p54
sS'BWT'
p55
S'BANGARAPET'
p56
sS'BSDP'
p57
S'BHUSANDPUR'
p58
sS'KYM'
p59
S'KADIYAM'
p60
sS'BWW'
p61
S'BARWAHA'
p62
sS'BWX'
p63
S'BAHMAN DIWANA'
p64
sS'BWY'
p65
S'BANGARAPET'
p66
sS'SPR'
p67
S'SONARPUR JN'
p68
sS'KYG'
p69
S'KIDIYANAGA'
p70
sS'KYF'
p71
S'KAJRAT NAWADIH'
p72
sS'KYE'
p73
S'KHURAI'
p74
sS'KRG'
p75
S'KOREGAON'
p76
sS'NGA'
p77
S'NINGALA JN'
p78
sS'BWA'
p79
S'BHINWALIYA'
p80
sS'BWB'
p81
S'BAGWALI'
p82
sS'KYX'
p83
S'KARHIYA BHADELI'
p84
sS'BWD'
p85
S'BELVANDI'
p86
sS'NDW'
p87
S'NADWAN'
p88
sS'BWF'
p89
S'BUTEWALA'
p90
sS'SPO'
p91
S'SURPURA'
p92
sS'BWH'
p93
S'BHADAURA'
p94
sS'BWI'
p95
S'BILWAI'
p96
sS'KYQ'
p97
S'KAMAKHYA'
p98
sS'BWK'
p99
S'BAWANI KHERA'
p100
sS'BWL'
p101
S'BAWAL'
p102
sS'BWM'
p103
S'BHAWANI MANDI'
p104
sS'BWN'
p105
S'BARDDHAMAN JN'
p106
sS'KYT'
p107
S'KAILAHAT'
p108
sS'GW'
p109
S'GIRWAR'
p110
sS'UMRI'
p111
S'UMRI'
p112
sS'GT'
p113
S'GHATKESAR'
p114
sS'GR'
p115
S'GULBARGA'
p116
sS'MLNH'
p117
S'MALANCHA'
p118
sS'TLHD'
p119
S'TALCHER ROAD'
p120
sS'SNF'
p121
S'SANAT NAGAR'
p122
sS'BYT'
p123
S'BHATAPARA'
p124
sS'PKE'
p125
S'PIMPAR KHED'
p126
sS'BYR'
p127
S'BHAYANDAR'
p128
sS'BYS'
p129
S'BARSALI'
p130
sS'BYP'
p131
S'BAIJNATHPUR'
p132
sS'BYN'
p133
S'BANAHI'
p134
sS'BYL'
p135
S'BELHA'
p136
sS'GD'
p137
S'GONDA JN'
p138
sS'GB'
p139
S'GAURI BAZAR'
p140
sS'GA'
p141
S'GUDHA'
p142
sS'PKK'
p143
S'PAKKI'
p144
sS'VN'
p145
S'VANIYAMBADI'
p146
sS'TDO'
p147
S'TANDA URMAR'
p148
sS'BYD'
p149
S'BYADGI'
p150
sS'GK'
p151
S'GOLA GOKARANATH'
p152
sS'BYC'
p153
S'BELLARY CANT'
p154
sS'TLHR'
p155
S'TALCHER'
p156
sS'GH'
p157
S'GHUGHULI'
p158
sS'MAQ'
p159
S'MANGALORE CNTL'
p160
sS'JNR'
p161
S'JANAKPUR ROAD'
p162
sS'MAS'
p163
S'CHENNAI CENTRAL'
p164
sS'BLLI'
p165
S'BALLI'
p166
sS'MAU'
p167
S'MAU JN'
p168
sS'ACLE'
p169
S'AZIMGANJ CITY'
p170
sS'JNU'
p171
S'JAUNPUR JN'
p172
sS'MAY'
p173
S'MARIAHU'
p174
sS'NGG'
p175
S'NAGINA'
p176
sS'SNL'
p177
S'SANAHWAL'
p178
sS'MAZ'
p179
S'MANGRA'
p180
sS'PQL'
p181
S'PINDLAI'
p182
sS'PQM'
p183
S'PAKKAM'
p184
sS'PQN'
p185
S'PARIAWAN K.K.RD'
p186
sS'PKO'
p187
S'PALAKOLLU'
p188
sS'MAA'
p189
S'MAVAL'
p190
sS'DHCA'
p191
S'DHACA CANTT'
p192
sS'JNA'
p193
S'JULANA'
p194
sS'KJPD'
p195
S'KURINIJIPADI'
p196
sS'MAE'
p197
S'MATHERAN'
p198
sS'MAD'
p199
S'MADDUR'
p200
sS'MAG'
p201
S'MANGALAGIRI'
p202
sS'BRTK'
p203
S'BHORTEX'
p204
sS'MAI'
p205
S'MEHSI'
p206
sS'KFPR'
p207
S'KAFURPUR'
p208
sS'BYHA'
p209
S'BARYA RAM'
p210
sS'JNH'
p211
S'JANGHAI JN'
p212
sS'JNO'
p213
S'JUNNOR DEO'
p214
sS'JNN'
p215
S'JANUNIATNA'
p216
sS'JNM'
p217
S'JAYNGR MAJLIPUR'
p218
sS'JNL'
p219
S'JANDIALA'
p220
sS'BEK'
p221
S'BUNDKI'
p222
sS'BEH'
p223
S'BAGDIHI'
p224
sS'TRAN'
p225
S'TORANG'
p226
sS'BEM'
p227
S'BUDAUN'
p228
sS'BEB'
p229
S'BELDANGA'
p230
sS'EVA'
p231
S'EDAVAI'
p232
sS'BEA'
p233
S'BIHIYA'
p234
sS'BEF'
p235
S'BHUPDEOPUR'
p236
sS'BEG'
p237
S'BEHTAGOKUL'
p238
sS'BSRL'
p239
S'BESROLI'
p240
sS'PPLI'
p241
S'PIPLI'
p242
sS'BEY'
p243
S'B CEMENT NAGAR'
p244
sS'RNBT'
p245
S'RAHENBATA'
p246
sS'BER'
p247
S'BEAWAR'
p248
sS'BSRX'
p249
S'BAGEVADI RD'
p250
sS'TLD'
p251
S'TILDA'
p252
sS'BEW'
p253
S'BETAVAD'
p254
sS'BET'
p255
S'BARETH'
p256
sS'SQF'
p257
S'SUKRITIPUR'
p258
sS'VLI'
p259
S'VALLIKUNNU'
p260
sS'GMDA'
p261
S'GUMADA'
p262
sS'LSD'
p263
S'LUSADIYA'
p264
sS'LSE'
p265
S'LASERI'
p266
sS'PPN'
p267
S'PUNPUN'
p268
sS'VLA'
p269
S'BAVLA'
p270
sS'PMY'
p271
S'PALI MARWAR'
p272
sS'TTQ'
p273
S'THATHANKULAM'
p274
sS'NVU'
p275
S'NAVALUR'
p276
sS'TTW'
p277
S'TITWA'
p278
sS'MPLR'
p279
S'MAHIPAL ROAD'
p280
sS'GMDN'
p281
S'GIRIMAIDAN'
p282
sS'LSI'
p283
S'LAHERIA SARAI'
p284
sS'VLY'
p285
S'VALLIYUR'
p286
sS'VM'
p287
S'VILLUPURAM JN'
p288
sS'MPLM'
p289
S'MARTHIPALAYAM'
p290
sS'BTKP'
p291
S'BHARAT KUP'
p292
sS'LSR'
p293
S'LASUR'
p294
sS'TTL'
p295
S'TIRUTTANGAL'
p296
sS'TTB'
p297
S'TITABAR'
p298
sS'KOTA'
p299
S'KOTA JN'
p300
sS'BIRD'
p301
S'BHIWANDI ROAD'
p302
sS'KPG'
p303
S'KOPARGAON'
p304
sS'SPX'
p305
S'SAPATGRAM'
p306
sS'ZN'
p307
S'JANGAON'
p308
sS'KSRA'
p309
S'KASARA'
p310
sS'USLP'
p311
S'USILAMPATTI'
p312
sS'KYI'
p313
S'KALYANI'
p314
sS'GRX'
p315
S'GAURA'
p316
sS'GRY'
p317
S'GORAYA'
p318
sS'GRF'
p319
S'GAMBHIRI ROAD'
p320
sS'GRG'
p321
S'GUWARIGHAT'
p322
sS'GRD'
p323
S'GIRIDIH'
p324
sS'GRB'
p325
S'GARH DHRUBESWAR'
p326
sS'GRA'
p327
S'GHARAUNDA'
p328
sS'GRN'
p329
S'GURNAY'
p330
sS'GRO'
p331
S'GURRA'
p332
sS'GRL'
p333
S'GORAUL'
p334
sS'CSB'
p335
S'SHIVAJI BRIDGE'
p336
sS'ZP'
p337
S'ZERPUR PALI'
p338
sS'GRI'
p339
S'GURIYA'
p340
sS'NOL'
p341
S'NIYOL'
p342
sS'TDP'
p343
S'TODARPUR'
p344
sS'KKY'
p345
S'KILA KADAIYAM'
p346
sS'HLZ'
p347
S'HALDIA'
p348
sS'HLX'
p349
S'HILARA'
p350
sS'KKU'
p351
S'KANAKPURA'
p352
sS'VKNR'
p353
S'VALMIKINAGAR RD'
p354
sS'KKW'
p355
S'KANKAVALI'
p356
sS'KKV'
p357
S'KUNKAVAV JN'
p358
sS'HLR'
p359
S'HALISAHAR'
p360
sS'VS'
p361
S'VISHVAMITRI'
p362
sS'TDV'
p363
S'THONDEBHAVI'
p364
sS'KKM'
p365
S'KAMALAPURAM'
p366
sS'HLN'
p367
S'HOLE NARSIPUR'
p368
sS'MLK'
p369
S'MALKAPURAM'
p370
sS'KKN'
p371
S'KHIRKIYA'
p372
sS'HAR'
p373
S'HAMIRPUR ROAD'
p374
sS'NMH'
p375
S'NIMACH'
p376
sS'KKK'
p377
S'KHAKHARIA'
p378
sS'KKJ'
p379
S'KAKORI'
p380
sS'HLG'
p381
S'HILLIGROVE'
p382
sS'APDJ'
p383
S'ALIPUR DUAR JN'
p384
sS'KKG'
p385
S'KEKATUMAR'
p386
sS'GBA'
p387
S'GARHBETA'
p388
sS'NOQ'
p389
S'NEW ALIPURDAUR'
p390
sS'KKB'
p391
S'KARAK BEL'
p392
sS'CTT'
p393
S'CHITRASANI'
p394
sS'VAPM'
p395
S'VALAPATTANAM'
p396
sS'CTQ'
p397
S'CHETAR'
p398
sS'CTR'
p399
S'CHATRA'
p400
sS'CTS'
p401
S'CHATTRIPUT'
p402
sS'BZLE'
p403
S'BAZARSAU'
p404
sS'VT'
p405
S'VELLORE TOWN'
p406
sS'TEA'
p407
S'TAREGNA'
p408
sS'VBL'
p409
S'BOBBILI'
p410
sS'VBR'
p411
S'VAMBORI'
p412
sS'CTF'
p413
S'CHITGIDDA'
p414
sS'VBW'
p415
S'VAIBHAVWADI RD'
p416
sS'CTA'
p417
S'CHITRADURG'
p418
sS'CTC'
p419
S'CUTTACK'
p420
sS'CTL'
p421
S'CHITAL'
p422
sS'WSE'
p423
S'VASAN IYAWA'
p424
sS'CTO'
p425
S'CHITTOOR'
p426
sS'CTH'
p427
S'CHIKALTHAN'
p428
sS'KNHN'
p429
S'KANTHAN JN'
p430
sS'NGI'
p431
S'NAGARI'
p432
sS'PTNR'
p433
S'PATELNAGAR'
p434
sS'DBKA'
p435
S'DABKA'
p436
sS'NGLT'
p437
S'NAGLATULA'
p438
sS'WHM'
p439
S'WASHIM'
p440
sS'PNDR'
p441
S'PANDORI'
p442
sS'SPJ'
p443
S'SAMASTIPUR JN'
p444
sS'VLT'
p445
S'VALATHOOR'
p446
sS'PNDM'
p447
S'PENNADAM'
p448
sS'ABSA'
p449
S'AMBASA'
p450
sS'JHIR'
p451
S'JHIR'
p452
sS'SID'
p453
S'SIDDHPUR'
p454
sS'SNN'
p455
S'SONEGAON'
p456
sS'NDPU'
p457
S'NUDURUPADU'
p458
sS'TLR'
p459
S'TULSIPUR'
p460
sS'BAWA'
p461
S'BALWARA'
p462
sS'SPN'
p463
S'SHAHJEHANPUR'
p464
sS'PDKM'
p465
S'PEDANYKNPALAYAM'
p466
sS'DBEC'
p467
S'DEVBALODA CHRDA'
p468
sS'MLN'
p469
S'MAILANI'
p470
sS'DIVA'
p471
S'DIVA'
p472
sS'KOHR'
p473
S'KOHIR DECCAN'
p474
sS'KYS'
p475
S'KUSUMKASA'
p476
sS'KMLI'
p477
S'S\x02MLI'
p478
sS'SNO'
p479
S'SOMANUR'
p480
sS'GLTA'
p481
S'GAHLOTA'
p482
sS'PGA'
p483
S'PAGARA'
p484
sS'PDKN'
p485
S'PEDAKAKANI HALT'
p486
sS'RLL'
p487
S'REGADIPALLI'
p488
sS'GLNA'
p489
S'GOLANA HALT'
p490
sS'KYP'
p491
S'KALYANPUR'
p492
sS'EDD'
p493
S'EDDULADODDI'
p494
sS'LMP'
p495
S'LAKHIMPUR'
p496
sS'RLG'
p497
S'RELANGI'
p498
sS'LMT'
p499
S'ALMATTI'
p500
sS'TBM'
p501
S'TAMBARAM'
p502
sS'PRNA'
p503
S'PURNIA JN'
p504
sS'SRTN'
p505
S'SIBSAGAR TOWN'
p506
sS'LMK'
p507
S'LIMKHEDA'
p508
sS'LMM'
p509
S'LAILAKH MAMLKHA'
p510
sS'LMN'
p511
S'LACHHMANPUR'
p512
sS'LMO'
p513
S'LILIYA MOTA'
p514
sS'LMA'
p515
S'LAMBIYA'
p516
sS'LMC'
p517
S'LAKHAMANCHI'
p518
sS'BGWD'
p519
S'BAGEWADI'
p520
sS'RLP'
p521
S'HARLAPUR'
p522
sS'LMG'
p523
S'LUMDING JN'
p524
sS'DPW'
p525
S'DHAPEWARA'
p526
sS'DPU'
p527
S'DIPHU'
p528
sS'MOTC'
p529
S'MOTICHUR'
p530
sS'DPS'
p531
S'DANGOAPOSI'
p532
sS'BMNL'
p533
S'BAMANWALI'
p534
sS'DPP'
p535
S'DHIRPUR'
p536
sS'MOTH'
p537
S'MOTH'
p538
sS'NG'
p539
S'NAGARI'
p540
sS'DPZ'
p541
S'DEVPURA'
p542
sS'DPX'
p543
S'DADPUR'
p544
sS'RCD'
p545
S'RAJCHANDRAPUR'
p546
sS'MVLK'
p547
S'MAVELIKARA'
p548
sS'UKL'
p549
S'UTTUKULI'
p550
sS'DPC'
p551
S'DARLIPUT'
p552
sS'DPA'
p553
S'DURGAPURA'
p554
sS'SDGM'
p555
S'SARDARGRAM'
p556
sS'UKE'
p557
S'UTTARKATHANI'
p558
sS'DPL'
p559
S'DANAULI PHLWRIA'
p560
sS'UKC'
p561
S'UKSHI'
p562
sS'DPJ'
p563
S'DHARMAPURI'
p564
sS'TAM'
p565
S'TILAIVILAGAM'
p566
sS'DPH'
p567
S'DADHAPARA'
p568
sS'MUZ'
p569
S'MOHIUDDINPUR'
p570
sS'LD'
p571
S'LONDA JN'
p572
sS'RCG'
p573
S'RACHAGUNNARI'
p574
sS'LC'
p575
S'LUCKNOW CITY'
p576
sS'DPR'
p577
S'DHAMPUR'
p578
sS'GFAE'
p579
S'GARIFA'
p580
sS'BLPE'
p581
S'BALAPALLE'
p582
sS'RFJ'
p583
S'RAFIGANJ'
p584
sS'BNLW'
p585
S'BANSTHALI NIWAI'
p586
sS'LW'
p587
S'LORWADA'
p588
sS'SGDM'
p589
S'SIGADAM'
p590
sS'LR'
p591
S'LADPURA'
p592
sS'LS'
p593
S'LASALGAON'
p594
sS'TLV'
p595
S'TALVADYA'
p596
sS'UMRA'
p597
S'UMRA'
p598
sS'ONR'
p599
S'COONOOR'
p600
sS'UMED'
p601
S'UMED'
p602
sS'BLPU'
p603
S'BILPUR'
p604
sS'BLPR'
p605
S'BADULIPAR'
p606
sS'MJN'
p607
S'MAKUM JN'
p608
sS'MAM'
p609
S'MANGAL MAHUDI'
p610
sS'SVJR'
p611
S'SHIVAJINAGAR'
p612
sS'KTQ'
p613
S'KUDRA'
p614
sS'MJO'
p615
S'MAJORDA'
p616
sS'PEH'
p617
S'PATHARDIH JN'
p618
sS'ANTU'
p619
S'ANTU'
p620
sS'RZN'
p621
S'RAUZAGAON'
p622
sS'RMRB'
p623
S'RAMNAGAR BENGAL'
p624
sS'RDHP'
p625
S'RADHANPUR'
p626
sS'STNL'
p627
S'SATNALI'
p628
sS'NGW'
p629
S'NAUGANWAN'
p630
sS'GY'
p631
S'GOOTY'
p632
sS'MDA'
p633
S'MANDHANA JN'
p634
sS'SVNR'
p635
S'SAVANUR'
p636
sS'GG'
p637
S'GANDHIGRAM'
p638
sS'SRNK'
p639
S'SORON'
p640
sS'PEI'
p641
S'PERANI'
p642
sS'NLDA'
p643
S'NALGONDA'
p644
sS'KWAE'
p645
S'KATWA'
p646
sS'CHPT'
p647
S'CHATRAPPATTI'
p648
sS'NLDM'
p649
S'NANGAL DAM'
p650
sS'BINA'
p651
S'BINA JN'
p652
sS'PNW'
p653
S'PUNDHAG'
p654
sS'NRWI'
p655
S'NARWASI'
p656
sS'PNK'
p657
S'PANKI'
p658
sS'GID'
p659
S'GIDDALUR'
p660
sS'PNM'
p661
S'PANYAM'
p662
sS'BKNG'
p663
S'BHAKTI NAGAR'
p664
sS'MJP'
p665
S'MOHARAJPUR'
p666
sS'PNC'
p667
S'PATNA SAHEB'
p668
sS'SRNR'
p669
S'SRIRAMNAGAR'
p670
sS'NDH'
p671
S'NINDHAR BENAR'
p672
sS'PND'
p673
S'PENDRA ROAD'
p674
sS'PNF'
p675
S'PANGAON'
p676
sS'MCO'
p677
S'MOTIHARI COURT'
p678
sS'NNGE'
p679
S'NARANGI'
p680
sS'KNKT'
p681
S'KANAKOT'
p682
sS'CTKT'
p683
S'CHOTI KHATU'
p684
sS'SIPR'
p685
S'SIHAPAR'
p686
sS'TLMR'
p687
S'TELIAMURA'
p688
sS'GIO'
p689
S'GORIYAN'
p690
sS'UDGR'
p691
S'UDGIR'
p692
sS'VDGN'
p693
S'VADGAON NILAA'
p694
sS'GM'
p695
S'GARMADI'
p696
sS'MUP'
p697
S'MURHIPAR'
p698
sS'JOP'
p699
S'JAUNPUR CITY'
p700
sS'JOQ'
p701
S'JORAI'
p702
sS'JOR'
p703
S'JALOR'
p704
sS'PRF'
p705
S'PARSIPUR'
p706
sS'SAO'
p707
S'SAGONI'
p708
sS'SAN'
p709
S'SANDILA'
p710
sS'PRB'
p711
S'PARBATI'
p712
sS'SAC'
p713
S'SANICHARA'
p714
sS'PRL'
p715
S'POLUR'
p716
sS'SAA'
p717
S'SATHIAON'
p718
sS'MUR'
p719
S'MANKAPUR JN'
p720
sS'PRI'
p721
S'PATHRI'
p722
sS'MGVK'
p723
S'MALEGAON VYENKU'
p724
sS'SAE'
p725
S'SIMARIA'
p726
sS'GJ'
p727
S'GANGAJHARI'
p728
sS'WANI'
p729
S'WANI'
p730
sS'JOA'
p731
S'JANWAL'
p732
sS'JOB'
p733
S'ASALPUR JOBNER'
p734
sS'JOC'
p735
S'JOYCHANDI PAHAR'
p736
sS'MJZ'
p737
S'MAJHOLA PAKARYA'
p738
sS'NNGL'
p739
S'NAYA NANGAL'
p740
sS'SAS'
p741
S'SHDSPRA PADMPRA'
p742
sS'SAR'
p743
S'SHAHZAD NAGAR'
p744
sS'NGTG'
p745
S'NEW GITLDADA JN'
p746
sS'BRUD'
p747
S'BARUD'
p748
sS'JOL'
p749
S'JOGAL'
p750
sS'JOM'
p751
S'JOGI MAGRA'
p752
sS'JON'
p753
S'JONHA'
p754
sS'JOO'
p755
S'KACHEGUDA J OUS'
p756
sS'CHA'
p757
S'CHAWAPALL'
p758
sS'CHB'
p759
S'CHABUA'
p760
sS'CHD'
p761
S'CHANDIA ROAD'
p762
sS'DAKE'
p763
S'DAKHINESWAR'
p764
sS'KADI'
p765
S'KADI'
p766
sS'CHH'
p767
S'CHAUKHANDI'
p768
sS'CHI'
p769
S'CHIPLUN'
p770
sS'CHJ'
p771
S'CHATA'
p772
sS'GCH'
p773
S'GACHHIPURA'
p774
sS'CHL'
p775
S'CHOLA'
p776
sS'CHM'
p777
S'CHALTHAN'
p778
sS'MRR'
p779
S'MURARAI'
p780
sS'JAQ'
p781
S'JANDRAPETA'
p782
sS'CHP'
p783
S'CHHAPI'
p784
sS'JAO'
p785
S'JAORA'
p786
sS'CHR'
p787
S'CHILKAHAR'
p788
sS'JAM'
p789
S'JAMNAGAR'
p790
sS'JAJ'
p791
S'JHAJHA'
p792
sS'CHV'
p793
S'CHARVATTUR'
p794
sS'MRK'
p795
S'MARKAPUR ROAD'
p796
sS'MRE'
p797
S'MANAURI'
p798
sS'CHZ'
p799
S'CHARLAPALLI'
p800
sS'JBX'
p801
S'JABRI'
p802
sS'JAB'
p803
S'YAMUNA BDG AGRA'
p804
sS'JAC'
p805
S'JALSU'
p806
sS'MRB'
p807
S'MUNIRABAD'
p808
sS'JAA'
p809
S'JHALIDA'
p810
sS'BRKA'
p811
S'BARKA KANA'
p812
sS'MUE'
p813
S'MUDKHED'
p814
sS'AMRO'
p815
S'AMROHA'
p816
sS'DBM'
p817
S'DABOLIM'
p818
sS'DBL'
p819
S'DODBELE'
p820
sS'DBO'
p821
S'DABHODA'
p822
sS'APR'
p823
S'ANUPPUR JN'
p824
sS'BRKH'
p825
S'BISAPURKALAN'
p826
sS'SUPR'
p827
S'SURAJPUR'
p828
sS'DBB'
p829
S'DHUBRI'
p830
sS'DBD'
p831
S'DEOBAND'
p832
sS'APT'
p833
S'ANAPARTI'
p834
sS'DBF'
p835
S'DABPAL'
p836
sS'DBY'
p837
S'DIGBOI'
p838
sS'APK'
p839
S'ARUPPUKKOTTAI'
p840
sS'APH'
p841
S'ANUPGARH'
p842
sS'API'
p843
S'AKKARAIPPATTI'
p844
sS'APN'
p845
S'AYODHYAPATTANAM'
p846
sS'APL'
p847
S'APPIKATLA'
p848
sS'BTKD'
p849
S'BHARATKUND'
p850
sS'DBP'
p851
S'DEBIPUR'
p852
sS'JNTR'
p853
S'JINTI ROAD'
p854
sS'APA'
p855
S'AMARPURA'
p856
sS'DBU'
p857
S'DODBALLAPUR'
p858
sS'APD'
p859
S'ALIPUR DUAR'
p860
sS'DBV'
p861
S'DABILPUR'
p862
sS'YSI'
p863
S'YEDSHI'
p864
sS'SNM'
p865
S'SITANAGARAM'
p866
sS'SURM'
p867
S'SOLAPUR JN'
p868
sS'ISM'
p869
S'ISMAILA HARYANA'
p870
sS'VNUP'
p871
S'VISHNUPURAM'
p872
sS'THVM'
p873
S'THIVIM'
p874
sS'SNK'
p875
S'SINDKHEDA'
p876
sS'SNH'
p877
S'SAUNSHI'
p878
sS'SNI'
p879
S'SINDI'
p880
sS'RPRD'
p881
S'RUPRA ROAD'
p882
sS'NLP'
p883
S'NORTH LAKHIMPUR'
p884
sS'NLS'
p885
S'NELLORE SOUTH'
p886
sS'NLR'
p887
S'NELLORE'
p888
sS'XXXX'
p889
S'BPT STATION'
p890
sS'HMY'
p891
S'HARMUTI'
p892
sS'NLV'
p893
S'NALBARI'
p894
sS'HMT'
p895
S'HIMMATNAGAR'
p896
sS'SWC'
p897
S'SHIVRAMPUR'
p898
sS'KUPR'
p899
S'KHURDPUR'
p900
sS'HMR'
p901
S'HAMIRA'
p902
sS'HML'
p903
S'HELEM'
p904
sS'NLC'
p905
S'NALIYA CANTT'
p906
sS'HMO'
p907
S'HANUMANGARHTOWN'
p908
sS'HMH'
p909
S'HANUMANGARH JN'
p910
sS'HMI'
p911
S'HIMMATANA'
p912
sS'KUGT'
p913
S'KUMARGHAT'
p914
sS'HMK'
p915
S'HINDUMALKOTE'
p916
sS'NLI'
p917
S'NAMLI'
p918
sS'SGL'
p919
S'SAGAULI JN'
p920
sS'NLK'
p921
S'NAVLAKHI'
p922
sS'HMG'
p923
S'HAMIRGARH'
p924
sS'DLC'
p925
S'DALMERA'
p926
sS'DLB'
p927
S'DAULATABAD'
p928
sS'SNP'
p929
S'SONIPAT'
p930
sS'DLD'
p931
S'DALAUDA'
p932
sS'DLK'
p933
S'DALKOLHA'
p934
sS'DLJ'
p935
S'DHOLA JN'
p936
sS'DLI'
p937
S'DELHI'
p938
sS'JND'
p939
S'JUNAGADH JN'
p940
sS'DLO'
p941
S'DALGAON'
p942
sS'DLN'
p943
S'DILDARNAGAR JN'
p944
sS'MHDP'
p945
S'MAHADEVPARA'
p946
sS'DLR'
p947
S'DULLAHAPUR'
p948
sS'DLQ'
p949
S'DALELNAGAR'
p950
sS'DLP'
p951
S'DALPATPUR'
p952
sS'GCT'
p953
S'GHAZIPUR CITY'
p954
sS'SES'
p955
S'SEMARI'
p956
sS'LUR'
p957
S'LATUR'
p958
sS'BOBS'
p959
S'BOBAS'
p960
sS'AFR'
p961
S'ASAFPUR'
p962
sS'DGG'
p963
S'DONGARGARH'
p964
sS'BTU'
p965
S'BARAUT'
p966
sS'BTT'
p967
S'BHATNI JN'
p968
sS'CTYL'
p969
S'CHITYALA'
p970
sS'BTV'
p971
S'BAITARANI ROAD'
p972
sS'BTQ'
p973
S'BETNOTI'
p974
sS'BTP'
p975
S'BABATPUR'
p976
sS'BTS'
p977
S'BASTA'
p978
sS'BTR'
p979
S'BUTARI'
p980
sS'TKU'
p981
S'TANAKALLU'
p982
sS'KXA'
p983
S'KUANRIYA'
p984
sS'SASR'
p985
S'SAUSAR'
p986
sS'BTY'
p987
S'BETHUADAHARI'
p988
sS'BTX'
p989
S'BELA TAL'
p990
sS'KXG'
p991
S'KHARIA KHANGARH'
p992
sS'BTE'
p993
S'BHARATPUR JN'
p994
sS'BTD'
p995
S'BOTAD JN'
p996
sS'BTG'
p997
S'BASHARATGANJ'
p998
sS'SSN'
p999
S'SASON'
p1000
sS'BTA'
p1001
S'BIHTA'
p1002
sS'MAO'
p1003
S'MADGAON'
p1004
sS'BTC'
p1005
S'BALAGHAT JN'
p1006
sS'KXP'
p1007
S'KANIYAPURAM'
p1008
sS'BTL'
p1009
S'BORTALAO'
p1010
sS'BTO'
p1011
S'BHITAURA'
p1012
sS'MAN'
p1013
S'MANINAGAR'
p1014
sS'BTI'
p1015
S'BHATINDA JN'
p1016
sS'BTH'
p1017
S'BETTIAH'
p1018
sS'BTK'
p1019
S'BANKATA'
p1020
sS'BTJ'
p1021
S'BISHNATHGANJ'
p1022
sS'KKLR'
p1023
S'KAIKOLUR'
p1024
sS'VND'
p1025
S'VENDRA'
p1026
sS'VKN'
p1027
S'VINUKONDA'
p1028
sS'KNO'
p1029
S'KUNDGOL'
p1030
sS'KKLU'
p1031
S'KAKLUR'
p1032
sS'SLR'
p1033
S'SALOGRA'
p1034
sS'NUR'
p1035
S'NARELA'
p1036
sS'SUKU'
p1037
S'SUKU'
p1038
sS'KMRD'
p1039
S'KALAMB ROAD'
p1040
sS'PLG'
p1041
S'PALGHAR'
p1042
sS'ULNR'
p1043
S'ULHASNAGAR'
p1044
sS'SRA'
p1045
S'SEMRA'
p1046
sS'TTP'
p1047
S'TIRUTURAIPDI JN'
p1048
sS'KMNC'
p1049
S'KUCHAMAN CITY'
p1050
sS'PGTN'
p1051
S'PALGHAT TOWN'
p1052
sS'KMME'
p1053
S'KUMARDUBI'
p1054
sS'SRAS'
p1055
S'SIRAS'
p1056
sS'VKB'
p1057
S'VIKARABAD JN'
p1058
sS'TSK'
p1059
S'TINSUKIA JN'
p1060
sS'RMR'
p1061
S'RAMNAGAR'
p1062
sS'RMP'
p1063
S'RAHIMATPUR'
p1064
sS'JTRD'
p1065
S'JATH ROAD'
p1066
sS'RMT'
p1067
S'RAMGARH CANT'
p1068
sS'RMU'
p1069
S'RAMPUR'
p1070
sS'TAKU'
p1071
S'TAKU'
p1072
sS'LNT'
p1073
S'LINGTI'
p1074
sS'MIPM'
p1075
S'MARRIPALEM PH'
p1076
sS'LNQ'
p1077
S'LAKHNAURIA'
p1078
sS'SASG'
p1079
S'SASAN GIR'
p1080
sS'LNR'
p1081
S'LUNI RICHHA'
p1082
sS'RMB'
p1083
S'RAMPURA BERI'
p1084
sS'LNL'
p1085
S'LONAVALA'
p1086
sS'LNO'
p1087
S'LOHNA ROAD'
p1088
sS'LNN'
p1089
S'|'
p1090
sS'RMF'
p1091
S'RAMNA'
p1092
sS'BGVN'
p1093
S'BHIGWAN'
p1094
sS'LNK'
p1095
S'LOHIAN KHAS JN'
p1096
sS'SVRP'
p1097
S'SHIVANARAYANPUR'
p1098
sS'TETA'
p1099
S'TELTA'
p1100
sS'RMH'
p1101
S'RANGMAHAL'
p1102
sS'KGLE'
p1103
S'KHAGRAGHAT ROAD'
p1104
sS'LNA'
p1105
S'LAMANA'
p1106
sS'RMO'
p1107
S'RAMAKONA'
p1108
sS'PVD'
p1109
S'PEDDAVADIAPUDI'
p1110
sS'BBO'
p1111
S'BABUGARH'
p1112
sS'BBN'
p1113
S'BARABIL'
p1114
sS'BBM'
p1115
S'BARABHUM'
p1116
sS'DHKR'
p1117
S'DHODA KHEDI'
p1118
sS'BBK'
p1119
S'BARABANKI JN'
p1120
sS'KJG'
p1121
S'KARAJGI'
p1122
sS'PN'
p1123
S'PANSAR'
p1124
sS'KJJ'
p1125
S'KODAVALURU'
p1126
sS'KMRJ'
p1127
S'KUMARGANJ'
p1128
sS'KJH'
p1129
S'KAJRA'
p1130
sS'DGU'
p1131
S'DIGARU'
p1132
sS'KJN'
p1133
S'KANNAUJ'
p1134
sS'TAKL'
p1135
S'TAKAL'
p1136
sS'BBA'
p1137
S'BABRALA'
p1138
sS'KJM'
p1139
S'KRISHNARAJAPURM'
p1140
sS'KJS'
p1141
S'KRISHNARAJASGRA'
p1142
sS'KKHT'
p1143
S'KAKARGHATTI'
p1144
sS'KJV'
p1145
S'KHIJADIYA JN'
p1146
sS'KMST'
p1147
S'KAMSHET'
p1148
sS'BBY'
p1149
S'BHADROLI'
p1150
sS'CRWA'
p1151
S'CHIRAWA'
p1152
sS'BBW'
p1153
S'BODARWAR'
p1154
sS'BBU'
p1155
S'BHABUA ROAD'
p1156
sS'KJY'
p1157
S'KHURJA CITY'
p1158
sS'BBS'
p1159
S'BHUBANESWAR'
p1160
sS'BSQP'
p1161
S'BANSIPUR'
p1162
sS'RJR'
p1163
S'RAJALDESAR'
p1164
sS'TUX'
p1165
S'TUNIA'
p1166
sS'SLM'
p1167
S'SOMALAPURAM'
p1168
sS'MDNR'
p1169
S'MODINAGAR'
p1170
sS'VYK'
p1171
S'VILAYATKALAN RD'
p1172
sS'TUP'
p1173
S'TIRUPPUR'
p1174
sS'VMD'
p1175
S'VADLAMANNADU'
p1176
sS'MBNL'
p1177
S'MARWAR BHINMAL'
p1178
sS'RMGJ'
p1179
S'RAMGANJ'
p1180
sS'TUV'
p1181
S'TUVVUR'
p1182
sS'DNKL'
p1183
S'DHENKANAL'
p1184
sS'MDDP'
p1185
S'MANDI DIP'
p1186
sS'TUL'
p1187
S'TIRALDIH'
p1188
sS'MBNR'
p1189
S'MAHBUBNAGAR'
p1190
sS'TUN'
p1191
S'TOHANA'
p1192
sS'TUA'
p1193
S'TIRUNNAVAYA'
p1194
sS'BWIP'
p1195
S'BHAWANIPATNA'
p1196
sS'NUA'
p1197
S'NUA'
p1198
sS'DKAE'
p1199
S'DANKUNI'
p1200
sS'GUU'
p1201
S'GUNDRATIMADUGU'
p1202
sS'NYO'
p1203
S'NAYAGAON'
p1204
sS'DRLA'
p1205
S'DAURALA'
p1206
sS'WDM'
p1207
S'WYNDHAMGANJ'
p1208
sS'TAR'
p1209
S'THARSA'
p1210
sS'RCGT'
p1211
S'RICHUGHUTU'
p1212
sS'MOZ'
p1213
S'MUZAFFARNAGAR'
p1214
sS'SKPT'
p1215
S'SOMANAYAKKANPTI'
p1216
sS'RMD'
p1217
S'RAMANATHAPURAM'
p1218
sS'KPNA'
p1219
S'KAPAN'
p1220
sS'KRNR'
p1221
S'KRISHNARAJNAGAR'
p1222
sS'BEHS'
p1223
S'BIHAR SHARIF'
p1224
sS'BEHR'
p1225
S'BEOHARI'
p1226
sS'ANSB'
p1227
S'ANANDPUR SAHIB'
p1228
sS'MDP'
p1229
S'MADHUPUR JN'
p1230
sS'PDZ'
p1231
S'PILIODA'
p1232
sS'BEQ'
p1233
S'BELUR'
p1234
sS'POZ'
p1235
S'POTUL'
p1236
sS'PDY'
p1237
S'PUDUCHERRY'
p1238
sS'POY'
p1239
S'POLLACHI JN'
p1240
sS'TKRI'
p1241
S'TIKIRI'
p1242
sS'POT'
p1243
S'POTHIA'
p1244
sS'JAIS'
p1245
S'JAIS'
p1246
sS'POR'
p1247
S'PIPALDA ROAD'
p1248
sS'SGE'
p1249
S'SANKARIDURG'
p1250
sS'CAMU'
p1251
S'CHAMUA'
p1252
sS'PON'
p1253
S'PONNERI'
p1254
sS'PDW'
p1255
S'PANDAUL'
p1256
sS'POM'
p1257
S'PUNTHOTTAM'
p1258
sS'MLGH'
p1259
S'MANDALGARH'
p1260
sS'FYZ'
p1261
S'FAIZULLAPUR'
p1262
sS'TLMD'
p1263
S'TRILOCHAN MAHDO'
p1264
sS'SWJ'
p1265
S'SIAJULI'
p1266
sS'CYN'
p1267
S'CHERIYANAD'
p1268
sS'POA'
p1269
S'PALIKONA'
p1270
sS'NRN'
p1271
S'NARHAN'
p1272
sS'FKK'
p1273
S'FARAKKA'
p1274
sS'FKM'
p1275
S'FAKIRAGRAM JN'
p1276
sS'LSG'
p1277
S'LAWA SARDARGARH'
p1278
sS'FKA'
p1279
S'FAZILKA'
p1280
sS'FKB'
p1281
S'FAKHRABAD'
p1282
sS'SNX'
p1283
S'SANEH ROAD'
p1284
sS'VCN'
p1285
S'VIROCHANNAGAR'
p1286
sS'FKG'
p1287
S'FURKATING JN'
p1288
sS'CWI'
p1289
S'CHONDI'
p1290
sS'RTA'
p1291
S'RUTHIYAI'
p1292
sS'CWA'
p1293
S'CHHINDWARA JN'
p1294
sS'SWM'
p1295
S'SAWAI MADHOPUR'
p1296
sS'PDP'
p1297
S'PADSE'
p1298
sS'JDNX'
p1299
S'JOGINDER NAGAR'
p1300
sS'UGD'
p1301
S'UPPUGUNDURU'
p1302
sS'SWMM'
p1303
S'SAWAI MDHOPR JN'
p1304
sS'WKI'
p1305
S'WADAKANCHERI'
p1306
sS'PDO'
p1307
S'POODOOR'
p1308
sS'RJL'
p1309
S'RAJMAHAL'
p1310
sS'TTI'
p1311
S'TURTIPAR'
p1312
sS'WKA'
p1313
S'VAKAV'
p1314
sS'KBM'
p1315
S'KOTABOMMALI'
p1316
sS'MGB'
p1317
S'MUDIGUBBA'
p1318
sS'VVR'
p1319
S'VIRAVANALLUR'
p1320
sS'QSR'
p1321
S'KANSRAO'
p1322
sS'PDL'
p1323
S'PENDEKALLU'
p1324
sS'TTR'
p1325
S'TIPTUR'
p1326
sS'RHDR'
p1327
S'HYTHE'
p1328
sS'NIM'
p1329
S'NIMDIH'
p1330
sS'RIG'
p1331
S'RAIGARH'
p1332
sS'CKE'
p1333
S'CHOKI SORATH'
p1334
sS'CKD'
p1335
S'CHARKHI DADRI'
p1336
sS'PAR'
p1337
S'PANDHURNA'
p1338
sS'KBA'
p1339
S'KURABALAKOTA'
p1340
sS'PAU'
p1341
S'PURNA JN'
p1342
sS'PAV'
p1343
S'PEDANA'
p1344
sS'CKB'
p1345
S'CHAUTH KA BRWRA'
p1346
sS'PAX'
p1347
S'PATTI'
p1348
sS'PAY'
p1349
S'PAYYANUR'
p1350
sS'PAZ'
p1351
S'PAYANGADI'
p1352
sS'DTRA'
p1353
S'DANTRA'
p1354
sS'CKI'
p1355
S'CHALAKUDI'
p1356
sS'CKH'
p1357
S'CHAKAND'
p1358
sS'CKK'
p1359
S'CHAKARPUR'
p1360
sS'VLD'
p1361
S'VAYALPAD'
p1362
sS'CKU'
p1363
S'CHAKULIA'
p1364
sS'KATI'
p1365
S'KANTHI P H'
p1366
sS'SIHO'
p1367
S'SIHO'
p1368
sS'KATL'
p1369
S'KATOL'
p1370
sS'CKP'
p1371
S'CHAKRADHARPUR'
p1372
sS'CKS'
p1373
S'CHAKSU'
p1374
sS'CKR'
p1375
S'CHIKODI ROAD'
p1376
sS'KCHV'
p1377
S'KACHCHANVILAI'
p1378
sS'PAI'
p1379
S'PABAI'
p1380
sS'KBE'
p1381
S'KUREBHAR'
p1382
sS'KHTU'
p1383
S'KHATU'
p1384
sS'CKX'
p1385
S'CHAKUR'
p1386
sS'PAN'
p1387
S'PANAGARH'
p1388
sS'PAO'
p1389
S'PANOLI'
p1390
sS'JNUK'
p1391
S'JNPUR KUTCHERRY'
p1392
sS'RN'
p1393
S'RATNAGIRI'
p1394
sS'BRDH'
p1395
S'BARDHANA HALT'
p1396
sS'DCK'
p1397
S'DHANDHUKA'
p1398
sS'AWY'
p1399
S'ALUVA'
p1400
sS'KDTR'
p1401
S'KIRODIMALNAGAR'
p1402
sS'WST'
p1403
S'WASHERMANPET'
p1404
sS'BMCK'
p1405
S'BISSAMCUTTACK'
p1406
sS'AWT'
p1407
S'ALWAR TIRUNAGRI'
p1408
sS'AWS'
p1409
S'ASWANI HALT'
p1410
sS'BRDA'
p1411
S'BARADIYA'
p1412
sS'AMSA'
p1413
S'AMMASANDRA'
p1414
sS'AWP'
p1415
S'AGHWANPUR'
p1416
sS'MQQ'
p1417
S'MARKAHANDI U HT'
p1418
sS'MDU'
p1419
S'MADURAI JN'
p1420
sS'MQS'
p1421
S'MALSIAN SHAHKHT'
p1422
sS'MQR'
p1423
S'MALKHAID ROAD'
p1424
sS'MQU'
p1425
S'MURUKKAMPUZHA'
p1426
sS'PDA'
p1427
S'PUNDOOAH'
p1428
sS'KPDH'
p1429
S'KAPURDHA HALT'
p1430
sS'MQX'
p1431
S'MERALGRAM'
p1432
sS'DCU'
p1433
S'DAMALCHERUVU'
p1434
sS'AWB'
p1435
S'AURANGABAD'
p1436
sS'TDL'
p1437
S'TUNDLA JN'
p1438
sS'PSDA'
p1439
S'PASIVEDALA'
p1440
sS'KTOA'
p1441
S'KOTANA'
p1442
sS'DQR'
p1443
S'KACHEGUDA DBR'
p1444
sS'MRN'
p1445
S'MORWANI'
p1446
sS'KRPU'
p1447
S'KORAPUT'
p1448
sS'UJP'
p1449
S'UJIARPUR'
p1450
sS'KRPR'
p1451
S'KAREPUR'
p1452
sS'MAAR'
p1453
S'MALHAR'
p1454
sS'UJN'
p1455
S'UJJAIN JN'
p1456
sS'DQG'
p1457
S'DHUPGURI'
p1458
sS'UJH'
p1459
S'UJHANI'
p1460
sS'WDN'
p1461
S'VADGAON NILA'
p1462
sS'GRCP'
p1463
S'G.RAMACHANDRAPU'
p1464
sS'TDLE'
p1465
S'TILDANGA'
p1466
sS'DQL'
p1467
S'DHALAIBIL'
p1468
sS'DQN'
p1469
S'DHANERA'
p1470
sS'SGND'
p1471
S'SHRIGONDA ROAD'
p1472
sS'UJA'
p1473
S'UNJHA'
p1474
sS'SPDR'
p1475
S'SHEOPRASADNAGER'
p1476
sS'SGLA'
p1477
S'SANGOLA'
p1478
sS'TBT'
p1479
S'TALBAHAT'
p1480
sS'ANAS'
p1481
S'ANAS'
p1482
sS'DRH'
p1483
S'DHARHARA'
p1484
sS'UPD'
p1485
S'ULAVAPADU'
p1486
sS'IHP'
p1487
S'INCHHAPURI'
p1488
sS'PLCJ'
p1489
S'PHALODI JN'
p1490
sS'WDR'
p1491
S'WADIARAM'
p1492
sS'PTN'
p1493
S'PATAN'
p1494
sS'NVRD'
p1495
S'NAVADE ROAD'
p1496
sS'WDS'
p1497
S'WADSINGE'
p1498
sS'LSX'
p1499
S'LOISINGHA'
p1500
sS'ALMR'
p1501
S'ALAMPUR'
p1502
sS'ZARP'
p1503
S'ZARAP'
p1504
sS'SRKN'
p1505
S'SHEREKAN'
p1506
sS'BLQR'
p1507
S'BILASPUR ROAD'
p1508
sS'VAL'
p1509
S'VADAL'
p1510
sS'TKLB'
p1511
S'TAKLI BHANSALI'
p1512
sS'BGBR'
p1513
S'BAGBAHRA'
p1514
sS'KPP'
p1515
S'KALAPIPAL'
p1516
sS'GBD'
p1517
S'GAURIBIDANUR'
p1518
sS'DMC'
p1519
S'DHEMAJI'
p1520
sS'GBB'
p1521
S'GUBBI'
p1522
sS'DME'
p1523
S'DAMNAGAR'
p1524
sS'DMG'
p1525
S'DOMINGARH'
p1526
sS'DMH'
p1527
S'DAURAM MADHPURA'
p1528
sS'DMK'
p1529
S'DILMILI'
p1530
sS'DMM'
p1531
S'DHARMAVARAM JN'
p1532
sS'DMN'
p1533
S'DHAMANGAON'
p1534
sS'DMO'
p1535
S'DAMOH'
p1536
sS'DMP'
p1537
S'DHARMPUR HMCHL'
p1538
sS'DMR'
p1539
S'DHARMANAGAR'
p1540
sS'DMT'
p1541
S'DIGUVAMETTA'
p1542
sS'AED'
p1543
S'AULENDA'
p1544
sS'DMV'
p1545
S'DIMAPUR'
p1546
sS'DMW'
p1547
S'DALMAU JN'
p1548
sS'JEUR'
p1549
S'JEUR'
p1550
sS'KL'
p1551
S'KHERLI'
p1552
sS'AEL'
p1553
S'ATELI'
p1554
sS'GBX'
p1555
S'GOVINDPUR ROAD'
p1556
sS'KPU'
p1557
S'KRISHNAPURAM'
p1558
sS'BSBR'
p1559
S'BANSHLAI BRIDGE'
p1560
sS'BUX'
p1561
S'BHANDAK'
p1562
sS'BMPL'
p1563
S'BRAHMANPALLI'
p1564
sS'TTU'
p1565
S'TETTU'
p1566
sS'BUP'
p1567
S'BARIARPUR'
p1568
sS'BUQ'
p1569
S'BARGI'
p1570
sS'BUW'
p1571
S'BURHWAL'
p1572
sS'BUT'
p1573
S'BAYTU'
p1574
sS'THAN'
p1575
S'THAN JN'
p1576
sS'BUH'
p1577
S'BURHAR'
p1578
sS'BUI'
p1579
S'BALLIA'
p1580
sS'JAL'
p1581
S'JAWALI'
p1582
sS'BUL'
p1583
S'BHALULATA'
p1584
sS'KPY'
p1585
S'KARUNAGAPALLI'
p1586
sS'BUB'
p1587
S'BISSAU'
p1588
sS'GDPT'
p1589
S'GUDAPARTI'
p1590
sS'VRVL'
p1591
S'VIRAVALLI'
p1592
sS'BUA'
p1593
S'BARADWAR'
p1594
sS'BSKR'
p1595
S'BASI KIRATPUR'
p1596
sS'BUD'
p1597
S'BADLAPUR'
p1598
sS'JMKR'
p1599
S'JAWLMUKHI ROAD'
p1600
sS'KPRD'
p1601
S'KALYANPUR ROAD'
p1602
sS'KCKI'
p1603
S'KECKHI'
p1604
sS'JMKT'
p1605
S'JAMIKUNTA'
p1606
sS'RC'
p1607
S'RAICHUR'
p1608
sS'PUNE'
p1609
S'PUNE JN'
p1610
sS'GP'
p1611
S'RAJ GANGPUR'
p1612
sS'CKDL'
p1613
S'CHAKDAYALA'
p1614
sS'MWR'
p1615
S'MAHANSAR'
p1616
sS'SWD'
p1617
S'SANAWAD'
p1618
sS'KY'
p1619
S'KARELI'
p1620
sS'JMKL'
p1621
S'JAMUNIA KALAN'
p1622
sS'BSKH'
p1623
S'BASUKINATH'
p1624
sS'JLW'
p1625
S'JHALWARA'
p1626
sS'KURJ'
p1627
S'KHAJURAHO'
p1628
sS'PSO'
p1629
S'PALSORA MAKRAWA'
p1630
sS'JLS'
p1631
S'JALESAR ROAD'
p1632
sS'JLR'
p1633
S'JETALSAR JN'
p1634
sS'BRVR'
p1635
S'BORVIHIR'
p1636
sS'MOR'
p1637
S'MOR'
p1638
sS'ACND'
p1639
S'A N DEV NAGAR'
p1640
sS'MOP'
p1641
S'MOHITNAGAR'
p1642
sS'DGDG'
p1643
S'DURGADA GATE'
p1644
sS'KPB'
p1645
S'KHARPOKHRA'
p1646
sS'MOU'
p1647
S'MANOHARPUR'
p1648
sS'MOT'
p1649
S'MALOUT'
p1650
sS'JLD'
p1651
S'JARWAL ROAD'
p1652
sS'MOI'
p1653
S'MORI BERA'
p1654
sS'KMEZ'
p1655
S'KUMHAR MARENGA'
p1656
sS'MON'
p1657
S'MODRAN'
p1658
sS'MOM'
p1659
S'MAMAN'
p1660
sS'MOL'
p1661
S'MULI ROAD'
p1662
sS'PSR'
p1663
S'PASRAHA'
p1664
sS'JLL'
p1665
S'JALALGANJ'
p1666
sS'MOA'
p1667
S'MANOPAD'
p1668
sS'JLN'
p1669
S'JAKHALAUN'
p1670
sS'MOG'
p1671
S'MOHIUDDINNAGAR'
p1672
sS'MOF'
p1673
S'MONDH'
p1674
sS'PST'
p1675
S'POSOTIA'
p1676
sS'KPE'
p1677
S'KAUWAPUR'
p1678
sS'HNA'
p1679
S'HONNAVAR'
p1680
sS'SWI'
p1681
S'SWAMIMALAI'
p1682
sS'BCN'
p1683
S'BACHHRAWAN'
p1684
sS'BCO'
p1685
S'BHACHAU'
p1686
sS'BCH'
p1687
S'BERCHHA'
p1688
sS'BSPL'
p1689
S'BASAMPALLE'
p1690
sS'OMLF'
p1691
S'OLD MALDA'
p1692
sS'BCK'
p1693
S'BALICHAK'
p1694
sS'BCD'
p1695
S'BANSDIH ROAD'
p1696
sS'KMN'
p1697
S'KHAMGAON'
p1698
sS'HNK'
p1699
S'HANAKERE'
p1700
sS'BCRD'
p1701
S'BARCHI ROAD'
p1702
sS'KMK'
p1703
S'KOMAKHAN'
p1704
sS'BCA'
p1705
S'BACHWARA JN'
p1706
sS'KMI'
p1707
S'KUMHARI'
p1708
sS'KMH'
p1709
S'KALAMALIA'
p1710
sS'BSPX'
p1711
S'BANSPANI'
p1712
sS'HNS'
p1713
S'HANSI'
p1714
sS'KMT'
p1715
S'KHAMMAM'
p1716
sS'BJPL'
p1717
S'BAIJNATHPAPROLA'
p1718
sS'BCY'
p1719
S'VARANASI CITY'
p1720
sS'KMQ'
p1721
S'KUMBLA'
p1722
sS'KPI'
p1723
S'KALPI'
p1724
sS'BCT'
p1725
S'MUMBAI CENTRAL'
p1726
sS'BCU'
p1727
S'BHUCHCHU'
p1728
sS'BSPR'
p1729
S'BISHRAMPUR'
p1730
sS'BHDR'
p1731
S'BHADRI'
p1732
sS'BCQ'
p1733
S'BARACHAK'
p1734
sS'TPND'
p1735
S'TALOJA PANCHAND'
p1736
sS'DK'
p1737
S'DAKOR'
p1738
sS'VRR'
p1739
S'VIRPUR'
p1740
sS'SPE'
p1741
S'SULLURUPETA'
p1742
sS'ZW'
p1743
S'ZAWAR'
p1744
sS'JYP'
p1745
S'JEYPORE'
p1746
sS'VRU'
p1747
S'VALIVERU'
p1748
sS'NAD'
p1749
S'NAGDA JN'
p1750
sS'DI'
p1751
S'DOMBIVILI'
p1752
sS'TORI'
p1753
S'TORI'
p1754
sS'PIZ'
p1755
S'PINGLI'
p1756
sS'TVR'
p1757
S'THIRUVARUR JN'
p1758
sS'SGUT'
p1759
S'SILIGURU TOWN'
p1760
sS'NAWN'
p1761
S'NAWAN'
p1762
sS'MWW'
p1763
S'MAHWA'
p1764
sS'MYJ'
p1765
S'MAHEJI'
p1766
sS'TVI'
p1767
S'TARADEVI'
p1768
sS'KPN'
p1769
S'KUPPAM'
p1770
sS'VRE'
p1771
S'VAREDIYA'
p1772
sS'BPH'
p1773
S'BELPAHAR'
p1774
sS'PCR'
p1775
S'PANCHRA'
p1776
sS'VRH'
p1777
S'VIRBHADRA'
p1778
sS'DD'
p1779
S'DAUND JN'
p1780
sS'TVC'
p1781
S'TRIVANDRUM CNTL'
p1782
sS'VRL'
p1783
S'VERAVAL'
p1784
sS'CJ'
p1785
S'KANCHIPURAM'
p1786
sS'CI'
p1787
S'CHHAPRA KACHERI'
p1788
sS'CH'
p1789
S'CHANDAUSI JN'
p1790
sS'KSPR'
p1791
S'KASHIPURA SARAR'
p1792
sS'SRE'
p1793
S'SAHARANPUR'
p1794
sS'CC'
p1795
S'CHAURI CHAURA'
p1796
sS'SWE'
p1797
S'SIWAITH'
p1798
sS'RDDE'
p1799
S'RATHDHANA'
p1800
sS'SRN'
p1801
S'SORON'
p1802
sS'RSH'
p1803
S'RATAN SHAHR'
p1804
sS'CE'
p1805
S'CHHARODI'
p1806
sS'CD'
p1807
S'CHANDRAPUR'
p1808
sS'SRR'
p1809
S'SHORANUR JN'
p1810
sS'GALE'
p1811
S'GANKAR'
p1812
sS'SRP'
p1813
S'SERAMPORE'
p1814
sS'CX'
p1815
S'CHANOL'
p1816
sS'GALA'
p1817
S'GUNADALA'
p1818
sS'SRT'
p1819
S'SATUR'
p1820
sS'SRU'
p1821
S'SALEMPUR JN'
p1822
sS'NGAN'
p1823
S'NAGAON'
p1824
sS'SRX'
p1825
S'SURA NUSSI'
p1826
sS'CP'
p1827
S'KOLKATA'
p1828
sS'CW'
p1829
S'CHAINWA'
p1830
sS'CU'
p1831
S'CHAGALLU'
p1832
sS'CT'
p1833
S'CHITTAPUR'
p1834
sS'BDME'
p1835
S'BAIDYANATHDHAM'
p1836
sS'MGLP'
p1837
S'MANGOLPURI'
p1838
sS'NMT'
p1839
S'NAMTIALI'
p1840
sS'TDH'
p1841
S'TINDHARIA'
p1842
sS'SLPM'
p1843
S'SHIVALINGAPURAM'
p1844
sS'TDN'
p1845
S'TIRUPARANKNDRM'
p1846
sS'NMP'
p1847
S'NIMPURA'
p1848
sS'JYG'
p1849
S'JAYNAGAR'
p1850
sS'KKZ'
p1851
S'KOTTARAKARA'
p1852
sS'NMZ'
p1853
S'NEW MAL JN'
p1854
sS'NMX'
p1855
S'NEW MAYNAGURI'
p1856
sS'BDMJ'
p1857
S'BHODWAL MAJRI'
p1858
sS'BTTR'
p1859
S'BITRAGUNTA'
p1860
sS'GELA'
p1861
S'GHADELA'
p1862
sS'NMD'
p1863
S'NOMODA'
p1864
sS'MYG'
p1865
S'MIYAGAM KARJAN'
p1866
sS'NOG'
p1867
S'NOGONG ASSAM'
p1868
sS'NMA'
p1869
S'NIRMALI'
p1870
sS'ATUL'
p1871
S'ATUL'
p1872
sS'SET'
p1873
S'SETTIHALLY'
p1874
sS'NML'
p1875
S'NELLIMARIA'
p1876
sS'NMM'
p1877
S'NEW MISAMARI'
p1878
sS'NMJ'
p1879
S'NIDAMANGALAM'
p1880
sS'NMK'
p1881
S'NIM KA THANA'
p1882
sS'BAGL'
p1883
S'BARAGOPAL'
p1884
sS'TPT'
p1885
S'TIRUPATTUR JN'
p1886
sS'PBKS'
p1887
S'PMBAKVL SHANDY'
p1888
sS'LOA'
p1889
S'LORHA'
p1890
sS'NAK'
p1891
S'NAKSALBARI'
p1892
sS'LOD'
p1893
S'LEKODA'
p1894
sS'BGUA'
p1895
S'BAIGUDA'
p1896
sS'MFA'
p1897
S'MUKURIA'
p1898
sS'VAE'
p1899
S'VADALI'
p1900
sS'CVR'
p1901
S'CHORVAD ROAD'
p1902
sS'CVP'
p1903
S'KOVILPATTI'
p1904
sS'KKP'
p1905
S'KOT KAPURA'
p1906
sS'DKRA'
p1907
S'DHUANKHERI'
p1908
sS'VARD'
p1909
S'VAIKOM'
p1910
sS'CVJ'
p1911
S'CHAVAJ'
p1912
sS'PDKT'
p1913
S'PUDUKKOTTAI'
p1914
sS'FHT'
p1915
S'FARAH TOWN'
p1916
sS'CVB'
p1917
S'CAVALRY BARRCKS'
p1918
sS'PLD'
p1919
S'PALDHI'
p1920
sS'JYM'
p1921
S'JAI SAMAND ROAD'
p1922
sS'KKAH'
p1923
S'KANKAHA'
p1924
sS'UBR'
p1925
S'UMBARGAM ROAD'
p1926
sS'MGG'
p1927
S'MANGLIYA GAON'
p1928
sS'JYK'
p1929
S'JONE KARRANG'
p1930
sS'QRP'
p1931
S'KILA RAIPUR'
p1932
sS'BRJN'
p1933
S'BRAJRAJNAGAR'
p1934
sS'UCR'
p1935
S'UNCHAHAR JN'
p1936
sS'PRNC'
p1937
S'PURNIA COURT'
p1938
sS'SPF'
p1939
S'STUARTPURAM'
p1940
sS'HLK'
p1941
S'HOLALKERE'
p1942
sS'VSKP'
p1943
S'VISHAKAPATNAM'
p1944
sS'BDHN'
p1945
S'BODHAN'
p1946
sS'VD'
p1947
S'VAGDIYA'
p1948
sS'KONN'
p1949
S'KONNUR'
p1950
sS'VG'
p1951
S'VIRAMGAM JN'
p1952
sS'KMNR'
p1953
S'KAMALNAGAR'
p1954
sS'HPR'
p1955
S'HIRAPUR'
p1956
sS'HPP'
p1957
S'HARPALPUR'
p1958
sS'VL'
p1959
S'VILAD'
p1960
sS'TGP'
p1961
S'TULJAPUR'
p1962
sS'HPU'
p1963
S'HAPUR'
p1964
sS'HPT'
p1965
S'HOSPET JN'
p1966
sS'VP'
p1967
S'VIRAPUR'
p1968
sS'KONY'
p1969
S'KISONI'
p1970
sS'VR'
p1971
S'VIRAR'
p1972
sS'KWB'
p1973
S'KANIWARA'
p1974
sS'HPO'
p1975
S'HASANPUR ROAD'
p1976
sS'VU'
p1977
S'VAGHPURA'
p1978
sS'VV'
p1979
S'VALIVADE'
p1980
sS'KKD'
p1981
S'KALKUND'
p1982
sS'Y'
p1983
S'YELIYUR'
p1984
sS'KWE'
p1985
S'KHURIAL'
p1986
sS'HPG'
p1987
S'HUPPUGUDA'
p1988
sS'KMND'
p1989
S'KUMENDI'
p1990
sS'ALPR'
p1991
S'ALAMPUR ROAD'
p1992
sS'RJU'
p1993
S'RAJULA CITY'
p1994
sS'RJT'
p1995
S'RAJKOT JN'
p1996
sS'RJS'
p1997
S'RAJIYASAR'
p1998
sS'BHJA'
p1999
S'BHEJA'
p2000
sS'RJQ'
p2001
S'RAJENDRANAGAR'
p2002
sS'RJP'
p2003
S'RAZAMPETA'
p2004
sS'KKA'
p2005
S'KANKI'
p2006
sS'KGMR'
p2007
S'KANGRA MANDIR'
p2008
sS'RJY'
p2009
S'RAJAMUNDRY'
p2010
sS'RJG'
p2011
S'RAJGRAM'
p2012
sS'RKM'
p2013
S'RAJA KI MANDI'
p2014
sS'KNT'
p2015
S'KANTH'
p2016
sS'CNDB'
p2017
S'CHANDUR BAZAR'
p2018
sS'RJA'
p2019
S'RAJANAGAR'
p2020
sS'KWH'
p2021
S'KACHHWA ROAD'
p2022
sS'RJO'
p2023
S'RAJENDRA PUL'
p2024
sS'RJN'
p2025
S'RAJ NANDGAON'
p2026
sS'CNDM'
p2027
S'CHANDI MANDIR'
p2028
sS'KIAT'
p2029
S'KYATSANDRA'
p2030
sS'RJK'
p2031
S'RAJA KA SAHASPR'
p2032
sS'RJI'
p2033
S'RAJAWARI'
p2034
sS'ZPL'
p2035
S'ZANGALAPALLE'
p2036
sS'BKLE'
p2037
S'BAKUDI'
p2038
sS'WDA'
p2039
S'WADRENGDISA'
p2040
sS'DRZ'
p2041
S'DALLI RAJHARA'
p2042
sS'MWX'
p2043
S'MALLANWALA KHAS'
p2044
sS'BMPR'
p2045
S'BADAMPAHAR'
p2046
sS'TBB'
p2047
S'TILBHITA'
p2048
sS'DRS'
p2049
S'DHARESHWAR'
p2050
sS'DRR'
p2051
S'DHARUR'
p2052
sS'DRU'
p2053
S'KADUR'
p2054
sS'GRBL'
p2055
S'GARUDUBILLI'
p2056
sS'DRW'
p2057
S'DHAREWADA'
p2058
sS'NAND'
p2059
S'NANDIKOOR'
p2060
sS'DRSN'
p2061
S'DHURWASIN'
p2062
sS'KRSH'
p2063
S'KARAMGARH SDRGH'
p2064
sS'PFL'
p2065
S'PIPRALA'
p2066
sS'DRL'
p2067
S'DEROL'
p2068
sS'DRO'
p2069
S'DARYAOGONJ'
p2070
sS'DRB'
p2071
S'DEBARI'
p2072
sS'DRD'
p2073
S'DAHANU ROAD'
p2074
sS'NNU'
p2075
S'NANGAL MUNDI'
p2076
sS'SIOB'
p2077
S'SAMAKHIALI B G'
p2078
sS'TKD'
p2079
S'TUGLAKABAD'
p2080
sS'VAPI'
p2081
S'VAPI'
p2082
sS'BLNR'
p2083
S'BIRLANAGAR'
p2084
sS'MCVM'
p2085
S'MACHAVARAM'
p2086
sS'RVK'
p2087
S'RAJA BHAT KHAWA'
p2088
sS'UIH'
p2089
S'UMARIA ISPA HLT'
p2090
sS'UPW'
p2091
S'UPPALAVAI'
p2092
sS'BLND'
p2093
S'BOLINNA DOABA'
p2094
sS'KOTT'
p2095
S'KOTTUR HALT'
p2096
sS'TGA'
p2097
S'TEGHRA'
p2098
sS'KRAR'
p2099
S'KHARIAR ROAD'
p2100
sS'ALLP'
p2101
S'ALLEPPEY'
p2102
sS'NAM'
p2103
S'NAMRUP'
p2104
sS'BLNI'
p2105
S'BHALWANI'
p2106
sS'KRAI'
p2107
S'KAHET'
p2108
sS'ON'
p2109
S'UNNAO JN'
p2110
sS'BGKT'
p2111
S'BHAGAT KI KOTHI'
p2112
sS'KAT'
p2113
S'KHATAULI'
p2114
sS'SVHE'
p2115
S'SISVINHALLI'
p2116
sS'NIQ'
p2117
S'NIGAURA'
p2118
sS'NKRA'
p2119
S'NOKHRA'
p2120
sS'NDRT'
p2121
S'NANGAL DEGROTA'
p2122
sS'MOB'
p2123
S'MANOHARABAD'
p2124
sS'TGH'
p2125
S'TITAGARH'
p2126
sS'AYRN'
p2127
S'AKSHAYWAT R NGR'
p2128
sS'SRPR'
p2129
S'SARUPSAR JN'
p2130
sS'SMPA'
p2131
S'SHYAMPURI'
p2132
sS'KWGN'
p2133
S'KAWARGAON'
p2134
sS'PJN'
p2135
S'PANJHAN'
p2136
sS'RTP'
p2137
S'RATANPURA'
p2138
sS'JNKR'
p2139
S'JANAKINAGAR'
p2140
sS'PERN'
p2141
S'PERNEM'
p2142
sS'RM'
p2143
S'RAJMANE'
p2144
sS'SMPR'
p2145
S'SHRI MADHOPUR'
p2146
sS'NAS'
p2147
S'NASRALA'
p2148
sS'ZNA'
p2149
S'ZAMANIA'
p2150
sS'STLR'
p2151
S'SITALPUR'
p2152
sS'SED'
p2153
S'SHEDBAL'
p2154
sS'REN'
p2155
S'REN'
p2156
sS'KHED'
p2157
S'KHED'
p2158
sS'TGM'
p2159
S'TANGARMUNDA'
p2160
sS'SRPJ'
p2161
S'SWARUPGANJ'
p2162
sS'STPT'
p2163
S'SITAMPET'
p2164
sS'MULK'
p2165
S'MULKI'
p2166
sS'GOM'
p2167
S'GOGAMUKH'
p2168
sS'HX'
p2169
S'CUDDAPAH'
p2170
sS'SII'
p2171
S'SITIMANI'
p2172
sS'ODM'
p2173
S'ONDAGRAM'
p2174
sS'SCN'
p2175
S'SONDHA ROAD'
p2176
sS'GOL'
p2177
S'GOILKERA'
p2178
sS'HR'
p2179
S'HARPALU'
p2180
sS'RDRA'
p2181
S'RAMDEVRA'
p2182
sS'HP'
p2183
S'HARIPUR'
p2184
sS'REM'
p2185
S'REDDIGUDEM'
p2186
sS'SWR'
p2187
S'SONUA'
p2188
sS'HW'
p2189
S'HARIDWAR JN'
p2190
sS'SURI'
p2191
S'SIURI'
p2192
sS'SUJH'
p2193
S'SUJANGARH'
p2194
sS'HN'
p2195
S'HATHBANDH'
p2196
sS'DPUR'
p2197
S'DEPUR PH'
p2198
sS'SURP'
p2199
S'SURATPURA'
p2200
sS'HM'
p2201
S'HADMATIYA JN'
p2202
sS'HA'
p2203
S'HARGAON'
p2204
sS'HG'
p2205
S'HOTGI'
p2206
sS'HD'
p2207
S'HARDA'
p2208
sS'GOH'
p2209
S'GAROT'
p2210
sS'MNX'
p2211
S'MANGANALLUR'
p2212
sS'MNY'
p2213
S'MANKARAI'
p2214
sS'PTM'
p2215
S'PADALAM'
p2216
sS'MRPL'
p2217
S'MARAMPALLI'
p2218
sS'PTK'
p2219
S'PATHANKOT'
p2220
sS'GOK'
p2221
S'GOKARNA ROAD'
p2222
sS'AUNG'
p2223
S'AUNG'
p2224
sS'MNP'
p2225
S'MANANPUR'
p2226
sS'JMS'
p2227
S'JAMSAR'
p2228
sS'JMP'
p2229
S'JAMALPUR JN'
p2230
sS'JMQ'
p2231
S'JAMIRGHATA'
p2232
sS'JMV'
p2233
S'JAMBARA'
p2234
sS'MNU'
p2235
S'MUNDIKOTA'
p2236
sS'JMT'
p2237
S'JAMTARA'
p2238
sS'JMU'
p2239
S'JAMUI'
p2240
sS'DHG'
p2241
S'DHRANGDHRA'
p2242
sS'MNJ'
p2243
S'MANOHARGANJ'
p2244
sS'MNL'
p2245
S'MINCHNAL'
p2246
sS'MNM'
p2247
S'MANAMADURAI JN'
p2248
sS'LMNR'
p2249
S'LAKSHMIBAI NGR'
p2250
sS'SCT'
p2251
S'SENGOTTAI'
p2252
sS'PTU'
p2253
S'PARTUR'
p2254
sS'KRDL'
p2255
S'KIRANDUL'
p2256
sS'MND'
p2257
S'MUNDERWA'
p2258
sS'JMG'
p2259
S'JAMGA'
p2260
sS'JMD'
p2261
S'JAMDHA'
p2262
sS'MNG'
p2263
S'MANIHARI GHAT'
p2264
sS'PCO'
p2265
S'PALAYANKOTTAI'
p2266
sS'PBW'
p2267
S'PANTNAGAR'
p2268
sS'MLI'
p2269
S'MANGALIYAWAS'
p2270
sS'CJN'
p2271
S'CHHATNA'
p2272
sS'PBP'
p2273
S'PEMBARTI'
p2274
sS'CJL'
p2275
S'CHAJLI'
p2276
sS'CJM'
p2277
S'CHINNA GANJAM'
p2278
sS'GOA'
p2279
S'GOHAD ROAD'
p2280
sS'NIU'
p2281
S'NABIPUR'
p2282
sS'SRBA'
p2283
S'SARAGBUNDIA'
p2284
sS'LFG'
p2285
S'LOWER HAFLONG'
p2286
sS'MABD'
p2287
S'MAHBUBABAD'
p2288
sS'MLO'
p2289
S'MALUR'
p2290
sS'PBE'
p2291
S'PILIBHIT JN'
p2292
sS'AHLR'
p2293
S'AHALYAPUR'
p2294
sS'PBA'
p2295
S'PIARDOBA'
p2296
sS'GOC'
p2297
S'PONMLAI GLD RCK'
p2298
sS'CJR'
p2299
S'CHAMARAJ'
p2300
sS'CJS'
p2301
S'CHARAMULA KUSUM'
p2302
sS'KHKN'
p2303
S'KHERA KALAN'
p2304
sS'PBN'
p2305
S'PARBHANI JN'
p2306
sS'CJW'
p2307
S'CHAJAWA'
p2308
sS'PCL'
p2309
S'PULICHERLA'
p2310
sS'MPF'
p2311
S'MUIRPUR ROAD'
p2312
sS'RWTB'
p2313
S'ROWTA BAGAN'
p2314
sS'BPRS'
p2315
S'BHOGPUR SIRWAL'
p2316
sS'CDMR'
p2317
S'CHANDAULI MJHWR'
p2318
sS'MPL'
p2319
S'MADANAPALLE RD'
p2320
sS'AMPA'
p2321
S'AMBALAPUZHA'
p2322
sS'MPJ'
p2323
S'MADANPUR'
p2324
sS'MLP'
p2325
S'MALLAPUR'
p2326
sS'MPH'
p2327
S'MUNDHA PANDE'
p2328
sS'AVS'
p2329
S'AUVANESWSAREM'
p2330
sS'BPRD'
p2331
S'BARPETA ROAD'
p2332
sS'AVN'
p2333
S'ANAVARDIKHANPET'
p2334
sS'MPU'
p2335
S'MEDAPADU'
p2336
sS'MPR'
p2337
S'MAKARPURA'
p2338
sS'AVK'
p2339
S'ARAVANKADU'
p2340
sS'AVD'
p2341
S'AVADI'
p2342
sS'MLV'
p2343
S'MALLARPUR'
p2344
sS'BTIC'
p2345
S'BATHINDA CANTT.'
p2346
sS'SMLG'
p2347
S'SHIMILIAGUDA'
p2348
sS'BPRH'
p2349
S'BALPUR HALT'
p2350
sS'MPY'
p2351
S'MURARPUR'
p2352
sS'KLGD'
p2353
S'KOLLENGODE'
p2354
sS'TZR'
p2355
S'TURKI ROAD'
p2356
sS'SUD'
p2357
S'SUDHANI'
p2358
sS'SUC'
p2359
S'SUNAK'
p2360
sS'LKMR'
p2361
S'LAXMIPUR ROAD'
p2362
sS'SUA'
p2363
S'SARDIHA'
p2364
sS'KANO'
p2365
S'KANOH'
p2366
sS'NAT'
p2367
S'NATHNAGAR'
p2368
sS'SUL'
p2369
S'SULADHAL'
p2370
sS'SUH'
p2371
S'SULEHALLI'
p2372
sS'SUW'
p2373
S'SUKHISEWANIYAN'
p2374
sS'MLZ'
p2375
S'MALARNA'
p2376
sS'SUR'
p2377
S'SOLAPUR JN'
p2378
sS'SUP'
p2379
S'SHRUNGAVARPUKTA'
p2380
sS'KANJ'
p2381
S'KANIL'
p2382
sS'SUZ'
p2383
S'SUBANSIRI'
p2384
sS'GAMI'
p2385
S'GOGAMERI'
p2386
sS'SURC'
p2387
S'SHOLAPUR CB'
p2388
sS'LPNR'
p2389
S'LAJPAT NAGAR'
p2390
sS'MLY'
p2391
S'MAULA ALI'
p2392
sS'TEL'
p2393
S'TENALI JN'
p2394
sS'GRWD'
p2395
S'GHORAWADI'
p2396
sS'TEN'
p2397
S'TIRUNELVELI'
p2398
sS'NBR'
p2399
S'NAMBURU'
p2400
sS'NBQ'
p2401
S'NEW BONGAIGAON'
p2402
sS'NBP'
p2403
S'NIBHAPUR'
p2404
sS'KVLS'
p2405
S'KARAKAVALASA'
p2406
sS'DHR'
p2407
S'DHARNAODA'
p2408
sS'TIS'
p2409
S'TATISILWAI'
p2410
sS'NBI'
p2411
S'NADBAI'
p2412
sS'GGAR'
p2413
S'GANGADHARA'
p2414
sS'GPDE'
p2415
S'GUDIPUDI'
p2416
sS'NBM'
p2417
S'NAVABPALEM'
p2418
sS'NBL'
p2419
S'NIMBAL'
p2420
sS'NBA'
p2421
S'NABHA'
p2422
sS'SEE'
p2423
S'SONPUR JN'
p2424
sS'NBG'
p2425
S'NABENAGAR ROAD'
p2426
sS'MWY'
p2427
S'MAILARAM'
p2428
sS'SMBJ'
p2429
S'SHRI MAHABIRJI'
p2430
sS'BKPT'
p2431
S'BHAKARAPET'
p2432
sS'DNE'
p2433
S'DHAMNI'
p2434
sS'DND'
p2435
S'DANDUPUR'
p2436
sS'ADT'
p2437
S'ADUTURAI'
p2438
sS'GMH'
p2439
S'GAMHARIA'
p2440
sS'DNA'
p2441
S'DEGANA JN'
p2442
sS'DNC'
p2443
S'DHONE'
p2444
sS'MCLE'
p2445
S'MANCHILI'
p2446
sS'DNM'
p2447
S'DHANMANDAL'
p2448
sS'GMA'
p2449
S'GUDIMETTA'
p2450
sS'DNN'
p2451
S'DINA NAGAR'
p2452
sS'DNK'
p2453
S'DHANAKYA'
p2454
sS'GMD'
p2455
S'GURAMKHEDI'
p2456
sS'ADF'
p2457
S'ADINA'
p2458
sS'DNT'
p2459
S'DANTAN'
p2460
sS'DNW'
p2461
S'DANGARWA'
p2462
sS'DNV'
p2463
S'DONKINAVALASA'
p2464
sS'ADB'
p2465
S'ADILABAD'
p2466
sS'DNR'
p2467
S'DANAPUR'
p2468
sS'GMS'
p2469
S'GARHMUKTESAR'
p2470
sS'GMR'
p2471
S'GAHMAR'
p2472
sS'ADL'
p2473
S'ANDUL'
p2474
sS'JDB'
p2475
S'JAGDALPUR'
p2476
sS'DNX'
p2477
S'DHANSU'
p2478
sS'ADH'
p2479
S'ANDHERI'
p2480
sS'ADI'
p2481
S'AHMEDABAD JN'
p2482
sS'NRDP'
p2483
S'NAGIREDDIPALLI'
p2484
sS'KZQ'
p2485
S'KHIMEL'
p2486
sS'BRZ'
p2487
S'BARETA'
p2488
sS'BRY'
p2489
S'BAREILLY'
p2490
sS'KZU'
p2491
S'KUNKI'
p2492
sS'BRW'
p2493
S'BARIWALA'
p2494
sS'RNIS'
p2495
S'RANOLISHISHU'
p2496
sS'BRU'
p2497
S'BHAIROGANJ'
p2498
sS'KZY'
p2499
S'KAYALPATTINAM'
p2500
sS'BRS'
p2501
S'BIRSINGHPUR'
p2502
sS'BRR'
p2503
S'BARAKAR'
p2504
sS'KZB'
p2505
S'KURUMBUR'
p2506
sS'GTNR'
p2507
S'GOMATI NAGAR'
p2508
sS'BHWA'
p2509
S'BECHHIWARA'
p2510
sS'KZA'
p2511
S'KHADA'
p2512
sS'BRK'
p2513
S'BAHRAICH'
p2514
sS'PJA'
p2515
S'PAJIAN'
p2516
sS'BRH'
p2517
S'BAIKUNTHPUR RD'
p2518
sS'BRG'
p2519
S'BARGARH'
p2520
sS'GJJ'
p2521
S'GAJJELAKONDA'
p2522
sS'BRE'
p2523
S'BHARWARI'
p2524
sS'BSAE'
p2525
S'BANSH BARIA'
p2526
sS'BRC'
p2527
S'VADODARA JN'
p2528
sS'BRB'
p2529
S'BORIBIAL'
p2530
sS'TWB'
p2531
S'TALWANDI'
p2532
sS'CHCR'
p2533
S'CHACHER'
p2534
sS'LTR'
p2535
S'LAKHTAR'
p2536
sS'HQR'
p2537
S'HIRENANDURU'
p2538
sS'TKQ'
p2539
S'TRIKARPUR'
p2540
sS'SLT'
p2541
S'SILAUT'
p2542
sS'DISA'
p2543
S'DISA'
p2544
sS'TTH'
p2545
S'TIRUMLAI HLS OA'
p2546
sS'MCA'
p2547
S'MECHEDA'
p2548
sS'TLU'
p2549
S'TARLUPADU'
p2550
sS'UNLA'
p2551
S'UNAULA'
p2552
sS'SKF'
p2553
S'SAKHOTI TANDA'
p2554
sS'VRB'
p2555
S'VISHRAMBAG'
p2556
sS'GJD'
p2557
S'GUJHANDI'
p2558
sS'DL'
p2559
S'DALADI'
p2560
sS'CNGR'
p2561
S'CHENGANNUR'
p2562
sS'BHKD'
p2563
S'BHURKUNDA'
p2564
sS'SEB'
p2565
S'SON NAGAR'
p2566
sS'RKSN'
p2567
S'RAJKHARSAWAN JN'
p2568
sS'RKS'
p2569
S'SARAI RANI'
p2570
sS'LTT'
p2571
S'LOKMANYATILAK T'
p2572
sS'TAE'
p2573
S'TADALI'
p2574
sS'RKZ'
p2575
S'RAJKIAWAS'
p2576
sS'TLKH'
p2577
S'TALAKHAJURI'
p2578
sS'RKD'
p2579
S'RUKADI'
p2580
sS'MOW'
p2581
S'MANANWALA'
p2582
sS'WIRR'
p2583
S'WIRUR'
p2584
sS'MWM'
p2585
S'MALLESWARAM'
p2586
sS'KNGN'
p2587
S'KANHEGAON'
p2588
sS'RKL'
p2589
S'RAMKOLA'
p2590
sS'ORR'
p2591
S'ORR'
p2592
sS'JDR'
p2593
S'JIWDHARA'
p2594
sS'RKH'
p2595
S'RAKHIYAL'
p2596
sS'PTKD'
p2597
S'PATHARKANDI'
p2598
sS'KLD'
p2599
S'KHALILABAD'
p2600
sS'SCM'
p2601
S'SIMHACHALAM'
p2602
sS'KLG'
p2603
S'KALUNGA'
p2604
sS'SBGA'
p2605
S'SHRAVANBELAGOLA'
p2606
sS'KLB'
p2607
S'KIRAOLI'
p2608
sS'NWU'
p2609
S'NAVAPUR'
p2610
sS'KLL'
p2611
S'KALOL'
p2612
sS'HOL'
p2613
S'HOL'
p2614
sS'HOJ'
p2615
S'HAMITONGANJ'
p2616
sS'SCO'
p2617
S'SATUNA'
p2618
sS'KLJ'
p2619
S'KAMALGANJ'
p2620
sS'KLK'
p2621
S'KALKA'
p2622
sS'KLT'
p2623
S'KULITALAI'
p2624
sS'KLU'
p2625
S'KALLURU'
p2626
sS'KLV'
p2627
S'KELVA ROAD'
p2628
sS'KBRV'
p2629
S'KANJARI BORIYAV'
p2630
sS'KLP'
p2631
S'KOTALPUKUR'
p2632
sS'KMLR'
p2633
S'KAMALUR'
p2634
sS'GOGH'
p2635
S'GOSSAIGAON HAT'
p2636
sS'NWP'
p2637
S'NAUPADA JN'
p2638
sS'SORO'
p2639
S'SORO'
p2640
sS'KLX'
p2641
S'KOLAKALUR'
p2642
sS'BHET'
p2643
S'BHESTAN'
p2644
sS'KLZ'
p2645
S'KEOLARI'
p2646
sS'PTJ'
p2647
S'PODANUR JN'
p2648
sS'WNG'
p2649
S'WANEGAON'
p2650
sS'YGD'
p2651
S'YERRAGUDIPAD'
p2652
sS'VST'
p2653
S'BIJAYSOTA'
p2654
sS'VSU'
p2655
S'BISHNUPUR'
p2656
sS'TKBN'
p2657
S'TSAKIBANDA'
p2658
sS'SGAM'
p2659
S'SAREIGRAM'
p2660
sS'PTH'
p2661
S'PATRANGA'
p2662
sS'DSPN'
p2663
S'DESHAPRAN P.H.'
p2664
sS'SEO'
p2665
S'SEOHARA'
p2666
sS'SCE'
p2667
S'SENCHOA JN'
p2668
sS'SDBH'
p2669
S'SINDRIBLOCK HUT'
p2670
sS'TIM'
p2671
S'TIMMANACHERLA'
p2672
sS'GJMB'
p2673
S'GANJMURADABAD'
p2674
sS'DSPT'
p2675
S'DANISHPET'
p2676
sS'MGLE'
p2677
S'MANIGRAM'
p2678
sS'YL'
p2679
S'YEOLA'
p2680
sS'MNR'
p2681
S'MAKKHANPUR'
p2682
sS'BLAX'
p2683
S'BARLAI'
p2684
sS'ORGA'
p2685
S'ORGA'
p2686
sS'SVKS'
p2687
S'SIVAKASI'
p2688
sS'SVPR'
p2689
S'SRIVILLIPUTTUR'
p2690
sS'AME'
p2691
S'AMETHI'
p2692
sS'HCNR'
p2693
S'HARICHANDANPUR'
p2694
sS'SEN'
p2695
S'SENAPURA'
p2696
sS'PTB'
p2697
S'PATTAMBI'
p2698
sS'LTRR'
p2699
S'LATUR ROAD'
p2700
sS'SVKD'
p2701
S'SAVARKUNDLA'
p2702
sS'SSKA'
p2703
S'SISARKA'
p2704
sS'KPLL'
p2705
S'KOTTA PNDLPALLI'
p2706
sS'NGRT'
p2707
S'NAGROTA'
p2708
sS'KPLE'
p2709
S'KOPAI'
p2710
sS'RYS'
p2711
S'RASURIYA'
p2712
sS'RYP'
p2713
S'RAYANAPAD'
p2714
sS'RBGJ'
p2715
S'ROBERTS GANJ'
p2716
sS'NWD'
p2717
S'NAWADAH'
p2718
sS'PTT'
p2719
S'PUTALAPATTU'
p2720
sS'NZT'
p2721
S'NAZARETH'
p2722
sS'JMK'
p2723
S'JAMUNAMUKH'
p2724
sS'TTO'
p2725
S'TARN TARAN'
p2726
sS'BWSN'
p2727
S'BIJWASAN'
p2728
sS'HTZU'
p2729
S'HATHIDAH UPPER'
p2730
sS'SMQL'
p2731
S'SHAMLI'
p2732
sS'KHDI'
p2733
S'KHANDERI'
p2734
sS'MMLN'
p2735
S'MAHUAMILAN'
p2736
sS'NPRD'
p2737
S'NAGPUR ROAD'
p2738
sS'TQM'
p2739
S'TELAM'
p2740
sS'NLKT'
p2741
S'NALKATA'
p2742
sS'TPNI'
p2743
S'TUIYA PANI'
p2744
sS'NLKR'
p2745
S'NILOKHERI'
p2746
sS'PTZ'
p2747
S'PATSUL'
p2748
sS'BGTA'
p2749
S'BAGRA TAWA'
p2750
sS'VAK'
p2751
S'VARKALASIVAGIRI'
p2752
sS'LHD'
p2753
S'LOHOGAD'
p2754
sS'LHB'
p2755
S'LAHABON'
p2756
sS'GMIA'
p2757
S'GUMIA'
p2758
sS'PMN'
p2759
S'PAMAN'
p2760
sS'MLHA'
p2761
S'MALIYA HATINA'
p2762
sS'LHN'
p2763
S'LACHYAN'
p2764
sS'ADTL'
p2765
S'ADHARTAL'
p2766
sS'MWRN'
p2767
S'MADWARANI'
p2768
sS'RLO'
p2769
S'RAYALCHERUVU'
p2770
sS'NUH'
p2771
S'NAUGARH'
p2772
sS'BGTN'
p2773
S'BHAGTANWALA'
p2774
sS'LHW'
p2775
S'LOHARWARA'
p2776
sS'LHU'
p2777
S'LOHARU'
p2778
sS'MHT'
p2779
S'MANJHI'
p2780
sS'ADTP'
p2781
S'ADITYAPUR'
p2782
sS'VAR'
p2783
S'VIDYANAGAR'
p2784
sS'RSR'
p2785
S'RASRA'
p2786
sS'JUC'
p2787
S'JALANDHAR CITY'
p2788
sS'NWN'
p2789
S'NANWAN'
p2790
sS'VAT'
p2791
S'VATLUR'
p2792
sS'DLGN'
p2793
S'DHALGAON'
p2794
sS'MNC'
p2795
S'MADANKATA'
p2796
sS'KWN'
p2797
S'KACHEWANI'
p2798
sS'MAP'
p2799
S'MORAPPUR'
p2800
sS'PTS'
p2801
S'PATANSAONGI'
p2802
sS'MNE'
p2803
S'MANSI JN'
p2804
sS'TAPA'
p2805
S'TAPA'
p2806
sS'PIP'
p2807
S'PIPLIA'
p2808
sS'JJKR'
p2809
S'JAJPUR K ROAD'
p2810
sS'MNF'
p2811
S'MANDA ROAD'
p2812
sS'RASP'
p2813
S'RASIPURAM'
p2814
sS'PKNS'
p2815
S'POKHARNI NRSNHA'
p2816
sS'PTP'
p2817
S'PATAL PANI'
p2818
sS'KTLA'
p2819
S'KATKOLA JN'
p2820
sS'PCZ'
p2821
S'POCHARAM'
p2822
sS'PCX'
p2823
S'PAGLA CHANDI'
p2824
sS'PQA'
p2825
S'PIPLA HALT'
p2826
sS'CMJ'
p2827
S'CHAMARAJAPURAM'
p2828
sS'PRDH'
p2829
S'PIRDULESHA HALT'
p2830
sS'MRT'
p2831
S'MATHURA CANT'
p2832
sS'EDN'
p2833
S'EDAMANN'
p2834
sS'PCQ'
p2835
S'PICHKURIRDHAL'
p2836
sS'CMC'
p2837
S'CHEMANCHERI'
p2838
sS'CMA'
p2839
S'CINNAMARA'
p2840
sS'MRWS'
p2841
S'MARWAR RANAWAS'
p2842
sS'PCH'
p2843
S'PACHHAPUR'
p2844
sS'PBV'
p2845
S'PALIBA'
p2846
sS'PCN'
p2847
S'PANCH PIPILA'
p2848
sS'CMZ'
p2849
S'CHALAMA'
p2850
sS'CMY'
p2851
S'CHINTAMANI'
p2852
sS'CMX'
p2853
S'CHAMAGRAM'
p2854
sS'CMW'
p2855
S'CHIMA PAHAD'
p2856
sS'CHKE'
p2857
S'CHALLAKERE'
p2858
sS'CMU'
p2859
S'CHAU MAHLA'
p2860
sS'SYWN'
p2861
S'SAIYID SARAWAN'
p2862
sS'SVPI'
p2863
S'SHIVPURI'
p2864
sS'CHKB'
p2865
S'CHAKKI BANK'
p2866
sS'KDRP'
p2867
S'KANDARPUR'
p2868
sS'PBS'
p2869
S'PURAB SARAI'
p2870
sS'PBR'
p2871
S'PORBANDAR'
p2872
sS'YLK'
p2873
S'YELLAKARU'
p2874
sS'SGRL'
p2875
S'SINGRAULI'
p2876
sS'SGRM'
p2877
S'SINGARAM'
p2878
sS'PCLI'
p2879
S'PALACHAURI'
p2880
sS'RSWT'
p2881
S'RMGRH SHEKHWATI'
p2882
sS'PCLM'
p2883
S'PANCHALAM'
p2884
sS'VEER'
p2885
S'VEER'
p2886
sS'FLR'
p2887
S'PHULESWAR'
p2888
sS'SGRE'
p2889
S'SULGARE'
p2890
sS'UVD'
p2891
S'UDVADA'
p2892
sS'SGRA'
p2893
S'SANGARIA'
p2894
sS'SN'
p2895
S'SUKNA'
p2896
sS'MKDD'
p2897
S'MUKUNDAWADI HA'
p2898
sS'SEH'
p2899
S'SEHORE'
p2900
sS'MRV'
p2901
S'MARSUL'
p2902
sS'ORH'
p2903
S'ODDARAHALLI'
p2904
sS'SDMK'
p2905
S'SIDMUKH'
p2906
sS'ABFC'
p2907
S'AMBARI FALAKATA'
p2908
sS'SNPR'
p2909
S'SINGARPUR'
p2910
sS'MKDN'
p2911
S'MORKADHANA'
p2912
sS'SL'
p2913
S'SURATHKAL'
p2914
sS'MRIJ'
p2915
S'MURLIGANJ'
p2916
sS'DSS'
p2917
S'DALSINGH SARAI'
p2918
sS'BMSB'
p2919
S'BHIMASAR BG'
p2920
sS'DSO'
p2921
S'DESHNOK'
p2922
sS'DRPH'
p2923
S'DEVRI P.H'
p2924
sS'MAGH'
p2925
S'MANIKGARH'
p2926
sS'DSJ'
p2927
S'<\x01LHI SAFDARJNG'
p2928
sS'DSK'
p2929
S'DUSKHEDA'
p2930
sS'RMM'
p2931
S'RAMESWARAM'
p2932
sS'GRMT'
p2933
S'GUR MARKET'
p2934
sS'DSD'
p2935
S'DOSVADA'
p2936
sS'GRMP'
p2937
S'GANGARAMPUR'
p2938
sS'GRMR'
p2939
S'GARHI MANIKPUR'
p2940
sS'DSA'
p2941
S'DELHI SHAHDARA'
p2942
sS'ME'
p2943
S'MASAIPET'
p2944
sS'MD'
p2945
S'MADAR'
p2946
sS'TENI'
p2947
S'TENI'
p2948
sS'MA'
p2949
S'MADHA'
p2950
sS'VNA'
p2951
S'VARANGAON'
p2952
sS'MB'
p2953
S'MORADABAD'
p2954
sS'RWH'
p2955
S'ROWRIAH SDG'
p2956
sS'LMD'
p2957
S'LINGANENIDODDI'
p2958
sS'MO'
p2959
S'MOHOL'
p2960
sS'PLMD'
p2961
S'PILAMEDU'
p2962
sS'INP'
p2963
S'INDAPUR'
p2964
sS'MK'
p2965
S'MIRANPUR KATRA'
p2966
sS'MJ'
p2967
S'MARWAR JN'
p2968
sS'OKA'
p2969
S'OKHLA'
p2970
sS'MW'
p2971
S'MAIRWA'
p2972
sS'MV'
p2973
S'MAYILADUTURAI J'
p2974
sS'MQ'
p2975
S'MANNARGUDI'
p2976
sS'OKD'
p2977
S'OKHA MADHI'
p2978
sS'MS'
p2979
S'CHENNAI EGMORE'
p2980
sS'INK'
p2981
S'INTAKANNE'
p2982
sS'KUA'
p2983
S'KULHARIA'
p2984
sS'RLR'
p2985
S'RAILA ROAD'
p2986
sS'MY'
p2987
S'MALLIYAM'
p2988
sS'NDAZ'
p2989
S'NAYA AZADPUR'
p2990
sS'GLH'
p2991
S'GULAOTHI'
p2992
sS'DOK'
p2993
S'DHOLKA'
p2994
sS'AKY'
p2995
S'AKKURTI'
p2996
sS'DOL'
p2997
S'DHOLI'
p2998
sS'DOB'
p2999
S'DUNDLOD MKDGRH'
p3000
sS'AKR'
p3001
S'AKOLNER'
p3002
sS'AKP'
p3003
S'ANAKAPALLE'
p3004
sS'AKW'
p3005
S'AKORA'
p3006
sS'AKV'
p3007
S'ANKLESHWAR JN'
p3008
sS'DOD'
p3009
S'DHODHAR'
p3010
sS'DOE'
p3011
S'DEORI'
p3012
sS'DOZ'
p3013
S'DAURAI'
p3014
sS'AKJ'
p3015
S'AKBARGANJ'
p3016
sS'MKRD'
p3017
S'MACHHAKUNDA'
p3018
sS'NKI'
p3019
S'NAIKHERI'
p3020
sS'BRPT'
p3021
S'BIRAPATTI'
p3022
sS'AKN'
p3023
S'AKBARNAGAR'
p3024
sS'CAPE'
p3025
S'KANYAKUMARI'
p3026
sS'GLP'
p3027
S'GOLLAPROLU'
p3028
sS'DOS'
p3029
S'DEHRI ON SONE'
p3030
sS'GLU'
p3031
S'GULLIPADU'
p3032
sS'AKE'
p3033
S'AKANAPET'
p3034
sS'AKD'
p3035
S'AKODIA'
p3036
sS'PVRD'
p3037
S'PIRAVAM ROAD'
p3038
sS'BSX'
p3039
S'BASAR'
p3040
sS'BSY'
p3041
S'BARSATHI'
p3042
sS'BSZ'
p3043
S'BHARWA SUMERPUR'
p3044
sS'BST'
p3045
S'BASTI'
p3046
sS'BHTR'
p3047
S'BHATPAR RANI'
p3048
sS'BSQ'
p3049
S'BARSI TAKLI'
p3050
sS'BSR'
p3051
S'VASAI ROAD'
p3052
sS'BSS'
p3053
S'BAHADUR SINGH W'
p3054
sS'BHTN'
p3055
S'BHITONI'
p3056
sS'BSM'
p3057
S'BISANATTAM'
p3058
sS'BSN'
p3059
S'BANASANDRA'
p3060
sS'BHTK'
p3061
S'BHANWAR TONK'
p3062
sS'BSJ'
p3063
S'BHUPALSAGAR'
p3064
sS'BSE'
p3065
S'BADSHAHPUR'
p3066
sS'BSB'
p3067
S'VARANASI JN'
p3068
sS'BSC'
p3069
S'BULANDSHAHR'
p3070
sS'VINH'
p3071
S'VINHERE'
p3072
sS'AUB'
p3073
S'ALUABARI ROAD'
p3074
sS'CTHR'
p3075
S'CHITAHRA'
p3076
sS'KNDP'
p3077
S'KHANDIP'
p3078
sS'AUS'
p3079
S'ANUPSHAHR'
p3080
sS'JRWN'
p3081
S'JIRWAN'
p3082
sS'KWV'
p3083
S'KURDUVADI'
p3084
sS'KNDI'
p3085
S'KANDRORI'
p3086
sS'LAUL'
p3087
S'LAUL'
p3088
sS'KDKN'
p3089
S'KENDUKANA'
p3090
sS'RID'
p3091
S'RIDHORE'
p3092
sS'KTF'
p3093
S'KOT FATTEH'
p3094
sS'PUL'
p3095
S'RAMPURA PHUL'
p3096
sS'SBS'
p3097
S'SANGRANA SAHIB'
p3098
sS'PUN'
p3099
S'PUNDI'
p3100
sS'PUO'
p3101
S'PIR UMROD'
p3102
sS'MMY'
p3103
S'MARWAR MATHANYA'
p3104
sS'SBW'
p3105
S'SBEWBABUDIH'
p3106
sS'SBT'
p3107
S'SABARMATI JN'
p3108
sS'MMZ'
p3109
S'MANDAMARI'
p3110
sS'PUD'
p3111
S'PHANDA'
p3112
sS'PUE'
p3113
S'PALARI'
p3114
sS'STBJ'
p3115
S'SITABINJ'
p3116
sS'MMV'
p3117
S'MAHALI MARUP'
p3118
sS'SGZ'
p3119
S'SHAMGARH'
p3120
sS'JJR'
p3121
S'JEJURI'
p3122
sS'MMS'
p3123
S'MANDASA ROAD'
p3124
sS'JJP'
p3125
S'JHANJHARPUR'
p3126
sS'MMM'
p3127
S'MANDAPAM'
p3128
sS'SBC'
p3129
S'BANGALORE CY JN'
p3130
sS'JHA'
p3131
S'JAKHAURA'
p3132
sS'KZT'
p3133
S'KULITTHURAI'
p3134
sS'JJK'
p3135
S'JHINJHAK'
p3136
sS'MMH'
p3137
S'MAHADANAPURAM'
p3138
sS'MMK'
p3139
S'MADURANTAKAM'
p3140
sS'SBE'
p3141
S'SORBHOG JN'
p3142
sS'JJG'
p3143
S'JIAGANJ'
p3144
sS'MMD'
p3145
S'MAHESHMUNDA'
p3146
sS'PUV'
p3147
S'KHUDIRAM B PUSA'
p3148
sS'SBI'
p3149
S'SABARMATI JN'
p3150
sS'MMA'
p3151
S'MUHAMMADABAD'
p3152
sS'SBO'
p3153
S'SABAUR'
p3154
sS'SBL'
p3155
S'SABALGARH'
p3156
sS'MMB'
p3157
S'MAHMUDABAD AVDH'
p3158
sS'BAV'
p3159
S'BARUVA'
p3160
sS'BAW'
p3161
S'CHIK BANAVAR'
p3162
sS'BAT'
p3163
S'BATALA JN'
p3164
sS'BAU'
p3165
S'BURHANPUR'
p3166
sS'BAR'
p3167
S'BAR'
p3168
sS'KOL'
p3169
S'KOLAD'
p3170
sS'BAP'
p3171
S'BELAPUR'
p3172
sS'ERS'
p3173
S'ERNAKULAM JN'
p3174
sS'KOA'
p3175
S'KARONDA'
p3176
sS'SHNX'
p3177
S'SHEO SINGH PURA'
p3178
sS'BAZ'
p3179
S'BARAN'
p3180
sS'KNL'
p3181
S'KALANWALI'
p3182
sS'BAY'
p3183
S'BELLARY JN'
p3184
sS'BAF'
p3185
S'BAP'
p3186
sS'KOX'
p3187
S'KACHUJOR'
p3188
sS'BAE'
p3189
S'BALIAKHERI'
p3190
sS'BAB'
p3191
S'BABINA'
p3192
sS'WADI'
p3193
S'WADI'
p3194
sS'ERL'
p3195
S'ERANIEL'
p3196
sS'KOP'
p3197
S'C SHAHUMHARAJ T'
p3198
sS'BAL'
p3199
S'BUDALUR'
p3200
sS'BAM'
p3201
S'BRAHMAPUR'
p3202
sS'KOU'
p3203
S'KODURU'
p3204
sS'BAK'
p3205
S'BHAN KARI'
p3206
sS'BAH'
p3207
S'BHABHAR'
p3208
sS'BAI'
p3209
S'BASSI'
p3210
sS'AVL'
p3211
S'AMRITVEL'
p3212
sS'UKD'
p3213
S'ULINDAKONDA'
p3214
sS'THY'
p3215
S'THADI'
p3216
sS'VPR'
p3217
S'VISAPUR'
p3218
sS'TKN'
p3219
S'TANKUPPA'
p3220
sS'TRVL'
p3221
S'TIRUVALLA'
p3222
sS'BJRI'
p3223
S'BIJURI'
p3224
sS'TFGN'
p3225
S'TUFANGANJ'
p3226
sS'LLGM'
p3227
S'LELIGUMA'
p3228
sS'SZK'
p3229
S'SUR KHAND KA KH'
p3230
sS'HAA'
p3231
S'HARWADA'
p3232
sS'VPL'
p3233
S'VENKATAMPALLE'
p3234
sS'VPO'
p3235
S'BHUPIA MAU'
p3236
sS'CPDR'
p3237
S'CHHIPADOHAR'
p3238
sS'KND'
p3239
S'KANDRA'
p3240
sS'JSME'
p3241
S'JASIDIH JN'
p3242
sS'STD'
p3243
S'SATROD'
p3244
sS'KNE'
p3245
S'KISHANGANJ'
p3246
sS'STA'
p3247
S'SATNA'
p3248
sS'STB'
p3249
S'SHANTIPUR'
p3250
sS'PGG'
p3251
S'PENGANGA'
p3252
sS'MGKM'
p3253
S'MUNGAIAKAMI'
p3254
sS'HAD'
p3255
S'HARIPPAD'
p3256
sS'STN'
p3257
S'SITARAMPUR'
p3258
sS'SRDR'
p3259
S'SARDARSHAHR'
p3260
sS'AMPR'
p3261
S'AMARPURA RATHAN'
p3262
sS'STW'
p3263
S'SAHATWAR'
p3264
sS'STP'
p3265
S'SITAPUR'
p3266
sS'GANG'
p3267
S'GANGAGANJ'
p3268
sS'STR'
p3269
S'SATARA'
p3270
sS'URK'
p3271
S'URKURA'
p3272
sS'KVNJ'
p3273
S'KAPADVANJ'
p3274
sS'GANL'
p3275
S'GHANAULI'
p3276
sS'TKMY'
p3277
S'TAKLIMIYA'
p3278
sS'UM'
p3279
S'UMARDASHI'
p3280
sS'NKP'
p3281
S'NIRAKARPUR'
p3282
sS'BTRA'
p3283
S'BANTHRA'
p3284
sS'NCR'
p3285
S'NAGORE'
p3286
sS'KDNL'
p3287
S'KADAYANALLUR'
p3288
sS'NCU'
p3289
S'NALLACHERUVU'
p3290
sS'VDE'
p3291
S'VEDAYAPALEM'
p3292
sS'QLN'
p3293
S'KOLLAM JN'
p3294
sS'NCJ'
p3295
S'NAGERCOIL JN'
p3296
sS'QLM'
p3297
S'KULEM'
p3298
sS'SLNA'
p3299
S'SALAUNA'
p3300
sS'NCA'
p3301
S'NIZCHATIA'
p3302
sS'NCB'
p3303
S'NEW COOCH BEHAR'
p3304
sS'MWH'
p3305
S'MALWAN'
p3306
sS'LM'
p3307
S'LIMBDI'
p3308
sS'GPZ'
p3309
S'GOHPUR'
p3310
sS'NZD'
p3311
S'NUZVID'
p3312
sS'BXLL'
p3313
S'BILLI'
p3314
sS'DNDI'
p3315
S'DHONDI'
p3316
sS'KLYT'
p3317
S'KOLAYAT'
p3318
sS'NRPA'
p3319
S'NARAYNPUR ANANT'
p3320
sS'UKN'
p3321
S'UKLANA'
p3322
sS'VKA'
p3323
S'VERKA JN'
p3324
sS'NEM'
p3325
S'NEMEM'
p3326
sS'TISI'
p3327
S'TISI'
p3328
sS'ROZA'
p3329
S'ROZA JN'
p3330
sS'KNW'
p3331
S'KHANDWA'
p3332
sS'SCL'
p3333
S'SILCHAR'
p3334
sS'PGI'
p3335
S'PARPANANGADI'
p3336
sS'CLVR'
p3337
S'CHILUVUR'
p3338
sS'ZPI'
p3339
S'ZAMPINI'
p3340
sS'RT'
p3341
S'ROHAT'
p3342
sS'RU'
p3343
S'RENIGUNTA JN'
p3344
sS'RV'
p3345
S'RAVER'
p3346
sS'RR'
p3347
S'RICHHA ROAD'
p3348
sS'MNDH'
p3349
S'MANDIR HASAUD'
p3350
sS'HAT'
p3351
S'HATHURAN'
p3352
sS'KTKR'
p3353
S'KUMTHA KHURD'
p3354
sS'MIL'
p3355
S'MILAK'
p3356
sS'KTKH'
p3357
S'KOTLAKHERI'
p3358
sS'KUW'
p3359
S'KANWAR'
p3360
sS'RG'
p3361
S'RAJGHAT NARORA'
p3362
sS'KTKL'
p3363
S'KOTLI KALAN'
p3364
sS'KNP'
p3365
S'KHANAPUR'
p3366
sS'KUV'
p3367
S'KUNDARA'
p3368
sS'KTKA'
p3369
S'KOTAKADRA'
p3370
sS'WTJ'
p3371
S'JAM WANTHALI'
p3372
sS'KUU'
p3373
S'KUHURI'
p3374
sS'SZM'
p3375
S'SUBZI MANDI'
p3376
sS'RK'
p3377
S'ROORKEE'
p3378
sS'TPG'
p3379
S'TIPLING'
p3380
sS'TPF'
p3381
S'TARAPITH ROAD'
p3382
sS'TPE'
p3383
S'TIRUCHRPLI PLKI'
p3384
sS'KUT'
p3385
S'KANAUTA'
p3386
sS'KOLR'
p3387
S'KOLNUR'
p3388
sS'AVRD'
p3389
S'ARAVALI ROAD'
p3390
sS'PAP'
p3391
S'PITHAPURAM'
p3392
sS'HRT'
p3393
S'HARNAUT'
p3394
sS'HRW'
p3395
S'HARRAWALA'
p3396
sS'DKBJ'
p3397
S'DAHAR KA BALAJI'
p3398
sS'TPK'
p3399
S'TIPKAI'
p3400
sS'TPJ'
p3401
S'TIRUCHCHIRAPALI'
p3402
sS'HRS'
p3403
S'HATHRAS JN'
p3404
sS'HRR'
p3405
S'HARIHAR'
p3406
sS'HRM'
p3407
S'HADMADIYA'
p3408
sS'TPU'
p3409
S'TANAKPUR'
p3410
sS'HRN'
p3411
S'HARAUNI'
p3412
sS'HRI'
p3413
S'HARDOI'
p3414
sS'HRH'
p3415
S'HARTHALA'
p3416
sS'TPQ'
p3417
S'TOPOKAL'
p3418
sS'BIH'
p3419
S'BAIRAGARH'
p3420
sS'HRG'
p3421
S'HIRDAGARH'
p3422
sS'KUP'
p3423
S'KUP'
p3424
sS'TPZ'
p3425
S'TAPRI'
p3426
sS'MGO'
p3427
S'MAHISGAON'
p3428
sS'HRB'
p3429
S'HARRI'
p3430
sS'KAG'
p3431
S'KODAGANUR'
p3432
sS'KAD'
p3433
S'KHANDALA'
p3434
sS'KAJ'
p3435
S'KALIYANGANJ'
p3436
sS'KAI'
p3437
S'KAIRLA'
p3438
sS'KAH'
p3439
S'KALHAR'
p3440
sS'TPH'
p3441
S'TINPAHAR JN'
p3442
sS'KAN'
p3443
S'KHANA JN'
p3444
sS'KAL'
p3445
S'KALLAL'
p3446
sS'KAR'
p3447
S'KARNA'
p3448
sS'KAQ'
p3449
S'KOLANUKONDA'
p3450
sS'KAP'
p3451
S'KALIANPUR'
p3452
sS'NIRA'
p3453
S'NIRA'
p3454
sS'KAV'
p3455
S'KALAMNA'
p3456
sS'BUPH'
p3457
S'BABUPETH'
p3458
sS'RHA'
p3459
S'RANAGHAT JN'
p3460
sS'MKRH'
p3461
S'MALLICKPUR HAT'
p3462
sS'RHE'
p3463
S'RAKHA MINES'
p3464
sS'SYI'
p3465
S'SINGARENI COLRS'
p3466
sS'RHG'
p3467
S'RAJGARH'
p3468
sS'TRTR'
p3469
S'TRIUPUNITTURA'
p3470
sS'KIP'
p3471
S'KHALILPUR'
p3472
sS'CHTI'
p3473
S'CHANETI'
p3474
sS'UHP'
p3475
S'UDHAMPUR'
p3476
sS'WFD'
p3477
S'WHITEFIELD'
p3478
sS'HRSN'
p3479
S'HARISINGA'
p3480
sS'KOK'
p3481
S'KORUKKUPET JN'
p3482
sS'CHTS'
p3483
S'COCHIN HRBR TMS'
p3484
sS'DINR'
p3485
S'DIVINE NAGAR'
p3486
sS'NEW'
p3487
S'NIVARI'
p3488
sS'CHTX'
p3489
S'KOCHI'
p3490
sS'KIT'
p3491
S'KHALLIKOT'
p3492
sS'VML'
p3493
S'VEMULAPADU'
p3494
sS'MTDM'
p3495
S'METUR DAM'
p3496
sS'RTG'
p3497
S'RANGTONG'
p3498
sS'PLNI'
p3499
S'PALANI'
p3500
sS'ALNI'
p3501
S'ALNIYA'
p3502
sS'RTM'
p3503
S'RATLAM JN'
p3504
sS'DMNJ'
p3505
S'DAMANJODI'
p3506
sS'SNSL'
p3507
S'SONSHELU'
p3508
sS'RTI'
p3509
S'RAOTI'
p3510
sS'RTK'
p3511
S'RAMTEK'
p3512
sS'SNSI'
p3513
S'SAINAGAR SHIRDI'
p3514
sS'PUK'
p3515
S'PUDUKAD'
p3516
sS'MADR'
p3517
S'MADURE'
p3518
sS'KMZ'
p3519
S'KATNI MURWARA'
p3520
sS'NKW'
p3521
S'NILAKANTHESWAR'
p3522
sS'UGR'
p3523
S'UGAR KHURD'
p3524
sS'ANND'
p3525
S'ANAND JN'
p3526
sS'ENB'
p3527
S'ELLENABAD'
p3528
sS'SHRD'
p3529
S'SAIJ SERTHA RD'
p3530
sS'UKH'
p3531
S'UKHALI'
p3532
sS'UDZ'
p3533
S'UDAIPUR CITY'
p3534
sS'G'
p3535
S'GONDIA JN'
p3536
sS'SALI'
p3537
S'SALI'
p3538
sS'CNPA'
p3539
S'CHANNARAYAPATNA'
p3540
sS'WND'
p3541
S'WAN ROAD'
p3542
sS'PGK'
p3543
S'PILI BANGAN'
p3544
sS'KRCD'
p3545
S'KHARWA CHANDA'
p3546
sS'KIUL'
p3547
S'KIUL JN'
p3548
sS'NIR'
p3549
S'NAINPUR JN'
p3550
sS'NBX'
p3551
S'NIZBARGANJ'
p3552
sS'NDPR'
p3553
S'NANDAPUR'
p3554
sS'CNPR'
p3555
S'CHAINPUR'
p3556
sS'NIP'
p3557
S'NIZAMPUR'
p3558
sS'BRWD'
p3559
S'BARWADIH JN'
p3560
sS'MUGR'
p3561
S'MANUGURU'
p3562
sS'BIJR'
p3563
S'BIJOOR'
p3564
sS'BWRA'
p3565
S'BHARATWADA'
p3566
sS'NIV'
p3567
S'NIVASAR'
p3568
sS'ROHA'
p3569
S'ROHA'
p3570
sS'TUNI'
p3571
S'TUNI'
p3572
sS'MHU'
p3573
S'MANHERU'
p3574
sS'TP'
p3575
S'TIRCHRPALI FORT'
p3576
sS'OYR'
p3577
S'WARIA'
p3578
sS'ANPR'
p3579
S'ANPARA'
p3580
sS'VQD'
p3581
S'VIRAMDAD'
p3582
sS'CLDR'
p3583
S'CHILIKIDARA'
p3584
sS'SDB'
p3585
S'SHAHABAD'
p3586
sS'SRRG'
p3587
S'SURER'
p3588
sS'DNWH'
p3589
S'DANIYAWAN BZR H'
p3590
sS'CLDY'
p3591
S'CHANDLODIYA'
p3592
sS'MRA'
p3593
S'MORENA'
p3594
sS'RGP'
p3595
S'RAGHUNATHPALLI'
p3596
sS'ATE'
p3597
S'ATARRA'
p3598
sS'ATB'
p3599
S'ALATTAMBADI'
p3600
sS'ATC'
p3601
S'ARTS COLLEGE'
p3602
sS'ATL'
p3603
S'ATHMAL GOLA'
p3604
sS'PPI'
p3605
S'PIPARIYA'
p3606
sS'UREN'
p3607
S'UREN'
p3608
sS'ATH'
p3609
S'ANTAH'
p3610
sS'BKI'
p3611
S'BANDIKUI JN'
p3612
sS'DDCE'
p3613
S'DUNDI'
p3614
sS'ATT'
p3615
S'ATARI'
p3616
sS'ATU'
p3617
S'ATTUR'
p3618
sS'ATR'
p3619
S'ATTAR'
p3620
sS'ATS'
p3621
S'ATTABIRA'
p3622
sS'ATP'
p3623
S'ANANTAPUR'
p3624
sS'ATQ'
p3625
S'ARANTANGI'
p3626
sS'PTD'
p3627
S'PETLAD JN'
p3628
sS'ISA'
p3629
S'ISARDA'
p3630
sS'JKPR'
p3631
S'JAKHAPURA'
p3632
sS'MID'
p3633
S'MADHI'
p3634
sS'RGU'
p3635
S'RAGAUL'
p3636
sS'PVP'
p3637
S'PARVATIPURAM'
p3638
sS'SEU'
p3639
S'SENDRA'
p3640
sS'PVR'
p3641
S'PANDHARPUR'
p3642
sS'PVU'
p3643
S'PARAVUR'
p3644
sS'SER'
p3645
S'SAMAYANALLUR'
p3646
sS'JKZ'
p3647
S'JITAKHERI'
p3648
sS'RMN'
p3649
S'RAMAN'
p3650
sS'MCPE'
p3651
S'MARWAR CHAPRI'
p3652
sS'KLY'
p3653
S'KELAVLI'
p3654
sS'PVZ'
p3655
S'PARVEZPUR'
p3656
sS'SEY'
p3657
S'SEONI'
p3658
sS'SEG'
p3659
S'SHEGAON'
p3660
sS'JKM'
p3661
S'JANKAMPET JN'
p3662
sS'JKN'
p3663
S'JAKHANIAN'
p3664
sS'JKO'
p3665
S'JAKKALACHERUVU'
p3666
sS'JKH'
p3667
S'JAHANIKHERA'
p3668
sS'KUMB'
p3669
S'KUMARBAGH'
p3670
sS'PVI'
p3671
S'PERAVURANI'
p3672
sS'JKE'
p3673
S'JUKEHI'
p3674
sS'SEM'
p3675
S'SERAM'
p3676
sS'SASN'
p3677
S'SAHIBZADA ASNGR'
p3678
sS'JKA'
p3679
S'JAKHVADA'
p3680
sS'JKB'
p3681
S'JAKHALABANDHA'
p3682
sS'HTGR'
p3683
S'HATHIGADH'
p3684
sS'CLN'
p3685
S'KOLLIDAM'
p3686
sS'CLO'
p3687
S'CHILO'
p3688
sS'CLI'
p3689
S'CHALGERI'
p3690
sS'CLJ'
p3691
S'COLONELGANJ'
p3692
sS'PDX'
p3693
S'PAYRADANGA'
p3694
sS'CLD'
p3695
S'CHALSA JN'
p3696
sS'CLE'
p3697
S'CHINTALPALLI'
p3698
sS'CLF'
p3699
S'CHHULHA'
p3700
sS'CLG'
p3701
S'KAHALGAON'
p3702
sS'CLA'
p3703
S'KURLA JN'
p3704
sS'PDQ'
p3705
S'PADLA'
p3706
sS'CLC'
p3707
S'CHALALA'
p3708
sS'NERI'
p3709
S'NERI'
p3710
sS'IMR'
p3711
S'IBRAHIMPUR'
p3712
sS'CLX'
p3713
S'CHIRALA'
p3714
sS'PDJ'
p3715
S'PHIDING'
p3716
sS'VJPJ'
p3717
S'VIJIYPUR JAMMU'
p3718
sS'PDH'
p3719
S'PADADHARI'
p3720
sS'CLT'
p3721
S'KOZHIKODE'
p3722
sS'CLU'
p3723
S'CHILAKALAPUDI'
p3724
sS'PDE'
p3725
S'PINDRAI'
p3726
sS'PDD'
p3727
S'PADUBIDRI'
p3728
sS'PRH'
p3729
S'POWERPET'
p3730
sS'CLR'
p3731
S'CASTLE ROCK'
p3732
sS'SKPI'
p3733
S'SIKARPAI'
p3734
sS'RHMA'
p3735
S'RAHAMA'
p3736
sS'BRGT'
p3737
S'BHERAGHAT'
p3738
sS'BRGW'
p3739
S'BARGAWAN'
p3740
sS'SCA'
p3741
S'SALCHAPRA'
p3742
sS'THMR'
p3743
S'THATHANA MITHRI'
p3744
sS'TET'
p3745
S'TETULMARI'
p3746
sS'PNQ'
p3747
S'PUNKUNNAM'
p3748
sS'KAWR'
p3749
S'KARWAR'
p3750
sS'BRGA'
p3751
S'BARGARH ROAD'
p3752
sS'KAWT'
p3753
S'KANWAT'
p3754
sS'PNP'
p3755
S'PANIPAT JN'
p3756
sS'BRGM'
p3757
S'BARAIGRAM JN'
p3758
sS'BRGL'
p3759
S'BURGULA HALT'
p3760
sS'NBD'
p3761
S'NAJIBABAD JN'
p3762
sS'PAD'
p3763
S'PARDI'
p3764
sS'BPA'
p3765
S'BELAMPALLI'
p3766
sS'DO'
p3767
S'DAUSA'
p3768
sS'BPC'
p3769
S'BERHAMPORE CRT'
p3770
sS'BPB'
p3771
S'BADARPUR JN'
p3772
sS'DJ'
p3773
S'DARJEELING'
p3774
sS'BPD'
p3775
S'BAHADURPUR'
p3776
sS'BPG'
p3777
S'BADURPUR GHAT'
p3778
sS'BPF'
p3779
S'BANAPURA'
p3780
sS'SWA'
p3781
S'SAHJANWA'
p3782
sS'DG'
p3783
S'DINDIGUL JN'
p3784
sS'BPK'
p3785
S'BHUGAON'
p3786
sS'DE'
p3787
S'DELHI MG'
p3788
sS'DB'
p3789
S'DABHOI JN'
p3790
sS'BPL'
p3791
S'BHOPAL JN'
p3792
sS'BPO'
p3793
S'BARIPADA'
p3794
sS'SWF'
p3795
S'SATHIN ROAD'
p3796
sS'BPQ'
p3797
S'BALHARSHAH'
p3798
sS'BPP'
p3799
S'BAPATLA'
p3800
sS'BPS'
p3801
S'BANPAS'
p3802
sS'BPR'
p3803
S'BHOJIPURA JN'
p3804
sS'AUBR'
p3805
S'ANUGRAHA N ROAD'
p3806
sS'DY'
p3807
S'DUMARIYA'
p3808
sS'BPY'
p3809
S'BADAMPUDI'
p3810
sS'BBDE'
p3811
S'BABARPUR'
p3812
sS'SWS'
p3813
S'SUWANSA'
p3814
sS'BPZ'
p3815
S'BAZPUR'
p3816
sS'DR'
p3817
S'DADAR'
p3818
sS'DS'
p3819
S'DASNA'
p3820
sS'SWV'
p3821
S'SAWANTWADI ROAD'
p3822
sS'BOTI'
p3823
S'BAORI THIKRIA'
p3824
sS'PNI'
p3825
S'PURAINI'
p3826
sS'BDHL'
p3827
S'BADHAL'
p3828
sS'TGQ'
p3829
S'TENGANMADA'
p3830
sS'GMM'
p3831
S'GUMMAN'
p3832
sS'TGT'
p3833
S'TINAI GHAT'
p3834
sS'OGL'
p3835
S'ONGOLE'
p3836
sS'NANA'
p3837
S'NANA'
p3838
sS'GYN'
p3839
S'GYANPUR ROAD'
p3840
sS'GYM'
p3841
S'GUDIYATTAM'
p3842
sS'MDPD'
p3843
S'MANDAPADU'
p3844
sS'MDPB'
p3845
S'MADHOPUR PUNJAB'
p3846
sS'MAL'
p3847
S'MAL JN'
p3848
sS'KDMR'
p3849
S'KODIYAR MANDIR'
p3850
sS'NMKL'
p3851
S'NAMAKKAL'
p3852
sS'PNJ'
p3853
S'PADRIGANJ'
p3854
sS'BDHY'
p3855
S'BUDHI'
p3856
sS'BTSR'
p3857
S'BHUTESHWAR'
p3858
sS'BDHT'
p3859
S'BARDI HALT'
p3860
sS'NANR'
p3861
S'NARANPUR'
p3862
sS'TGN'
p3863
S'TALEGAON'
p3864
sS'MDPR'
p3865
S'MODPUR'
p3866
sS'TGL'
p3867
S'TUGGALI'
p3868
sS'NMKA'
p3869
S'NAMKHANA'
p3870
sS'DHO'
p3871
S'DHAULPUR'
p3872
sS'DHN'
p3873
S'DHANBAD JN'
p3874
sS'KYN'
p3875
S'KALYAN JN'
p3876
sS'SJQ'
p3877
S'SURAJPUR ROAD'
p3878
sS'GOI'
p3879
S'GEVRAI'
p3880
sS'DHJ'
p3881
S'DHINOJ'
p3882
sS'DHI'
p3883
S'DHULE'
p3884
sS'AJP'
p3885
S'AJJAMPUR'
p3886
sS'GOD'
p3887
S'GIDARPINDI'
p3888
sS'LKMN'
p3889
S'LOKMANYA NAGAR'
p3890
sS'DHD'
p3891
S'DAHOD'
p3892
sS'CMDP'
p3893
S'CHIMIDIPALLI'
p3894
sS'AJU'
p3895
S'ARJUNI'
p3896
sS'DHA'
p3897
S'DHEENA'
p3898
sS'MLM'
p3899
S'MALTHAN'
p3900
sS'AJH'
p3901
S'AJHAI'
p3902
sS'AJI'
p3903
S'ANJHI SHAHABAD'
p3904
sS'AJJ'
p3905
S'ARAKKONAM'
p3906
sS'AJK'
p3907
S'AJAKOLLU'
p3908
sS'GOY'
p3909
S'GOVINDPURI'
p3910
sS'AJN'
p3911
S'AJNOD'
p3912
sS'MLU'
p3913
S'MALUGUR'
p3914
sS'DHW'
p3915
S'DHARIWAL'
p3916
sS'MDVR'
p3917
S'MADHAVNAGAR'
p3918
sS'DHU'
p3919
S'DHUBULIA'
p3920
sS'DHT'
p3921
S'DHAMARA GHAT'
p3922
sS'DHS'
p3923
S'DHAVALAS'
p3924
sS'AJE'
p3925
S'ANJAR'
p3926
sS'DHP'
p3927
S'DICHPALLI'
p3928
sS'NRK'
p3929
S'NARAIKKINAR'
p3930
sS'KUTL'
p3931
S'KUWANTHAL'
p3932
sS'NRI'
p3933
S'\x03\x01RAINA'
p3934
sS'OML'
p3935
S'OMALUR'
p3936
sS'GTLM'
p3937
S'GOTLAM'
p3938
sS'MCLA'
p3939
S'MACHERLA'
p3940
sS'NRM'
p3941
S'NURMAHAL'
p3942
sS'NRL'
p3943
S'NERAL'
p3944
sS'PNE'
p3945
S'PRANTIK'
p3946
sS'NRA'
p3947
S'NUNKHAR'
p3948
sS'NRG'
p3949
S'NERGUNDI'
p3950
sS'ADD'
p3951
S'ADAS ROAD'
p3952
sS'NRE'
p3953
S'NANDALUR'
p3954
sS'NRD'
p3955
S'NARODA'
p3956
sS'PTKC'
p3957
S'PATHANKOT CANTT'
p3958
sS'BHUJ'
p3959
S'BHUJ'
p3960
sS'DRTP'
p3961
S'DASHARATHPUR'
p3962
sS'NRS'
p3963
S'NAGARIA SADAT'
p3964
sS'KNLS'
p3965
S'KANALAS JN'
p3966
sS'NRP'
p3967
S'NARSIPATNAM RD'
p3968
sS'NRW'
p3969
S'NARWANA JN'
p3970
sS'CKHS'
p3971
S'CHIKHLI'
p3972
sS'NRT'
p3973
S'NARASARAOPET'
p3974
sS'RGPM'
p3975
S'RAGHAVAPURAM'
p3976
sS'SPZ'
p3977
S'SAMPLA'
p3978
sS'WC'
p3979
S'WADHWAN CITY'
p3980
sS'TQA'
p3981
S'TAKIA'
p3982
sS'MIH'
p3983
S'MIHRAWAN'
p3984
sS'PDPL'
p3985
S'PEDDAPALLI'
p3986
sS'ML'
p3987
S'MALHOUR'
p3988
sS'SAHI'
p3989
S'SATHI'
p3990
sS'MIK'
p3991
S'MANIKUL'
p3992
sS'PRV'
p3993
S'PUKKIRIVARI'
p3994
sS'SUDV'
p3995
S'SUMMADEVI'
p3996
sS'WR'
p3997
S'WARDHA JN'
p3998
sS'SJSM'
p3999
S'SALEMGARHMASANI'
p4000
sS'BARH'
p4001
S'BARH'
p4002
sS'BARL'
p4003
S'BARAL'
p4004
sS'GHQ'
p4005
S'GARHWA'
p4006
sS'HSA'
p4007
S'HASIMARA'
p4008
sS'HSD'
p4009
S'HOSDURGA ROAD'
p4010
sS'PC'
p4011
S'PACHORA JN'
p4012
sS'HSK'
p4013
S'HARISHANKER RD'
p4014
sS'HSI'
p4015
S'HARSAULI'
p4016
sS'BJMR'
p4017
S'BAIJNATH MANDIR'
p4018
sS'HSL'
p4019
S'HISVAHAL'
p4020
sS'HSR'
p4021
S'HISAR'
p4022
sS'GGJ'
p4023
S'GOSHAINGANJ'
p4024
sS'HSP'
p4025
S'HASANPARTHI RD'
p4026
sS'HSQ'
p4027
S'HUSAINPUR'
p4028
sS'GMU'
p4029
S'GAURIYAMAU'
p4030
sS'LDW'
p4031
S'LADHOWAL'
p4032
sS'HSX'
p4033
S'HOSHIARPUR'
p4034
sS'BJMD'
p4035
S'BARA JAMDA'
p4036
sS'PG'
p4037
S'PERGAON'
p4038
sS'KNN'
p4039
S'KHANNA'
p4040
sS'BNZ'
p4041
S'BADSHAHNAGAR'
p4042
sS'BNY'
p4043
S'BARHNI'
p4044
sS'PASG'
p4045
S'PANISAGAR'
p4046
sS'KNJ'
p4047
S'KRISHNGR CTY JN'
p4048
sS'PASA'
p4049
S'K\x01RASHSHALA'
p4050
sS'HAN'
p4051
S'HINDAUN CITY'
p4052
sS'MED'
p4053
S'MEDCHAL'
p4054
sS'BNS'
p4055
S'BANAS'
p4056
sS'BNR'
p4057
S'BHAGWANPUR'
p4058
sS'BNQ'
p4059
S'BANARHAT'
p4060
sS'BNP'
p4061
S'BHANAPUR'
p4062
sS'BNW'
p4063
S'BHIWANI'
p4064
sS'BNV'
p4065
S'BINNAGURI'
p4066
sS'BNU'
p4067
S'BANDAKPUR'
p4068
sS'BNT'
p4069
S'BHARTHANA'
p4070
sS'BNI'
p4071
S'BUDNI'
p4072
sS'BNH'
p4073
S'BHIMNATH'
p4074
sS'BNO'
p4075
S'BANAR'
p4076
sS'BNN'
p4077
S'BARNALA'
p4078
sS'BNM'
p4079
S'BARAGAON'
p4080
sS'BNL'
p4081
S'BEVINAHALU'
p4082
sS'BNC'
p4083
S'BANGALORE CANT'
p4084
sS'HAQ'
p4085
S'HASTAVARMU'
p4086
sS'BNA'
p4087
S'BANNI KOPPA'
p4088
sS'HAS'
p4089
S'HASSAN'
p4090
sS'BNG'
p4091
S'BARNAGAR'
p4092
sS'BNE'
p4093
S'BOHANI'
p4094
sS'MJBT'
p4095
S'MAJBAT'
p4096
sS'SYC'
p4097
S'SARAI CHANDI'
p4098
sS'ODG'
p4099
S'OBAIDULLA GANJ'
p4100
sS'SYA'
p4101
S'SALAIA'
p4102
sS'SMSR'
p4103
S'SAMASWARA'
p4104
sS'GDV'
p4105
S'GUDIVADA JN'
p4106
sS'SYK'
p4107
S'SAIDKHANPUR'
p4108
sS'MALB'
p4109
S'MALIYA MIYANA'
p4110
sS'GAYA'
p4111
S'GAYA JN'
p4112
sS'DKD'
p4113
S'DONAKONDA'
p4114
sS'SYM'
p4115
S'SAVALYAPURAM'
p4116
sS'SYL'
p4117
S'SALPURA'
p4118
sS'RPUR'
p4119
S'RATANPUR'
p4120
sS'JRO'
p4121
S'JIRON'
p4122
sS'SYQ'
p4123
S'SINHAN'
p4124
sS'GHG'
p4125
S'GHAGGHAR'
p4126
sS'SYW'
p4127
S'SINDURWA'
p4128
sS'LXA'
p4129
S'LAKSWA'
p4130
sS'SOGR'
p4131
S'SOGRA'
p4132
sS'PM'
p4133
S'PALAM'
p4134
sS'GDZ'
p4135
S'GUNDARDEHI'
p4136
sS'SAP'
p4137
S'SATTENAPALLE'
p4138
sS'DKC'
p4139
S'DEVARKADRE'
p4140
sS'MLSU'
p4141
S'MALSAILU'
p4142
sS'RGQ'
p4143
S'RAIGADH ROAD'
p4144
sS'RGS'
p4145
S'RINGAS JN'
p4146
sS'KRBP'
p4147
S'KHUDIRAM B PUSA'
p4148
sS'UNA'
p4149
S'UNA'
p4150
sS'BELA'
p4151
S'BELA'
p4152
sS'KTCR'
p4153
S'KOTHACHERUVU'
p4154
sS'MIQ'
p4155
S'MIRHAKUR'
p4156
sS'RGB'
p4157
S'RAMGANGA'
p4158
sS'ST'
p4159
S'SURAT'
p4160
sS'HBL'
p4161
S'HOMBAL'
p4162
sS'SZA'
p4163
S'SAROTRA ROAD'
p4164
sS'RGH'
p4165
S'RAMGARHWA'
p4166
sS'RGI'
p4167
S'RAMGIRI'
p4168
sS'KRBO'
p4169
S'KARABOH'
p4170
sS'RGL'
p4171
S'RENGALI'
p4172
sS'RGM'
p4173
S'RANGAPURAM'
p4174
sS'RGO'
p4175
S'ROTEGAON'
p4176
sS'KDHA'
p4177
S'KARCHHA'
p4178
sS'LDA'
p4179
S'LIDHORA KHURD'
p4180
sS'LDE'
p4181
S'LOKDHIKHERA'
p4182
sS'MET'
p4183
S'MALERKOTLA'
p4184
sS'PRKH'
p4185
S'PARKANHATTI'
p4186
sS'GHH'
p4187
S'GARHI HARSARU'
p4188
sS'SRUR'
p4189
S'SIRPUR TOWN'
p4190
sS'LDH'
p4191
S'LUDHIANA JN'
p4192
sS'BGHI'
p4193
S'BAGAHAI ROAD'
p4194
sS'BRM'
p4195
S'BARABAMBO'
p4196
sS'LDM'
p4197
S'LEDARMER'
p4198
sS'UNL'
p4199
S'UNHEL'
p4200
sS'BGHU'
p4201
S'BORRAGUHALLU'
p4202
sS'LDR'
p4203
S'LANDAURA'
p4204
sS'LDP'
p4205
S'LODIPUR BISHNPR'
p4206
sS'KMX'
p4207
S'KOMATIPALLI'
p4208
sS'TELO'
p4209
S'TELO'
p4210
sS'LDU'
p4211
S'LUNIDHAR'
p4212
sS'SPP'
p4213
S'SHAHPUR PATOREE'
p4214
sS'MEQ'
p4215
S'MALETHU KANAK'
p4216
sS'LDY'
p4217
S'LAKKITI'
p4218
sS'LDX'
p4219
S'LADDA'
p4220
sS'KXJ'
p4221
S'KARIMGANJ JN'
p4222
sS'JRR'
p4223
S'JUGAUR'
p4224
sS'VGL'
p4225
S'VAGHLI'
p4226
sS'VGN'
p4227
S'VANGAON'
p4228
sS'PTKP'
p4229
S'POTKAPALLI'
p4230
sS'ADVI'
p4231
S'ADAVALI'
p4232
sS'LJO'
p4233
S'LONGRANGAJAO'
p4234
sS'LJN'
p4235
S'LUCKNOW NE'
p4236
sS'VGE'
p4237
S'VALAPPADI G HLT'
p4238
sS'KRSL'
p4239
S'KRISHNASHILLA'
p4240
sS'KZE'
p4241
S'KANHANGAD'
p4242
sS'DNEA'
p4243
S'DANEA'
p4244
sS'PRG'
p4245
S'PRAYAG'
p4246
sS'MTY'
p4247
S'MULTAI'
p4248
sS'KZJ'
p4249
S'KAZIPET JN'
p4250
sS'SDLP'
p4251
S'SADULPUR JN'
p4252
sS'SMAE'
p4253
S'SAMUDRAGARH'
p4254
sS'KZK'
p4255
S'KAZHAKUTTAM'
p4256
sS'VGT'
p4257
S'UNGUTURU'
p4258
sS'TCL'
p4259
S'TYAKAL'
p4260
sS'LJR'
p4261
S'LANJIGARH ROAD'
p4262
sS'MIU'
p4263
S'MARIPAT'
p4264
sS'SBHN'
p4265
S'SHRI BHAVNATH'
p4266
sS'BRD'
p4267
S'BHANDARA ROAD'
p4268
sS'NDO'
p4269
S'NIDUBROLU'
p4270
sS'SMRR'
p4271
S'SUMRERI'
p4272
sS'KDGH'
p4273
S'KODIGEHALLI'
p4274
sS'SEI'
p4275
S'SHENDRI'
p4276
sS'SAL'
p4277
S'SALWA'
p4278
sS'RMPB'
p4279
S'RAMPUR BAZAR'
p4280
sS'MEX'
p4281
S'MUKERIAN'
p4282
sS'GULR'
p4283
S'GULER'
p4284
sS'DBLA'
p4285
S'DABLA'
p4286
sS'MOGA'
p4287
S'MOGA'
p4288
sS'JRX'
p4289
S'JURIAGAON'
p4290
sS'SBHR'
p4291
S'SUBRAHMANYA RD'
p4292
sS'RWL'
p4293
S'RAIWALA'
p4294
sS'JRG'
p4295
S'JUGPURA'
p4296
sS'SRGT'
p4297
S'SURENDRANAGAR G'
p4298
sS'COR'
p4299
S'CHITTAURGARH'
p4300
sS'COT'
p4301
S'CUDDALORE JN'
p4302
sS'TKHE'
p4303
S'TAKARKHEDE'
p4304
sS'NGNT'
p4305
S'NEW GUNTUR'
p4306
sS'SAG'
p4307
S'SANGRUR'
p4308
sS'PEP'
p4309
S'PHEPHNA JN'
p4310
sS'PER'
p4311
S'PERAMBUR'
p4312
sS'PES'
p4313
S'PHESAR'
p4314
sS'FSP'
p4315
S'FATEH SINGHPURA'
p4316
sS'HMRR'
p4317
S'HAMARAPUR'
p4318
sS'FSR'
p4319
S'FAQARSAR'
p4320
sS'COB'
p4321
S'COOCH BEHAR'
p4322
sS'COE'
p4323
S'CHITROD'
p4324
sS'COD'
p4325
S'CHHOTA GUDHA'
p4326
sS'COI'
p4327
S'CHEOKI'
p4328
sS'DAVM'
p4329
S'DHANUVACHAPURAM'
p4330
sS'PRJ'
p4331
S'PRANTIJ'
p4332
sS'COM'
p4333
S'CHOMUN SAMOD'
p4334
sS'BNAR'
p4335
S'BINAUR'
p4336
sS'COO'
p4337
S'CHHOTI ODAI'
p4338
sS'PEC'
p4339
S'PENCHARTHAL'
p4340
sS'ZBD'
p4341
S'ZAFARABAD JN'
p4342
sS'CASA'
p4343
S'CHHANSARA'
p4344
sS'LKBL'
p4345
S'LAKHABAWAL'
p4346
sS'PRT'
p4347
S'PANRUTI'
p4348
sS'SWO'
p4349
S'SONWARA'
p4350
sS'KDPR'
p4351
S'KUMEDPUR'
p4352
sS'KAPG'
p4353
S'KALUPARA GHAT'
p4354
sS'SNLR'
p4355
S'SANTALPUR'
p4356
sS'SPT'
p4357
S'SOMPETA'
p4358
sS'RURA'
p4359
S'RURA'
p4360
sS'NGTN'
p4361
S'NAGOTHANE'
p4362
sS'RUT'
p4363
S'RATNAL'
p4364
sS'URMA'
p4365
S'URMA'
p4366
sS'BMGA'
p4367
S'BHIMGARA'
p4368
sS'KDPA'
p4369
S'KHADAPA'
p4370
sS'BMGM'
p4371
S'BRAHMANAGUDEM'
p4372
sS'MR'
p4373
S'MARTUR'
p4374
sS'MCN'
p4375
S'MUKUNDARAYAPURM'
p4376
sS'KHPI'
p4377
S'KHOPOLI'
p4378
sS'SIKR'
p4379
S'SIKAR JN'
p4380
sS'PRR'
p4381
S'PURULIA JN'
p4382
sS'WEL'
p4383
S'WELLINGTON'
p4384
sS'WAB'
p4385
S'BALWA'
p4386
sS'UTA'
p4387
S'UMAR TALI'
p4388
sS'LKPE'
p4389
S'LEKHAPANI'
p4390
sS'SOA'
p4391
S'SANOSRA'
p4392
sS'SSA'
p4393
S'SIRSA'
p4394
sS'KRSA'
p4395
S'KHARSALIYA'
p4396
sS'SLGE'
p4397
S'SULERJAVALGE'
p4398
sS'PPM'
p4399
S'PHIRANGIPURAM'
p4400
sS'THP'
p4401
S'TAHERPUR'
p4402
sS'RUL'
p4403
S'RAULI'
p4404
sS'RUM'
p4405
S'RUPAMAU'
p4406
sS'RUB'
p4407
S'RASULABAD'
p4408
sS'PRY'
p4409
S'PARAIYA'
p4410
sS'KRTH'
p4411
S'KIRATGARH'
p4412
sS'RUG'
p4413
S'RAJLU GARHI'
p4414
sS'NIIJ'
p4415
S'NILAJE'
p4416
sS'BLMR'
p4417
S'BHALUKMARA'
p4418
sS'SNRR'
p4419
S'SANSARPUR'
p4420
sS'SAU'
p4421
S'NAND'
p4422
sS'BLMK'
p4423
S'BHALUMASKA'
p4424
sS'RUR'
p4425
S'RANPUR'
p4426
sS'JRC'
p4427
S'JALANDHAR CANT'
p4428
sS'OEA'
p4429
S'ODELA'
p4430
sS'NRKR'
p4431
S'NARKHER'
p4432
sS'ANMD'
p4433
S'ARANG MAHANADI'
p4434
sS'DIL'
p4435
S'DILAWARNAGAR'
p4436
sS'GNS'
p4437
S'GHONSOR'
p4438
sS'GNP'
p4439
S'GHANPUR'
p4440
sS'MKD'
p4441
S'MARKUNDI'
p4442
sS'DIH'
p4443
S'DHARUADIHI'
p4444
sS'GNW'
p4445
S'GANGIWARA'
p4446
sS'GNT'
p4447
S'GUNTUR JN'
p4448
sS'GNU'
p4449
S'GANAUR'
p4450
sS'MKO'
p4451
S'MARKONA'
p4452
sS'BRRG'
p4453
S'BIYAVRA RAJGARH'
p4454
sS'BTBR'
p4455
S'BUTI BORI'
p4456
sS'DIG'
p4457
S'DUGGIRALA'
p4458
sS'DIA'
p4459
S'DIDWANA'
p4460
sS'MKI'
p4461
S'BAPUDM MOTIHARI'
p4462
sS'JHN'
p4463
S'JAKHIM'
p4464
sS'VPT'
p4465
S'VIRUDUNAGAR JN'
p4466
sS'GNC'
p4467
S'GANDHINAGAR CAP'
p4468
sS'JHS'
p4469
S'JHANSI JN'
p4470
sS'GNA'
p4471
S'GONEANA B JAGTA'
p4472
sS'AII'
p4473
S'AJMER JN'
p4474
sS'GNG'
p4475
S'GAURIGANJ'
p4476
sS'GND'
p4477
S'GOVINDGARH MALK'
p4478
sS'MKP'
p4479
S'MANIKPUR JN'
p4480
sS'DIT'
p4481
S'DOHRIGHAT'
p4482
sS'GRRU'
p4483
S'GURARU'
p4484
sS'AIG'
p4485
S'ALGAWAN'
p4486
sS'DIW'
p4487
S'DHILWAN'
p4488
sS'AIA'
p4489
S'AJARAKA'
p4490
sS'DIQ'
p4491
S'DINAGAON'
p4492
sS'DIR'
p4493
S'DHANAPUR ORISSA'
p4494
sS'MKX'
p4495
S'MORAK'
p4496
sS'GTST'
p4497
S'GAUTAMSTHAN'
p4498
sS'NSL'
p4499
S'NAGARSOL'
p4500
sS'KKI'
p4501
S'KARKELI'
p4502
sS'THE'
p4503
S'THAWE JN'
p4504
sS'SAV'
p4505
S'SAVDA'
p4506
sS'NRYP'
p4507
S'NARAYANAPURAM'
p4508
sS'NSD'
p4509
S'NASIRABAD'
p4510
sS'PK'
p4511
S'PAKNI'
p4512
sS'MNSR'
p4513
S'MANAKSAR'
p4514
sS'VRI'
p4515
S'VRIDHACHALAM JN'
p4516
sS'NSX'
p4517
S'NARSIPURAM HALT'
p4518
sS'KASU'
p4519
S'KASU'
p4520
sS'JRA'
p4521
S'JARAIKELA'
p4522
sS'PVPT'
p4523
S'PARVATIPURAM TN'
p4524
sS'JAW'
p4525
S'JARWA'
p4526
sS'TCN'
p4527
S'TIRUCHENDUR'
p4528
sS'TKE'
p4529
S'TARIKERE JN'
p4530
sS'JAT'
p4531
S'JAMMU TAWI'
p4532
sS'SURL'
p4533
S'SURELI'
p4534
sS'RKSH'
p4535
S'RISHIKESH'
p4536
sS'PANP'
p4537
S'PANDAVAPURA'
p4538
sS'UTD'
p4539
S'UTARSANDA'
p4540
sS'IRP'
p4541
S'IRAVIPURAM'
p4542
sS'IP'
p4543
S'ICHHAPUR'
p4544
sS'NLY'
p4545
S'NALIYA'
p4546
sS'UTL'
p4547
S'UTARLAI'
p4548
sS'UTR'
p4549
S'UTRAHTIA'
p4550
sS'HJLI'
p4551
S'HUGRAJULI'
p4552
sS'PHR'
p4553
S'PHILLAUR JN'
p4554
sS'IB'
p4555
S'IB'
p4556
sS'VSG'
p4557
S'VASCO DA GAMA'
p4558
sS'NHR'
p4559
S'NOHAR'
p4560
sS'SDT'
p4561
S'SADAT'
p4562
sS'JAN'
p4563
S'JARANGDIH'
p4564
sS'SDV'
p4565
S'SOMIDEVIPALLE'
p4566
sS'BNSA'
p4567
S'BANBASA'
p4568
sS'PWS'
p4569
S'PHULWARI SHARIF'
p4570
sS'MRM'
p4571
S'MAMANDURU'
p4572
sS'DGHR'
p4573
S'DEOGHAR'
p4574
sS'SDD'
p4575
S'SINDHAWADAR'
p4576
sS'SDE'
p4577
S'SADISOPUR'
p4578
sS'SDF'
p4579
S'SUDSAR'
p4580
sS'SDG'
p4581
S'SAHADAI BUZURG'
p4582
sS'KUND'
p4583
S'KUND'
p4584
sS'SDL'
p4585
S'SHAHDOL'
p4586
sS'MRH'
p4587
S'MARMAGAO'
p4588
sS'PWL'
p4589
S'PALWAL'
p4590
sS'RNT'
p4591
S'RANTHAMBHORE'
p4592
sS'SDH'
p4593
S'SARADHNA'
p4594
sS'KAJG'
p4595
S'KARANJGAON'
p4596
sS'DGHA'
p4597
S'DIGHA FLAG STN'
p4598
sS'PLM'
p4599
S'PANELI MOTI'
p4600
sS'NAB'
p4601
S'NAGBHIR JN'
p4602
sS'BOY'
p4603
S'BHADOHI'
p4604
sS'BOZ'
p4605
S'BOLARUM BAZAR'
p4606
sS'HBN'
p4607
S'HAIBARGAON'
p4608
sS'KQW'
p4609
S'KHEDULI'
p4610
sS'GRRG'
p4611
S'GURLI RAMGARHWA'
p4612
sS'KQU'
p4613
S'KAMARKUNDU'
p4614
sS'HBJ'
p4615
S'HABIBGANJ'
p4616
sS'HBD'
p4617
S'HOSHANGABAD'
p4618
sS'BOR'
p4619
S'BOISAR'
p4620
sS'BOT'
p4621
S'BOROTI'
p4622
sS'SHLT'
p4623
S'SHALASHAH THANA'
p4624
sS'BOV'
p4625
S'BHATGAON'
p4626
sS'BOW'
p4627
S'BORAWAR'
p4628
sS'NAR'
p4629
S'NAR'
p4630
sS'BOI'
p4631
S'BAINCHI'
p4632
sS'BOJ'
p4633
S'BHOJO'
p4634
sS'MQL'
p4635
S'MIRKHAL'
p4636
sS'BOM'
p4637
S'BOMADRA'
p4638
sS'BON'
p4639
S'BHOnra'
p4640
sS'KQD'
p4641
S'KHAIRATABAD DCN'
p4642
sS'BSLE'
p4643
S'BATASPUR'
p4644
sS'HBW'
p4645
S'HABIBWALA'
p4646
sS'BOD'
p4647
S'BANGROD'
p4648
sS'BOE'
p4649
S'BARSOI JN'
p4650
sS'BOF'
p4651
S'BAROG'
p4652
sS'BOG'
p4653
S'BHAIRONGARH'
p4654
sS'SXB'
p4655
S'SAMBRE'
p4656
sS'MRG'
p4657
S'MARGHERITA'
p4658
sS'UMS'
p4659
S'UDRAMSAR'
p4660
sS'SAHL'
p4661
S'SAHELI'
p4662
sS'HRPG'
p4663
S'HARPALGANJ'
p4664
sS'SXK'
p4665
S'SHAJAHANPURCORT'
p4666
sS'TKG'
p4667
S'THAKURGANJ'
p4668
sS'QRS'
p4669
S'QUARRY SDG'
p4670
sS'PLMX'
p4671
S'PALAMPUR HMCHL'
p4672
sS'DEHR'
p4673
S'DEHU ROAD'
p4674
sS'SXP'
p4675
S'SANKOPARA'
p4676
sS'VVN'
p4677
S'VIKRAVANDI'
p4678
sS'MLMR'
p4679
S'MELMARUVATTUR'
p4680
sS'SXT'
p4681
S'SALEM TOWN'
p4682
sS'SF'
p4683
S'SETTIGUNTA'
p4684
sS'DVG'
p4685
S'DAVANGERE'
p4686
sS'RMJK'
p4687
S'RAM NAGAR J K'
p4688
sS'MRX'
p4689
S'MURUD'
p4690
sS'SVN'
p4691
S'SIVUNGAON'
p4692
sS'BQG'
p4693
S'BHAGWANGOLA'
p4694
sS'SVL'
p4695
S'SEVALIYA'
p4696
sS'BQE'
p4697
S'BAKANIAN BHAUNR'
p4698
sS'GOTN'
p4699
S'GOTAN'
p4700
sS'RKB'
p4701
S'RAIKA BAGH'
p4702
sS'MGME'
p4703
S'MCCLUSKIEGANJ'
p4704
sS'BQA'
p4705
S'BANKURA'
p4706
sS'BQN'
p4707
S'BAGRI NAGAR'
p4708
sS'SVG'
p4709
S'SAWALGI'
p4710
sS'SVD'
p4711
S'SARWARI'
p4712
sS'BQM'
p4713
S'BARELIPUR'
p4714
sS'YT'
p4715
S'YEVAT'
p4716
sS'BQK'
p4717
S'BANKURA'
p4718
sS'BQI'
p4719
S'BOMMIDI'
p4720
sS'BQU'
p4721
S'BHATTIPROLU'
p4722
sS'BQR'
p4723
S'BHILAINAGAR'
p4724
sS'JVN'
p4725
S'JORAWARNAGAR JN'
p4726
sS'BQP'
p4727
S'BIGHAPUR'
p4728
sS'BQQ'
p4729
S'BAKHLETA'
p4730
sS'SVV'
p4731
S'SRIVAIKUNTAM'
p4732
sS'DBI'
p4733
S'DABLI RATHAN'
p4734
sS'JVA'
p4735
S'JAVALE'
p4736
sS'TPY'
p4737
S'TADAKALPUDI'
p4738
sS'COA'
p4739
S'KAKINADA PORT'
p4740
sS'VNRD'
p4741
S'VANI ROAD'
p4742
sS'RKO'
p4743
S'RMKRSHNAPRM GTE'
p4744
sS'MNV'
p4745
S'MUNGAOLI'
p4746
sS'BOKR'
p4747
S'BHOKAR'
p4748
sS'PEM'
p4749
S'PERALAM JN'
p4750
sS'VVB'
p4751
S'VIVEKA VIHAR'
p4752
sS'KDLG'
p4753
S'KUNDALGARH'
p4754
sS'PEN'
p4755
S'PEN'
p4756
sS'BYPL'
p4757
S'BAIYYAPPANAHALI'
p4758
sS'DBA'
p4759
S'DABRA'
p4760
sS'BTPD'
p4761
S'BETHAMPURDI'
p4762
sS'SD'
p4763
S'SIDHAULI'
p4764
sS'CDSL'
p4765
S'CHANDRESAL'
p4766
sS'KDLP'
p4767
S'KANDLA PORT'
p4768
sS'KDLR'
p4769
S'KANDEL ROAD'
p4770
sS'LKN'
p4771
S'LAKHMINIA'
p4772
sS'LKO'
p4773
S'LUCKNOW NR'
p4774
sS'VDS'
p4775
S'VIDYASAGAR'
p4776
sS'SMBX'
p4777
S'SAMBA'
p4778
sS'VDV'
p4779
S'VADIYA DEVLI'
p4780
sS'BZJT'
p4781
S'BAZIDA JATAN'
p4782
sS'BURN'
p4783
S'BURNPUR'
p4784
sS'LKA'
p4785
S'LANKA'
p4786
sS'VDA'
p4787
S'VASAD JN'
p4788
sS'CHIB'
p4789
S'CHIRAI BG'
p4790
sS'FLK'
p4791
S'FALAKATA'
p4792
sS'GVI'
p4793
S'GARIVIDI'
p4794
sS'LKZ'
p4795
S'LAKADIYA'
p4796
sS'DBG'
p4797
S'DARBHANGA JN'
p4798
sS'VDG'
p4799
S'VADNAGAR'
p4800
sS'LKY'
p4801
S'LAKHMAPUR'
p4802
sS'PDGM'
p4803
S'PUDUNAGARAM'
p4804
sS'BWBN'
p4805
S'BEWAR BHOJAN'
p4806
sS'LKT'
p4807
S'HULKOTI'
p4808
sS'KLTR'
p4809
S'KALMITAR'
p4810
sS'LKR'
p4811
S'LUCKEESARAI JN'
p4812
sS'LKS'
p4813
S'LUNKARANSAR'
p4814
sS'LKQ'
p4815
S'LAUKAHA BAZAR'
p4816
sS'GUMA'
p4817
S'GUMA'
p4818
sS'SRGM'
p4819
S'SRIRANGAM'
p4820
sS'VZM'
p4821
S'VIZIANAGRAM JN'
p4822
sS'SHNG'
p4823
S'SHIVNAGAR'
p4824
sS'MMDA'
p4825
S'MUTHALAMADA'
p4826
sS'UMH'
p4827
S'UMRETH'
p4828
sS'GVB'
p4829
S'GUNERU BAMORI'
p4830
sS'GMO'
p4831
S'NSC BOSE J GOMO'
p4832
sS'MRF'
p4833
S'MARPALLI'
p4834
sS'SRGH'
p4835
S'SURAJGARH'
p4836
sS'KSG'
p4837
S'KISHANGARH'
p4838
sS'KSVM'
p4839
S'KESAVARAM'
p4840
sS'PARD'
p4841
S'PATHRAD'
p4842
sS'SBR'
p4843
S'SAMBHAR LAKE'
p4844
sS'JSKA'
p4845
S'JATAULA SAMPHKA'
p4846
sS'TRK'
p4847
S'TIRUKOILUR'
p4848
sS'TRL'
p4849
S'TIRUVALLUR'
p4850
sS'TRO'
p4851
S'TIRORA'
p4852
sS'GHNH'
p4853
S'GHANTIKHAL NDPR'
p4854
sS'TRA'
p4855
S'TANGRA'
p4856
sS'KLH'
p4857
S'KHEMLI'
p4858
sS'TRB'
p4859
S'TIRUVERUMBUR'
p4860
sS'HBLN'
p4861
S'HBL NAGAR'
p4862
sS'TRG'
p4863
S'TARIGHAT'
p4864
sS'GVG'
p4865
S'GOVINDGARH'
p4866
sS'NMGY'
p4867
S'NUMALIGARH'
p4868
sS'AO'
p4869
S'AONLA'
p4870
sS'SFG'
p4871
S'SUBEDARGANJ'
p4872
sS'GNNA'
p4873
S'GANGANI'
p4874
sS'BLRD'
p4875
S'BALA ROAD'
p4876
sS'DKLU'
p4877
S'DOIKALLU'
p4878
sS'TRR'
p4879
S'TARAORI'
p4880
sS'SNAR'
p4881
S'SRINAGAR'
p4882
sS'WRC'
p4883
S'W R S COLONY PH'
p4884
sS'KCD'
p4885
S'KURICHEDU'
p4886
sS'HTE'
p4887
S'HATIA'
p4888
sS'DBR'
p4889
S'DABHAURA'
p4890
sS'HTC'
p4891
S'HATHRAS CITY'
p4892
sS'KCC'
p4893
S'KRISHNA CANAL'
p4894
sS'BJNR'
p4895
S'BIJAINAGAR'
p4896
sS'KCO'
p4897
S'KACHHIA BRIDGE'
p4898
sS'HTL'
p4899
S'HATIKHALI'
p4900
sS'HTK'
p4901
S'HATKANAGALE'
p4902
sS'BHNE'
p4903
S'BHONE'
p4904
sS'KCJ'
p4905
S'KASIMPUR'
p4906
sS'RGD'
p4907
S'RAJGIR'
p4908
sS'SPC'
p4909
S'SITAPUR CITY'
p4910
sS'SRMR'
p4911
S'SRIRAMPURAM'
p4912
sS'KCV'
p4913
S'KRISHNA CH PURA'
p4914
sS'DBW'
p4915
S'DUBIA'
p4916
sS'TNA'
p4917
S'THANE'
p4918
sS'GMX'
p4919
S'GURMURA'
p4920
sS'BHNS'
p4921
S'BHANSI'
p4922
sS'HTZ'
p4923
S'HATHIDAH JN'
p4924
sS'KLQ'
p4925
S'KILIKOLLUR'
p4926
sS'KSU'
p4927
S'KUSHTAUR'
p4928
sS'OKHA'
p4929
S'OKHA'
p4930
sS'MKB'
p4931
S'MANKATHA'
p4932
sS'ABKP'
p4933
S'AMBIKAPUR'
p4934
sS'KSW'
p4935
S'KHERI SALWA'
p4936
sS'GVR'
p4937
S'GORESUAR'
p4938
sS'KSV'
p4939
S'KOSI KALAN'
p4940
sS'TNL'
p4941
S'TANGLA'
p4942
sS'ABKA'
p4943
S'AMBIKA KALNA'
p4944
sS'KSP'
p4945
S'KISHANPUR'
p4946
sS'NH'
p4947
S'NAIHATI JN'
p4948
sS'NI'
p4949
S'NAYDONGRI'
p4950
sS'KPRR'
p4951
S'KOTAPAR ROAD'
p4952
sS'NK'
p4953
S'NASIK ROAD'
p4954
sS'NM'
p4955
S'NAIMISHARANYA'
p4956
sS'NN'
p4957
S'NANDURA'
p4958
sS'NB'
p4959
S'NIMBHORA'
p4960
sS'DMLE'
p4961
S'DUMURDAHA'
p4962
sS'RRB'
p4963
S'BIRUR JN'
p4964
sS'KSC'
p4965
S'KASHI CHAK'
p4966
sS'QMRS'
p4967
S'KAYAMSAR'
p4968
sS'SAH'
p4969
S'SAPHALE'
p4970
sS'NBPH'
p4971
S'NEW BALARAMPUR'
p4972
sS'KPGM'
p4973
S'KARPURIGRAM'
p4974
sS'SEGM'
p4975
S'SEVAGRAM'
p4976
sS'MCRD'
p4977
S'MECHERI ROAD'
p4978
sS'NS'
p4979
S'NARASAPUR'
p4980
sS'RRS'
p4981
S'RAGHURAJ SINGH'
p4982
sS'NU'
p4983
S'NARSINGHPUR'
p4984
sS'NKDO'
p4985
S'NAKKANADODDI'
p4986
sS'MQN'
p4987
S'MANYAMKONDA'
p4988
sS'PUS'
p4989
S'PHUSRO'
p4990
sS'VRX'
p4991
S'VARAHI'
p4992
sS'RDP'
p4993
S'RADHIKAPUR'
p4994
sS'BCOB'
p4995
S'BHACHAU BG'
p4996
sS'ELM'
p4997
S'ELIMALA'
p4998
sS'YFP'
p4999
S'YUSUFPUR'
p5000
sS'J'
p5001
S'JALNA'
p5002
sS'RRME'
p5003
S'RANCHI ROAD'
p5004
sS'GJH'
p5005
S'GOLDINGANJ'
p5006
sS'KSX'
p5007
S'KOTSHILA'
p5008
sS'RDD'
p5009
S'RIKHABDEV ROAD'
p5010
sS'KJU'
p5011
S'KUNTIGHAT'
p5012
sS'AKOR'
p5013
S'AKALKOT ROAD'
p5014
sS'AKOT'
p5015
S'AKOT'
p5016
sS'KMDR'
p5017
S'KARIMUDDIN PUR'
p5018
sS'SMX'
p5019
S'SIMURALI'
p5020
sS'RDM'
p5021
S'RAMGUNDAM'
p5022
sS'RDL'
p5023
S'RUDAULI'
p5024
sS'ELP'
p5025
S'ACHALPUR'
p5026
sS'STKT'
p5027
S'SASTHANKOTTA'
p5028
sS'NGT'
p5029
S'NAGAPPATTINAM'
p5030
sS'TKYR'
p5031
S'TIKARIA'
p5032
sS'NBH'
p5033
S'NIMBAHERA'
p5034
sS'PRPT'
p5035
S'PRSHTAMPATNAM'
p5036
sS'SLRD'
p5037
S'SURLA ROAD'
p5038
sS'VSW'
p5039
S'VISAVADAR'
p5040
sS'BIDR'
p5041
S'BIDAR'
p5042
sS'KJZ'
p5043
S'KARONJI'
p5044
sS'SOAE'
p5045
S'SOMRA BAZAR'
p5046
sS'KSF'
p5047
S'KHALISPUR'
p5048
sS'FBG'
p5049
S'FORBESGANJ'
p5050
sS'SMLA'
p5051
S'SAMLAYA JN'
p5052
sS'SONI'
p5053
S'SONI'
p5054
sS'FBD'
p5055
S'FARRUKHABAD'
p5056
sS'NGP'
p5057
S'NAGPUR'
p5058
sS'MHOW'
p5059
S'MHOW'
p5060
sS'MKN'
p5061
S'MAKRANA JN'
p5062
sS'SBM'
p5063
S'SONBARSA KCHERI'
p5064
sS'USD'
p5065
S'UKAI SONGADH'
p5066
sS'HDA'
p5067
S'HIRNODA'
p5068
sS'NGS'
p5069
S'NAGANSUR'
p5070
sS'KSM'
p5071
S'KAMASAMUDRAM'
p5072
sS'ANVT'
p5073
S'ANAND VIHAR TRM'
p5074
sS'DMBR'
p5075
S'DUMRI BIHAR'
p5076
sS'MHPE'
p5077
S'MOHOPE'
p5078
sS'PTA'
p5079
S'PATIALA'
p5080
sS'AZR'
p5081
S'AZAMNAGAR ROAD'
p5082
sS'KVGM'
p5083
S'KOLVAGRAM'
p5084
sS'MKM'
p5085
S'MARIKUPPAM'
p5086
sS'IQB'
p5087
S'IQBALPUR'
p5088
sS'SNT'
p5089
S'SAINTHIA'
p5090
sS'JONR'
p5091
S'JEONARA PH'
p5092
sS'PHRH'
p5093
S'PANCH RUKHI'
p5094
sS'KSN'
p5095
S'KRISHNA'
p5096
sS'KSI'
p5097
S'KOSLI'
p5098
sS'SGS'
p5099
S'SHOGHI'
p5100
sS'SGR'
p5101
S'SANGMESHWAR'
p5102
sS'BNTL'
p5103
S'BANTAWALA'
p5104
sS'SGW'
p5105
S'SINGWAL'
p5106
sS'SGV'
p5107
S'SARAGCHNI'
p5108
sS'SRC'
p5109
S'SANTRAGACHI JN'
p5110
sS'KDT'
p5111
S'KHADARPETT'
p5112
sS'SGJ'
p5113
S'SAFDARGANJ'
p5114
sS'RSNR'
p5115
S'RAI SINGH NAGAR'
p5116
sS'SGO'
p5117
S'SAUGOR'
p5118
sS'RWJ'
p5119
S'RAWANIA DUNGAR'
p5120
sS'MKL'
p5121
S'MAKLIDRUG'
p5122
sS'SGD'
p5123
S'SONGADH'
p5124
sS'SGG'
p5125
S'SULTANGANJ'
p5126
sS'SGF'
p5127
S'SANGAT'
p5128
sS'CNT'
p5129
S'CONTAI ROAD'
p5130
sS'FZP'
p5131
S'FIROZPUR CITY'
p5132
sS'CNR'
p5133
S'CHANDAR'
p5134
sS'CNS'
p5135
S'CHUCHURA'
p5136
sS'ICL'
p5137
S'ICHAULI'
p5138
sS'TKKD'
p5139
S'TIKEKARWADI'
p5140
sS'HHD'
p5141
S'HUNSIHADGIL'
p5142
sS'TMQ'
p5143
S'TIRUMANGALAM'
p5144
sS'SZH'
p5145
S'SAONGA HALT'
p5146
sS'MRGA'
p5147
S'MIRYALAGUDA'
p5148
sS'CNF'
p5149
S'CHIANKI'
p5150
sS'NKX'
p5151
S'NAKTISEMRA'
p5152
sS'CND'
p5153
S'CHANDUR'
p5154
sS'CNE'
p5155
S'CHANDRANATHPUR'
p5156
sS'CNB'
p5157
S'KANPUR CENTRAL'
p5158
sS'CNC'
p5159
S'CHINCHLI'
p5160
sS'FPS'
p5161
S'FATEHPUR SKHWTI'
p5162
sS'CNA'
p5163
S'CHANDERIYA'
p5164
sS'CNN'
p5165
S'CHINTAMAN GANES'
p5166
sS'CNO'
p5167
S'CANCONA'
p5168
sS'CNL'
p5169
S'CHANDAWAL'
p5170
sS'CNK'
p5171
S'CHANDOK'
p5172
sS'CNH'
p5173
S'CHAUNRAH'
p5174
sS'CNI'
p5175
S'CHANDIL JN'
p5176
sS'HRNR'
p5177
S'HIRA NAGAR'
p5178
sS'MTHP'
p5179
S'MITHAPUR'
p5180
sS'NAC'
p5181
S'NAWA CITY'
p5182
sS'MRTL'
p5183
S'MIRTHAL'
p5184
sS'TMR'
p5185
S'TUMSAR ROAD'
p5186
sS'BUBR'
p5187
S'BHUTAKIA BHIMSA'
p5188
sS'PFM'
p5189
S'PHAPHAMAU JN'
p5190
sS'DXR'
p5191
S'DIGSAR'
p5192
sS'VTJ'
p5193
S'VARTEJ'
p5194
sS'VDD'
p5195
S'VENDODU'
p5196
sS'DXN'
p5197
S'DUDDHINAGAR'
p5198
sS'ADR'
p5199
S'MANDI ADAMPUR'
p5200
sS'PFR'
p5201
S'PACHOR ROAD'
p5202
sS'DXK'
p5203
S'DHANA KHERLI'
p5204
sS'PFT'
p5205
S'POTHAHI'
p5206
sS'RPJ'
p5207
S'RAJPURA JN'
p5208
sS'INDB'
p5209
S'INDORE JN BG'
p5210
sS'DXG'
p5211
S'DHARANGAON'
p5212
sS'HBS'
p5213
S'HEBSUR'
p5214
sS'DXD'
p5215
S'DIGOD'
p5216
sS'MRTY'
p5217
S'MURTI'
p5218
sS'KAYR'
p5219
S'KAYAR'
p5220
sS'BRAM'
p5221
S'BALABNRAMAPURAM'
p5222
sS'SIR'
p5223
S'SIRHIND JN'
p5224
sS'SIQ'
p5225
S'SARKONI'
p5226
sS'GOP'
p5227
S'GOP JAM'
p5228
sS'SIW'
p5229
S'SHIRRAVDE'
p5230
sS'JWP'
p5231
S'JWALAPUR'
p5232
sS'TKJ'
p5233
S'TILAK BRIDGE'
p5234
sS'JWS'
p5235
S'JHARWASAA'
p5236
sS'SBD'
p5237
S'SLEEMANABAD RD'
p5238
sS'TPTY'
p5239
S'TIRUPATI'
p5240
sS'SIC'
p5241
S'SONIK'
p5242
sS'SIA'
p5243
S'SHIVLANKHA'
p5244
sS'GNVR'
p5245
S'GONDWANAVISAPUR'
p5246
sS'JWL'
p5247
S'JAJIWAL'
p5248
sS'SIF'
p5249
S'SIRLI'
p5250
sS'JWO'
p5251
S'JAWAD ROAD'
p5252
sS'CRKR'
p5253
S'CHAURAKHERI'
p5254
sS'JWB'
p5255
S'JAWAI BANDH'
p5256
sS'SAGR'
p5257
S'SHRIRAJNAGAR'
p5258
sS'SIO'
p5259
S'SAMAKHIALI'
p5260
sS'SIM'
p5261
S'SHRI AMIRGADH'
p5262
sS'SIL'
p5263
S'SAKHI GOPAL'
p5264
sS'BDVT'
p5265
S'BHADRAVATI'
p5266
sS'TAV'
p5267
S'TALALA JN'
p5268
sS'WAT'
p5269
S'WALTAIR'
p5270
sS'BDVR'
p5271
S'BODDAVARA'
p5272
sS'MDRR'
p5273
S'MADAVNAGAR ROAD'
p5274
sS'PTLI'
p5275
S'PATHAULI'
p5276
sS'SLKR'
p5277
S'SALKAROAD'
p5278
sS'SOJN'
p5279
S'SIHOR GUJARAT'
p5280
sS'TAZ'
p5281
S'TARGAON'
p5282
sS'SMTA'
p5283
S'SAMUKTALA ROAD'
p5284
sS'MCU'
p5285
S'MULACALACHERUVU'
p5286
sS'SZY'
p5287
S'SILAK JHORI'
p5288
sS'TMKA'
p5289
S'TOMKA'
p5290
sS'TAA'
p5291
S'TADLA PUSAPALLI'
p5292
sS'SLKN'
p5293
S'SANDAL KALAN'
p5294
sS'TAC'
p5295
S'TATICHERLA'
p5296
sS'BDVL'
p5297
S'BUDVEL'
p5298
sS'NLE'
p5299
S'NILESHWAR'
p5300
sS'TAN'
p5301
S'TARANA ROAD'
p5302
sS'TAO'
p5303
S'TAMNA'
p5304
sS'SYJ'
p5305
S'SAIDRAJA'
p5306
sS'NLD'
p5307
S'NALANDA'
p5308
sS'RUJ'
p5309
S'RANUJ'
p5310
sS'JID'
p5311
S'JAGI ROAD'
p5312
sS'MJG'
p5313
S'MAJHAGAWAN'
p5314
sS'GIR'
p5315
S'GAINSARI JN'
p5316
sS'BDXX'
p5317
S'BADE ARAPUR'
p5318
sS'MJL'
p5319
S'MAJHOWLIA'
p5320
sS'DJX'
p5321
S'DUNGRIPALI'
p5322
sS'JIL'
p5323
S'JALILA ROAD'
p5324
sS'CGLA'
p5325
S'CHANGOTOLA'
p5326
sS'GIZ'
p5327
S'GIDAM'
p5328
sS'RWO'
p5329
S'RANAVAV'
p5330
sS'DJA'
p5331
S'DAOTUHAJA'
p5332
sS'SZR'
p5333
S'SARUPATHAR'
p5334
sS'JIT'
p5335
S'JIRAT'
p5336
sS'DJB'
p5337
S'DIJAOBRA'
p5338
sS'JIR'
p5339
S'JIRA ROAD'
p5340
sS'DJG'
p5341
S'DULIAJAN'
p5342
sS'MJS'
p5343
S'MANJESHWAR'
p5344
sS'DJI'
p5345
S'DHORAJI'
p5346
sS'GIN'
p5347
S'GINIGERA'
p5348
sS'GIM'
p5349
S'GANDHIDHAM JN.'
p5350
sS'SHSK'
p5351
S'SAHARSRAKUND'
p5352
sS'MJY'
p5353
S'MARAMJHIRI'
p5354
sS'BBTR'
p5355
S'BARBATPUR'
p5356
sS'NPM'
p5357
S'NELLAIKUPPAM'
p5358
sS'NPL'
p5359
S'NAGALAPALLE'
p5360
sS'BZA'
p5361
S'VIJAYAWADA JN'
p5362
sS'AHA'
p5363
S'ABHAIPUR'
p5364
sS'NPI'
p5365
S'NIPANIA'
p5366
sS'SGBJ'
p5367
S'SURGAON BANJARI'
p5368
sS'AHD'
p5369
S'AHERWADI'
p5370
sS'VDH'
p5371
S'VEDCHHA'
p5372
sS'NPD'
p5373
S'NAWAPARA ROAD'
p5374
sS'AHH'
p5375
S'AHMADGARH'
p5376
sS'JMPT'
p5377
S'JIMIDIPETA'
p5378
sS'AHN'
p5379
S'AHIRAN'
p5380
sS'AHO'
p5381
S'ADARSHNAGAR'
p5382
sS'MBGA'
p5383
S'MARWAR BAGRA'
p5384
sS'MJRI'
p5385
S'MAJRI JN'
p5386
sS'JRLI'
p5387
S'JAROLI'
p5388
sS'CDGR'
p5389
S'CHANDRAKONA RD'
p5390
sS'NPU'
p5391
S'NADIAPUR'
p5392
sS'JRLE'
p5393
S'JANGIPUR ROAD'
p5394
sS'NPW'
p5395
S'NIPANI VADGAON'
p5396
sS'LGO'
p5397
S'LALGOPALGANJ'
p5398
sS'MHBT'
p5399
S'MAHABUBNAGAR TO'
p5400
sS'NPS'
p5401
S'NAPASAR'
p5402
sS'NPR'
p5403
S'NEPALGANJ ROAD'
p5404
sS'GUB'
p5405
S'GULARBHOJ'
p5406
sS'TSL'
p5407
S'TAKSAL'
p5408
sS'GUG'
p5409
S'GARH JAIPUR'
p5410
sS'SRPM'
p5411
S'SIRIPURAM'
p5412
sS'NMGT'
p5413
S'NMG TAMDALGE'
p5414
sS'GUD'
p5415
S'GALUDIH'
p5416
sS'TSF'
p5417
S'TAHSIL FATEHPUR'
p5418
sS'BILK'
p5419
S'BILKHA'
p5420
sS'TSD'
p5421
S'TAHSIL BHADRA'
p5422
sS'GUH'
p5423
S'GULDHAR'
p5424
sS'SHR'
p5425
S'SIHORA ROAD'
p5426
sS'TSA'
p5427
S'TISUA'
p5428
sS'BDDR'
p5429
S'BADODAR'
p5430
sS'GUR'
p5431
S'GANAGAPUR ROAD'
p5432
sS'GUP'
p5433
S'GAURIPUR'
p5434
sS'GUV'
p5435
S'GURUVAYUR'
p5436
sS'DWLE'
p5437
S'DHAUNI'
p5438
sS'SAD'
p5439
S'SONADA'
p5440
sS'RJAP'
p5441
S'RAJAPUR'
p5442
sS'GUX'
p5443
S'GURHI'
p5444
sS'TSR'
p5445
S'TSUNDURU'
p5446
sS'TSS'
p5447
S'TALLI SAIDASAHU'
p5448
sS'SHU'
p5449
S'SHOLINGHUR'
p5450
sS'KBJ'
p5451
S'KANTABANJI'
p5452
sS'KBK'
p5453
S'KHAMIL GHAT'
p5454
sS'KBH'
p5455
S'KHANDBAARA'
p5456
sS'KBI'
p5457
S'KAMBRGANVI'
p5458
sS'KBN'
p5459
S'KARBIGWAN'
p5460
sS'KBL'
p5461
S'KOPPAL'
p5462
sS'HNMN'
p5463
S'HANUMAN STATION'
p5464
sS'HLDD'
p5465
S'HALDI ROAD'
p5466
sS'AFK'
p5467
S'ANGAMALI'
p5468
sS'PGRL'
p5469
S'PIDUGURALLA'
p5470
sS'HUK'
p5471
S'HOLAMBI KALAN'
p5472
sS'TKR'
p5473
S'TAKARI'
p5474
sS'JTU'
p5475
S'JAITIPUR'
p5476
sS'KBY'
p5477
S'KHOIRABARI'
p5478
sS'HUP'
p5479
S'HINDUPUR'
p5480
sS'BSYA'
p5481
S'BARKISALALYA'
p5482
sS'PLC'
p5483
S'PHALODI'
p5484
sS'KBQ'
p5485
S'KUMRABAD ROHINI'
p5486
sS'SHAN'
p5487
S'SRINIVASA NAGAR'
p5488
sS'KLBA'
p5489
S'KALAMBHA'
p5490
sS'HLDR'
p5491
S'HALDAUR'
p5492
sS'HCR'
p5493
S'HARISCHANDRPUR'
p5494
sS'KPQ'
p5495
S'KANNAPURAM'
p5496
sS'HCP'
p5497
S'HARCHANDPUR'
p5498
sS'KPS'
p5499
S'KOPA SAMHOTA'
p5500
sS'BLY'
p5501
S'BALLY'
p5502
sS'BLX'
p5503
S'BOLAI'
p5504
sS'KPV'
p5505
S'KASHIPUR'
p5506
sS'BLZ'
p5507
S'BUDHLADA'
p5508
sS'BLU'
p5509
S'BILHAUR'
p5510
sS'BLT'
p5511
S'BALOTRA JN'
p5512
sS'BLW'
p5513
S'BALAWALI'
p5514
sS'NFK'
p5515
S'NEW FARAKKA JN'
p5516
sS'BLP'
p5517
S'BALRAMPUR'
p5518
sS'BLS'
p5519
S'BALASORE'
p5520
sS'BLR'
p5521
S'BALGANUR'
p5522
sS'BLM'
p5523
S'BALAMU JN'
p5524
sS'BLL'
p5525
S'BANTANAHAL'
p5526
sS'BLO'
p5527
S'BHULON'
p5528
sS'BABR'
p5529
S'BALANAGAR'
p5530
sS'KPD'
p5531
S'KATPADI JN'
p5532
sS'BLH'
p5533
S'BELGHARIA'
p5534
sS'BLK'
p5535
S'BELAKOBA'
p5536
sS'BSKO'
p5537
S'BANSKHO'
p5538
sS'BLD'
p5539
S'BHILAD'
p5540
sS'BLG'
p5541
S'BILHAR GHAT'
p5542
sS'KPK'
p5543
S'KALIPAHARI'
p5544
sS'KPL'
p5545
S'KANTAKAPALLE'
p5546
sS'KPM'
p5547
S'KUMARAPURAM'
p5548
sS'BLC'
p5549
S'BOLDA'
p5550
sS'VLR'
p5551
S'VELLORE CANT'
p5552
sS'DEOR'
p5553
S'DIYODAR'
p5554
sS'DEOS'
p5555
S'DEORIA SADAR'
p5556
sS'KDCR'
p5557
S'SANVARDAM CRCHM'
p5558
sS'SFX'
p5559
S'SAFILGUDA'
p5560
sS'PLI'
p5561
S'PETTAIVAYATALAI'
p5562
sS'TDU'
p5563
S'TANDUR'
p5564
sS'VWA'
p5565
S'VIDURASWATTHA'
p5566
sS'EKN'
p5567
S'EZHUKONE'
p5568
sS'EKM'
p5569
S'EKAMBARAKUPPAM'
p5570
sS'UAR'
p5571
S'UNAWA AITHOR'
p5572
sS'KTHD'
p5573
S'KOTHARI ROAD'
p5574
sS'EKI'
p5575
S'EKLAKHI'
p5576
sS'RES'
p5577
S'RASULL'
p5578
sS'SHG'
p5579
S'SHAHGANJ JN'
p5580
sS'EKC'
p5581
S'EKCHARI'
p5582
sS'RECH'
p5583
S'RECHNI ROAD'
p5584
sS'REJ'
p5585
S'REJINAGAR'
p5586
sS'REI'
p5587
S'RITHI'
p5588
sS'KTHU'
p5589
S'KATHUA'
p5590
sS'PRKE'
p5591
S'PURUA KHERA'
p5592
sS'NVL'
p5593
S'NEYVELI'
p5594
sS'SBV'
p5595
S'S BHAKHTIYARPUR'
p5596
sS'MKC'
p5597
S'MAKSI'
p5598
sS'SLHP'
p5599
S'SULAH HMCHL PDH'
p5600
sS'KRDH'
p5601
S'KORADIH'
p5602
sS'EKR'
p5603
S'EKANGARSARAI'
p5604
sS'RLA'
p5605
S'RAJULA JN'
p5606
sS'JHD'
p5607
S'JEHANABAD'
p5608
sS'KEPR'
p5609
S'KOIRIPUR'
p5610
sS'SRID'
p5611
S'SHRIDHAM'
p5612
sS'MKA'
p5613
S'MOKAMEH JN'
p5614
sS'PDRD'
p5615
S'PINDRA ROAD'
p5616
sS'SSPD'
p5617
S'SADASHIVAPET RD'
p5618
sS'PRKD'
p5619
S'POWERKHEDA'
p5620
sS'AIT'
p5621
S'AIT'
p5622
sS'NDR'
p5623
S'NANDESARI'
p5624
sS'NTSK'
p5625
S'NEW TINSUKIA JN'
p5626
sS'CLAT'
p5627
S'LOKMANYATILAK T'
p5628
sS'BRRD'
p5629
S'BORDI ROAD'
p5630
sS'SDPN'
p5631
S'SINDPAN'
p5632
sS'KXH'
p5633
S'KAPURTHALA'
p5634
sS'BXR'
p5635
S'BUXAR'
p5636
sS'LTV'
p5637
S'LOTARVA'
p5638
sS'KXI'
p5639
S'KURUMURTHI'
p5640
sS'KHE'
p5641
S'KANKATHER'
p5642
sS'LGDH'
p5643
S'LALAGUDA GATE'
p5644
sS'BTW'
p5645
S'BARSI TOWN'
p5646
sS'JHL'
p5647
S'JAKHAL JN'
p5648
sS'LTA'
p5649
S'LAMTA'
p5650
sS'GZM'
p5651
S'GOUR MALDA'
p5652
sS'LTD'
p5653
S'LATHIDAD'
p5654
sS'VEN'
p5655
S'VERNA'
p5656
sS'KXL'
p5657
S'KAMARBANDHA ALI'
p5658
sS'MKH'
p5659
S'MALAKHERA'
p5660
sS'RJPM'
p5661
S'RAJAPALAYAM'
p5662
sS'SZ'
p5663
S'SALAWAS'
p5664
sS'SY'
p5665
S'SIRKAZHI'
p5666
sS'SRSI'
p5667
S'SARSI'
p5668
sS'KXN'
p5669
S'KANSHBAHAL'
p5670
sS'MRL'
p5671
S'MAROLI'
p5672
sS'SS'
p5673
S'SHIRSOLI'
p5674
sS'SR'
p5675
S'SABLI ROAD'
p5676
sS'SW'
p5677
S'SEHRAMAU'
p5678
sS'MKU'
p5679
S'MALKAPUR'
p5680
sS'GUNA'
p5681
S'GUNA'
p5682
sS'SK'
p5683
S'SAKHUN'
p5684
sS'SI'
p5685
S'SONALLI'
p5686
sS'MKT'
p5687
S'MUKHTIAR BALWAR'
p5688
sS'RUPC'
p5689
S'RUDRAPUR CITY'
p5690
sS'SM'
p5691
S'SAMSI'
p5692
sS'MLTR'
p5693
S'MELATTUR'
p5694
sS'SC'
p5695
S'SECUNDERABAD JN'
p5696
sS'MKS'
p5697
S'MUKTSAR'
p5698
sS'SA'
p5699
S'SALEM JN'
p5700
sS'KKTA'
p5701
S'KOLLIKHUTAHA'
p5702
sS'JUDW'
p5703
S'JAGADHRI WSHOP'
p5704
sS'RJPB'
p5705
S'RJNDR NGR BIHAR'
p5706
sS'MKR'
p5707
S'MADDIKERA'
p5708
sS'KNVT'
p5709
S'KINWAT'
p5710
sS'TBR'
p5711
S'TAIABPUR'
p5712
sS'IBL'
p5713
S'INDRABIL'
p5714
sS'JHW'
p5715
S'JHALAWAR ROAD'
p5716
sS'HZD'
p5717
S'HAZARIBAGH RD'
p5718
sS'CAR'
p5719
S'CHUNAR'
p5720
sS'CAP'
p5721
S'CHATRAPUR'
p5722
sS'ANKL'
p5723
S'ANKOLA'
p5724
sS'KXE'
p5725
S'KALIAN CHAK'
p5726
sS'BNCE'
p5727
S'BANGALORE EAST'
p5728
sS'CAJ'
p5729
S'CHAKRAJ MAL'
p5730
sS'CAI'
p5731
S'CHANPATIA'
p5732
sS'HAPA'
p5733
S'HAPA'
p5734
sS'CAN'
p5735
S'KANNUR'
p5736
sS'KHNM'
p5737
S'KUNDA HARNAMGNJ'
p5738
sS'ANKX'
p5739
S'ANK MMR DIRECT'
p5740
sS'CAA'
p5741
S'CHAKIA'
p5742
sS'REWA'
p5743
S'REWA'
p5744
sS'CAG'
p5745
S'CHHABRA GUGOR'
p5746
sS'CAF'
p5747
S'CHANDA FORT'
p5748
sS'PMD'
p5749
S'PAMIDI'
p5750
sS'KXX'
p5751
S'KATA ROAD'
p5752
sS'PSLI'
p5753
S'PARSOLI'
p5754
sS'LHA'
p5755
S'LEHRA GAGA'
p5756
sS'MGR'
p5757
S'MONGHYR'
p5758
sS'NRPD'
p5759
S'NARAYANPET ROAD'
p5760
sS'CHOK'
p5761
S'CHAUK'
p5762
sS'DYP'
p5763
S'DARYAPUR'
p5764
sS'AJNI'
p5765
S'AJNI'
p5766
sS'GNO'
p5767
S'GOREGAON ROAD'
p5768
sS'PGW'
p5769
S'PHAGWARA JN'
p5770
sS'PGT'
p5771
S'PALAKKAD'
p5772
sS'PGU'
p5773
S'PADUGUPADU'
p5774
sS'PGR'
p5775
S'PUGALUR'
p5776
sS'KSNR'
p5777
S'KHUSHAL NAGAR'
p5778
sS'PGP'
p5779
S'PANDURANGAPURAM'
p5780
sS'DYK'
p5781
S'DUDHIA KHURD'
p5782
sS'DYD'
p5783
S'DARYABAD'
p5784
sS'DYE'
p5785
S'DAYANAND NAGAR'
p5786
sS'PGZ'
p5787
S'PERUNGUZHI'
p5788
sS'PNSA'
p5789
S'PUNSIA'
p5790
sS'SNR'
p5791
S'SHYAMNAGAR'
p5792
sS'PPC'
p5793
S'PIPRAICH'
p5794
sS'FGSB'
p5795
S'FATEHGARH SAHIB'
p5796
sS'VAA'
p5797
S'BHAGA JN'
p5798
sS'SRWN'
p5799
S'SARASWATINAGAR'
p5800
sS'SOC'
p5801
S'SHILLONG O A'
p5802
sS'LXR'
p5803
S'LUNSERIYA'
p5804
sS'SKAP'
p5805
S'S K PARA'
p5806
sS'RAIR'
p5807
S'RAIRAKHOL'
p5808
sS'MSH'
p5809
S'MAHESANA JN'
p5810
sS'SNE'
p5811
S'SHENOLI'
p5812
sS'SOE'
p5813
S'SHEOPUR KALAN'
p5814
sS'SGRD'
p5815
S'SULGARE'
p5816
sS'TUNG'
p5817
S'TUNG'
p5818
sS'AKRD'
p5819
S'AKURDI'
p5820
sS'PPF'
p5821
S'PIPLAJ'
p5822
sS'UDR'
p5823
S'AMDARA'
p5824
sS'TGRL'
p5825
S'TANGIRIAPAL'
p5826
sS'MAKM'
p5827
S'MARARIKULAM'
p5828
sS'MGX'
p5829
S'MAILONGDISA'
p5830
sS'PNME'
p5831
S'PARASNATH'
p5832
sS'RSI'
p5833
S'RAISI'
p5834
sS'UDT'
p5835
S'UDUMALAIPPETTAI'
p5836
sS'TMC'
p5837
S'TALAMANCHI'
p5838
sS'KXT'
p5839
S'KETTI'
p5840
sS'RSG'
p5841
S'\xe3'
p5842
sS'RSA'
p5843
S'RISAMA'
p5844
sS'OGM'
p5845
S'OORGAUM'
p5846
sS'MBD'
p5847
S'MUSTABADA'
p5848
sS'SOH'
p5849
S'SIROHI ROAD'
p5850
sS'URGA'
p5851
S'URGA'
p5852
sS'SSB'
p5853
S'SHAKURBASTI'
p5854
sS'UDN'
p5855
S'UDHNA JN'
p5856
sS'MAKR'
p5857
S'MALKHEDI'
p5858
sS'UDL'
p5859
S'ANDAL JN'
p5860
sS'UDM'
p5861
S'UNDASA MADHAWPU'
p5862
sS'DKW'
p5863
S'DHANAKWADA'
p5864
sS'DKT'
p5865
S'DHULKOT'
p5866
sS'PPH'
p5867
S'PIPRI DIH'
p5868
sS'KALD'
p5869
S'KUDAL'
p5870
sS'DKS'
p5871
S'DAREKASA'
p5872
sS'GHR'
p5873
S'GIDHAUR'
p5874
sS'MIN'
p5875
S'MIHINPURWA'
p5876
sS'DKZ'
p5877
S'DELHI KISHANGNJ'
p5878
sS'BRLY'
p5879
S'BIROLIYA'
p5880
sS'DKX'
p5881
S'DUDHWAKHARA'
p5882
sS'DKY'
p5883
S'DHOKI'
p5884
sS'GHD'
p5885
S'GARWA ROAD'
p5886
sS'BDYK'
p5887
S'BINDAYAKA'
p5888
sS'DKE'
p5889
S'DIHAKHO'
p5890
sS'BRLA'
p5891
S'BRAYLA CHAURASI'
p5892
sS'DKN'
p5893
S'DEVANGONTHI'
p5894
sS'DKO'
p5895
S'DEVAKOTTAI ROAD'
p5896
sS'DKJ'
p5897
S'DORNAKAL JN'
p5898
sS'PFU'
p5899
S'PADUA'
p5900
sS'GHJ'
p5901
S'GURSAHAIGANJ'
p5902
sS'SAW'
p5903
S'SURIAWAN'
p5904
sS'LONI'
p5905
S'LONI'
p5906
sS'NSVP'
p5907
S'NPA SHVRAMPALLI'
p5908
sS'TME'
p5909
S'TUTI MELUR'
p5910
sS'SOP'
p5911
S'SHIUPUR'
p5912
sS'YKA'
p5913
S'YAKUTPURA KCG'
p5914
sS'PDT'
p5915
S'PENDURTI'
p5916
sS'SOS'
p5917
S'SOMESAR'
p5918
sS'SYN'
p5919
S'SAYAN'
p5920
sS'NYP'
p5921
S'NAYADUPETA'
p5922
sS'VJR'
p5923
S'VIJAYANAGAR'
p5924
sS'JRMG'
p5925
S'JAIRAMNAGAR'
p5926
sS'SOU'
p5927
S'SUPAUL'
p5928
sS'WJR'
p5929
S'WALAJAH ROAD JN'
p5930
sS'KBPR'
p5931
S'KABAKAPUTTUR'
p5932
sS'MBY'
p5933
S'MANDI DABWALI'
p5934
sS'URD'
p5935
S'UNTARE ROAD'
p5936
sS'NDKD'
p5937
S'NADIKODE'
p5938
sS'SOW'
p5939
S'SUHSARAI'
p5940
sS'URL'
p5941
S'UNJALUR'
p5942
sS'URN'
p5943
S'UTRAN'
p5944
sS'RHN'
p5945
S'ROSHANPUR'
p5946
sS'URI'
p5947
S'URULI'
p5948
sS'AYB'
p5949
S'ALIYABAD'
p5950
sS'PALI'
p5951
S'PALI'
p5952
sS'TPPI'
p5953
S'TIPPARTHI'
p5954
sS'PPZ'
p5955
S'PEDDEMPET'
p5956
sS'AYV'
p5957
S'ARYANKAVU'
p5958
sS'KPTO'
p5959
S'KARANPUR ATO'
p5960
sS'KPTN'
p5961
S'KESHORAI PATAN'
p5962
sS'MBW'
p5963
S'MALWARA'
p5964
sS'NDT'
p5965
S'NATHDWARA'
p5966
sS'DABN'
p5967
S'DHABAN'
p5968
sS'PDR'
p5969
S'PAYAGPUR'
p5970
sS'SFY'
p5971
S'SHAJAPUR'
p5972
sS'SFW'
p5973
S'SARANGPUR'
p5974
sS'TMT'
p5975
S'TIMTALA'
p5976
sS'IPL'
p5977
S'IDAPLLI'
p5978
sS'IPM'
p5979
S'ICHCHPURAM'
p5980
sS'IPR'
p5981
S'ISLAMPUR'
p5982
sS'VLG'
p5983
S'VANIGONDA'
p5984
sS'SFM'
p5985
S'SUNAM'
p5986
sS'SFK'
p5987
S'SIKIR'
p5988
sS'SFH'
p5989
S'SAFEDABAD'
p5990
sS'SAT'
p5991
S'SANT ROAD'
p5992
sS'PYD'
p5993
S'PALLIYADI'
p5994
sS'SFC'
p5995
S'SAINTALA'
p5996
sS'PYG'
p5997
S'PRAYAG GHAT'
p5998
sS'HDW'
p5999
S'HALDWANI'
p6000
sS'NGE'
p6001
S'NAGAR'
p6002
sS'HDU'
p6003
S'HARDUA'
p6004
sS'HDT'
p6005
S'HARDATTPUR'
p6006
sS'KORI'
p6007
S'KHORI'
p6008
sS'NGB'
p6009
S'NAWABGANJ GONDA'
p6010
sS'HDP'
p6011
S'HADAPSAR'
p6012
sS'NGN'
p6013
S'NANDGAON'
p6014
sS'NGO'
p6015
S'NAGAUR'
p6016
sS'BAMA'
p6017
S'BIRAMBAD'
p6018
sS'SCI'
p6019
S'SANCHI'
p6020
sS'KSE'
p6021
S'KOSAD'
p6022
sS'KSD'
p6023
S'KESHOD'
p6024
sS'HDE'
p6025
S'HARDAS BIGHA'
p6026
sS'HDD'
p6027
S'HADDINAGUNDU'
p6028
sS'CTPE'
p6029
S'CHANDANATTOP'
p6030
sS'HDB'
p6031
S'HALDIBARI'
p6032
sS'NGR'
p6033
S'ANNIGERI'
p6034
sS'KSB'
p6035
S'KOSAMBA JN'
p6036
sS'ISH'
p6037
S'ISARWARA'
p6038
sS'HDN'
p6039
S'HAIDARNAGAR'
p6040
sS'HDL'
p6041
S'HODAL'
p6042
sS'HDK'
p6043
S'HANDIA KHAS'
p6044
sS'KSH'
p6045
S'KALI SINDH'
p6046
sS'KSK'
p6047
S'KASIMKOTA'
p6048
sS'KSJ'
p6049
S'KASGANJ'
p6050
sS'BMB'
p6051
S'BAMRA'
p6052
sS'BMC'
p6053
S'BHIMALGONDI'
p6054
sS'MGAE'
p6055
S'MORGRAM'
p6056
sS'VLNK'
p6057
S'VELLANKANNI'
p6058
sS'BMF'
p6059
S'BASMAT'
p6060
sS'BMD'
p6061
S'BHIMADOLU'
p6062
sS'BME'
p6063
S'BARMER'
p6064
sS'DNRP'
p6065
S'DUNGARPUR'
p6066
sS'BMK'
p6067
S'BIRANG KHERA'
p6068
sS'BMH'
p6069
S'BETAMCHERLA'
p6070
sS'BMI'
p6071
S'BAMNIA'
p6072
sS'BMN'
p6073
S'BHIMANA'
p6074
sS'BMO'
p6075
S'BOLARUM'
p6076
sS'PRDL'
p6077
S'PARADOL'
p6078
sS'VJF'
p6079
S'VIJAPUR'
p6080
sS'BMR'
p6081
S'BIKRAMPUR'
p6082
sS'SKVL'
p6083
S'SANKVAL'
p6084
sS'PRDP'
p6085
S'PARADIP'
p6086
sS'SMP'
p6087
S'SHAMBHUPURA'
p6088
sS'BMW'
p6089
S'BAMHANI'
p6090
sS'BMT'
p6091
S'BEGAMPET'
p6092
sS'BMU'
p6093
S'BAMHRAULI'
p6094
sS'GATD'
p6095
S'GAUTAMDHARA'
p6096
sS'DNRA'
p6097
S'DHANDHERA'
p6098
sS'SZP'
p6099
S'SHAHJAHANPUR'
p6100
sS'VVA'
p6101
S'VARVALA'
p6102
sS'GER'
p6103
S'GERATPUR'
p6104
sS'DNRE'
p6105
S'DHANAURI'
p6106
sS'EM'
p6107
S'EKMA'
p6108
sS'DHPR'
p6109
S'DAPPAR'
p6110
sS'EN'
p6111
S'ISAND'
p6112
sS'JTY'
p6113
S'JETHI'
p6114
sS'KLRS'
p6115
S'KOLARAS'
p6116
sS'SHV'
p6117
S'SHIVANI'
p6118
sS'EE'
p6119
S'ELURU'
p6120
sS'ED'
p6121
S'ERODE JN'
p6122
sS'JTW'
p6123
S'JAITWAR'
p6124
sS'JTV'
p6125
S'JETALVAD'
p6126
sS'JTP'
p6127
S'JETPUR'
p6128
sS'JTS'
p6129
S'JATUSANA'
p6130
sS'JTR'
p6131
S'JATKANHAR'
p6132
sS'JTL'
p6133
S'JHAPATER DHAL'
p6134
sS'JTO'
p6135
S'JUTOGH'
p6136
sS'SHC'
p6137
S'SAHARSA JN'
p6138
sS'JTI'
p6139
S'JAITHARI'
p6140
sS'SHE'
p6141
S'SEORAPHULI'
p6142
sS'SHF'
p6143
S'SHIRUD'
p6144
sS'JTJ'
p6145
S'JOLARPETTAI'
p6146
sS'SHH'
p6147
S'SHAPUR JN'
p6148
sS'ET'
p6149
S'ITARSI JN'
p6150
sS'JTG'
p6151
S'JATINGA'
p6152
sS'SHK'
p6153
S'SHEIKPURA'
p6154
sS'SHM'
p6155
S'SHALIMAR'
p6156
sS'JTB'
p6157
S'JAGATBELA'
p6158
sS'MGC'
p6159
S'MUGAT'
p6160
sS'GZO'
p6161
S'GAZOLE'
p6162
sS'GZL'
p6163
S'GAZULAPALLI'
p6164
sS'AMIN'
p6165
S'AMIN'
p6166
sS'BDWS'
p6167
S'BADARWAS'
p6168
sS'MGF'
p6169
S'MANDAGERE'
p6170
sS'GZH'
p6171
S'GULZARBAGH'
p6172
sS'MGD'
p6173
S'MUGAD'
p6174
sS'PAVP'
p6175
S'PEDDA AVUTAPALE'
p6176
sS'MGI'
p6177
S'MANIGACHI'
p6178
sS'BBGN'
p6179
S'BARUA BAMUNGAON'
p6180
sS'GZB'
p6181
S'GHAZIABAD'
p6182
sS'MGN'
p6183
S'MEGHNAGAR'
p6184
sS'MGM'
p6185
S'MURAGACHA'
p6186
sS'MGL'
p6187
S'MANGELA'
p6188
sS'MGS'
p6189
S'MUGHAL SARAI JN'
p6190
sS'MEM'
p6191
S'MAU AIMMA'
p6192
sS'BDWD'
p6193
S'BODWAD'
p6194
sS'KGBS'
p6195
S'KISHENGARH BLWS'
p6196
sS'BDWA'
p6197
S'BADHWA BARA'
p6198
sS'TBN'
p6199
S'TIMARNI'
p6200
sS'TBA'
p6201
S'TIMBA ROAD'
p6202
sS'KDJR'
p6203
S'KENDUJHARGARH'
p6204
sS'BDWL'
p6205
S'BIRADHWAL'
p6206
sS'GHX'
p6207
S'GARHARA'
p6208
sS'ADST'
p6209
S'ADI SAPTAGRAM'
p6210
sS'RMY'
p6211
S'RUKMAPUR'
p6212
sS'SNC'
p6213
S'SNARAYAN CHAPIA'
p6214
sS'SALE'
p6215
S'SALAR'
p6216
sS'CNBI'
p6217
S'CHANDARI'
p6218
sS'MNQ'
p6219
S'MAINPURI'
p6220
sS'VJP'
p6221
S'VIJAY PUR'
p6222
sS'RVKH'
p6223
S'RAVINDRAKHANI'
p6224
sS'MTB'
p6225
S'MATLABPUR'
p6226
sS'WPR'
p6227
S'WANPARTI ROAD'
p6228
sS'MLAR'
p6229
S'MALANPUR'
p6230
sS'MAR'
p6231
S'MULANUR'
p6232
sS'VJA'
p6233
S'VEJANDLA'
p6234
sS'GHY'
p6235
S'GUWAHATI'
p6236
sS'MNDR'
p6237
S'MANDI DHANAURA'
p6238
sS'SVGL'
p6239
S'SHRIVAGILU'
p6240
sS'RMC'
p6241
S'RAM CHAURA ROAD'
p6242
sS'SDAH'
p6243
S'SEALDAH'
p6244
sS'DTC'
p6245
S'DITOKCHERRA'
p6246
sS'RMA'
p6247
S'RAMGANJ MANDI'
p6248
sS'LNH'
p6249
S'LACHHMANGARH SK'
p6250
sS'ROA'
p6251
S'RUSERA GHAT'
p6252
sS'DKNT'
p6253
S'DAKANIYA TALAV'
p6254
sS'GTE'
p6255
S'GOTHAJ'
p6256
sS'GTF'
p6257
S'GUMTHAL'
p6258
sS'KMTI'
p6259
S'KUMARHATTI'
p6260
sS'PCV'
p6261
S'PALAKKODU'
p6262
sS'TLY'
p6263
S'THALASSERY'
p6264
sS'GTK'
p6265
S'GHUTKU'
p6266
sS'GTL'
p6267
S'GUNTAKAL JN'
p6268
sS'GTM'
p6269
S'Ghatampur'
p6270
sS'RXL'
p6271
S'RAXAUL JN'
p6272
sS'VTN'
p6273
S'VAITARNA'
p6274
sS'GHLE'
p6275
S'GADADHARPUR'
p6276
sS'ATMO'
p6277
S'AITHAL'
p6278
sS'GTT'
p6279
S'GOMTA'
p6280
sS'GTU'
p6281
S'GHAT NANDUR'
p6282
sS'TLE'
p6283
S'TALGARIA'
p6284
sS'GTW'
p6285
S'GATORA'
p6286
sS'GTX'
p6287
S'GOTHANGAM'
p6288
sS'TLJ'
p6289
S'TALJHARI'
p6290
sS'TLI'
p6291
S'TULWARA JHIL'
p6292
sS'PCU'
p6293
S'PUTLACHERUVU'
p6294
sS'MDGR'
p6295
S'MANENDRAGARH'
p6296
sS'GEDE'
p6297
S'GEDE'
p6298
sS'KEN'
p6299
S'KOTALA'
p6300
sS'KKGM'
p6301
S'KAKIRIGUMMA'
p6302
sS'HVM'
p6303
S'HAMSAVARAM'
p6304
sS'KEJ'
p6305
S'KATHLEEGHAT'
p6306
sS'BHLP'
p6307
S'BHULANPUR'
p6308
sS'KEH'
p6309
S'KAPSETI'
p6310
sS'KEG'
p6311
S'KARENGI'
p6312
sS'KEF'
p6313
S'KRISHNAMA KONA'
p6314
sS'TK'
p6315
S'TUMKUR'
p6316
sS'HVD'
p6317
S'HALVAD'
p6318
sS'KEA'
p6319
S'KATRA'
p6320
sS'SJTR'
p6321
S'SOJITRA'
p6322
sS'ARNA'
p6323
S'ARNIA'
p6324
sS'BHLE'
p6325
S'BARAHAT'
p6326
sS'BHLA'
p6327
S'BEHULA'
p6328
sS'THKU'
p6329
S'THALLAK'
p6330
sS'HVR'
p6331
S'HAVERI'
p6332
sS'ETAH'
p6333
S'ETAH'
p6334
sS'BHLK'
p6335
S'BHALKI'
p6336
sS'BHLI'
p6337
S'BOHALI'
p6338
sS'VTA'
p6339
S'VATVA'
p6340
sS'MMPL'
p6341
S'MANTAPAMPALLE'
p6342
sS'JSP'
p6343
S'JAYASINGPUR'
p6344
sS'GTA'
p6345
S'GOLANTHRA'
p6346
sS'SKND'
p6347
S'SUKINDA ROAD'
p6348
sS'SNGN'
p6349
S'SANGANER'
p6350
sS'LOV'
p6351
S'LOVEDALE'
p6352
sS'PCM'
p6353
S'PAVURCHUTRAM'
p6354
sS'KCVL'
p6355
S'KOCHUVELI'
p6356
sS'KQA'
p6357
S'KONDAGUNTA'
p6358
sS'KJA'
p6359
S'KHAJURHAT'
p6360
sS'SINI'
p6361
S'SINI JN'
p6362
sS'MRDL'
p6363
S'MERAMANDOLIL'
p6364
sS'KMSD'
p6365
S'KUMAR SADRA'
p6366
sS'SHZ'
p6367
S'SUMMER HILL'
p6368
sS'TBAE'
p6369
S'TRIBENI'
p6370
sS'DMRT'
p6371
S'DUMURIPUT'
p6372
sS'MAHO'
p6373
S'MAHOLI'
p6374
sS'RCTC'
p6375
S'RAGHUNATHPUR'
p6376
sS'UCP'
p6377
S'UCHIPPULI'
p6378
sS'SCC'
p6379
S'SITAPUR CANT'
p6380
sS'PNBE'
p6381
S'PATNA JN'
p6382
sS'RPZ'
p6383
S'RANAPRATAPNAGAR'
p6384
sS'NPK'
p6385
S'N. PANAKUDI'
p6386
sS'DMRX'
p6387
S'DUMRI HALT'
p6388
sS'PDG'
p6389
S'PARADGAON'
p6390
sS'RPB'
p6391
S'RUPASIBARI'
p6392
sS'RAU'
p6393
S'RAU'
p6394
sS'UCA'
p6395
S'UCHANA'
p6396
sS'RPI'
p6397
S'RUPAHELI'
p6398
sS'RPH'
p6399
S'RAMPUR HAT'
p6400
sS'RPK'
p6401
S'RAVALPALI KALAN'
p6402
sS'PLJE'
p6403
S'PHULWARTANR'
p6404
sS'KRIH'
p6405
S'KORAI HALT'
p6406
sS'RPL'
p6407
S'REDDIPALLE'
p6408
sS'ALJN'
p6409
S'ALIGARH JN'
p6410
sS'KTGM'
p6411
S'KAYASTHAGRAM'
p6412
sS'KJI'
p6413
S'KHAJAULI'
p6414
sS'RBZ'
p6415
S'RAMBHADDARPUR'
p6416
sS'MVE'
p6417
S'MUNDHEWADI'
p6418
sS'SOJ'
p6419
S'SAROJINI NAGAR'
p6420
sS'NDLS'
p6421
S'NEW DELHI'
p6422
sS'KTGA'
p6423
S'KEUTGUDA'
p6424
sS'PDF'
p6425
S'PADAMPUR'
p6426
sS'BEAS'
p6427
S'BEAS'
p6428
sS'RBN'
p6429
S'RAGHUBANS NAGAR'
p6430
sS'MAUR'
p6431
S'MAUR'
p6432
sS'RBK'
p6433
S'REOTI B KHERA'
p6434
sS'BJWS'
p6435
S'BOJAWAS'
p6436
sS'SDM'
p6437
S'SURAREDDIPALEM'
p6438
sS'RBG'
p6439
S'RAYBAG'
p6440
sS'DRGJ'
p6441
S'DARAGANJ'
p6442
sS'RBD'
p6443
S'RAHIMABAD'
p6444
sS'SDN'
p6445
S'SHOLAVANDAN'
p6446
sS'RBA'
p6447
S'RAMBHA'
p6448
sS'KRGA'
p6449
S'KURANGA'
p6450
sS'TLC'
p6451
S'TALCHHAPAR'
p6452
sS'LGH'
p6453
S'LALGARH JN'
p6454
sS'TNGL'
p6455
S'TORANAGALLU'
p6456
sS'YLG'
p6457
S'YALVIGI'
p6458
sS'GMAN'
p6459
S'GUMANI'
p6460
sS'LGL'
p6461
S'LALGOLA'
p6462
sS'TPTN'
p6463
S'TIRUCHRPALI TWN'
p6464
sS'LGB'
p6465
S'LOHGARH ABUB'
p6466
sS'SDI'
p6467
S'SAGARDIGHI'
p6468
sS'GTS'
p6469
S'GHATSILA'
p6470
sS'UKR'
p6471
S'UDALKACHAR'
p6472
sS'STPD'
p6473
S'SITAFAL MANDI'
p6474
sS'SMNE'
p6475
S'SOMTANE'
p6476
sS'OTP'
p6477
S'OTTAPPALAM'
p6478
sS'MNI'
p6479
S'MANGAON'
p6480
sS'SMNH'
p6481
S'SOMNATH'
p6482
sS'BGMR'
p6483
S'BAGUMRA'
p6484
sS'MRJ'
p6485
S'MIRAJ JN'
p6486
sS'LGT'
p6487
S'LANGTING'
p6488
sS'KJW'
p6489
S'KHAJWANA'
p6490
sS'AXR'
p6491
S'ALLURU ROAD'
p6492
sS'DZB'
p6493
S'DAHINA ZAINABAD'
p6494
sS'KJT'
p6495
S'KARJAT'
p6496
sS'GSP'
p6497
S'GURDASPUR'
p6498
sS'JT'
p6499
S'JORHAT'
p6500
sS'JU'
p6501
S'JODHPUR JN'
p6502
sS'JW'
p6503
S'JW'
p6504
sS'JP'
p6505
S'JAIPUR'
p6506
sS'KQQ'
p6507
S'KAUKUNTLA'
p6508
sS'JL'
p6509
S'JALGAON JN'
p6510
sS'JM'
p6511
S'JALAMB JN'
p6512
sS'AXA'
p6513
S'AMARSAR'
p6514
sS'AXK'
p6515
S'ASOKHAR'
p6516
sS'VDI'
p6517
S'VELDURTI'
p6518
sS'MHRG'
p6519
S'MAHENDRAGARH'
p6520
sS'NAG'
p6521
S'NAGARGALI'
p6522
sS'MVH'
p6523
S'MANTATTI'
p6524
sS'VMA'
p6525
S'VIKRAMGARH ALOT'
p6526
sS'TLH'
p6527
S'TILHAR'
p6528
sS'GSW'
p6529
S'GURSAR SHNEWALA'
p6530
sS'KEMA'
p6531
S'KUKMA'
p6532
sS'KLSP'
p6533
S'KUSHAL PURA'
p6534
sS'TLO'
p6535
S'TALANDU'
p6536
sS'BNVD'
p6537
S'BHANVAD'
p6538
sS'KQT'
p6539
S'KURGUNTA'
p6540
sS'KEMK'
p6541
S'KHEM KARAN'
p6542
sS'PNVL'
p6543
S'PANVEL'
p6544
sS'BL'
p6545
S'VALSAD'
p6546
sS'KEMR'
p6547
S'KEMRI'
p6548
sS'KQZ'
p6549
S'KOLAR'
p6550
sS'JGR'
p6551
S'JASWANTNAGAR'
p6552
sS'HBG'
p6553
S'HOWBADH JABLPUR'
p6554
sS'BNDP'
p6555
S'BUNIADPUR'
p6556
sS'TKH'
p6557
S'THAKURTOTA'
p6558
sS'TIW'
p6559
S'TIVARI'
p6560
sS'NLBR'
p6561
S'NILAMBAZAR'
p6562
sS'SKZR'
p6563
S'SIRPUR KAGAZNGR'
p6564
sS'NAN'
p6565
S'NANDGAON ROAD'
p6566
sS'IAA'
p6567
S'INDARA JN'
p6568
sS'KEM'
p6569
S'KEM'
p6570
sS'SAB'
p6571
S'SANTAMAGULUR'
p6572
sS'BNDA'
p6573
S'BANDA JN'
p6574
sS'NAL'
p6575
S'NAL HALT'
p6576
sS'KEK'
p6577
S'KARKHELI'
p6578
sS'KASR'
p6579
S'KANAS ROAD'
p6580
sS'CTRD'
p6581
S'CHITRAWAD'
p6582
sS'BNDM'
p6583
S'BONDAMUNDA'
p6584
sS'BNDN'
p6585
S'BHANDANA'
p6586
sS'STDR'
p6587
S'SATADHAR'
p6588
sS'PHK'
p6589
S'PUNARAKH'
p6590
sS'PUT'
p6591
S'PUTTUR'
p6592
sS'MZP'
p6593
S'MIRZAPUR'
p6594
sS'KEI'
p6595
S'KASHI'
p6596
sS'MZR'
p6597
S'MURTAJAPUR'
p6598
sS'KHMA'
p6599
S'KHATIMA'
p6600
sS'PHA'
p6601
S'PATHARIA'
p6602
sS'NYG'
p6603
S'NAYAGARH'
p6604
sS'CHNN'
p6605
S'CHANNANI'
p6606
sS'PHD'
p6607
S'PHAPHUND'
p6608
sS'CHNR'
p6609
S'CHHAN ARORIAN'
p6610
sS'VYA'
p6611
S'VYARA'
p6612
sS'PNPL'
p6613
S'PANPALI'
p6614
sS'MEP'
p6615
S'MAHIDPUR ROAD'
p6616
sS'MZL'
p6617
S'MIRZAPALI'
p6618
sS'MZM'
p6619
S'MUZZAMPUR NRYN'
p6620
sS'MZN'
p6621
S'MAHMUDPUR SRYN'
p6622
sS'MZH'
p6623
S'MAUHARI'
p6624
sS'PHV'
p6625
S'PIRTHIGANJ'
p6626
sS'NAW'
p6627
S'NAWANDGI'
p6628
sS'RVD'
p6629
S'RAVIKAMPADU'
p6630
sS'MSDN'
p6631
S'MASUDAN'
p6632
sS'RMGM'
p6633
S'RAMANAGARAM'
p6634
sS'KLAR'
p6635
S'KULPAHAR'
p6636
sS'KQE'
p6637
S'KALA AKHAR'
p6638
sS'SKS'
p6639
S'SALEKASA'
p6640
sS'SKR'
p6641
S'SAKHPUR'
p6642
sS'MSDG'
p6643
S'MHASODA DONGAR'
p6644
sS'SKY'
p6645
S'SHIKARA'
p6646
sS'IGU'
p6647
S'IRUGUR'
p6648
sS'KEB'
p6649
S'KARAMBELI'
p6650
sS'KQK'
p6651
S'KOTIKULAM'
p6652
sS'PRWD'
p6653
S'PAREWADI'
p6654
sS'SKA'
p6655
S'SIKANDRA RAO'
p6656
sS'BNXR'
p6657
S'BIDHAN NAGAR'
p6658
sS'SKB'
p6659
S'SHIKOHABAD JN'
p6660
sS'SKM'
p6661
S'SINGARAYAKONDA'
p6662
sS'WGA'
p6663
S'WAGHODA'
p6664
sS'SKN'
p6665
S'SRIKRISHN NAGAR'
p6666
sS'SKI'
p6667
S'SAKRI JN'
p6668
sS'KQI'
p6669
S'KALACHAND'
p6670
sS'MSDR'
p6671
S'MURSHADPUR'
p6672
sS'SKJ'
p6673
S'SAHIBPUR KML JN'
p6674
sS'BDTS'
p6675
S'BANDRA TERMINUS'
p6676
sS'MFC'
p6677
S'MONABARI'
p6678
sS'KJME'
p6679
S'KAJORAGRAM'
p6680
sS'JUD'
p6681
S'JAGADHRI'
p6682
sS'JUK'
p6683
S'JAULKA'
p6684
sS'MFJ'
p6685
S'MUFTIGANJ'
p6686
sS'IGP'
p6687
S'IGATPURI'
p6688
sS'MFL'
p6689
S'MISRAULI'
p6690
sS'MFM'
p6691
S'MAHALAM'
p6692
sS'JUL'
p6693
S'JHULASAN'
p6694
sS'KQN'
p6695
S'KODAIKANAL ROAD'
p6696
sS'JUR'
p6697
S'JUTTURU'
p6698
sS'MFQ'
p6699
S'MAHROI'
p6700
sS'GEA'
p6701
S'GHATERA'
p6702
sS'AONI'
p6703
S'AMONI'
p6704
sS'GSO'
p6705
S'GHASO'
p6706
sS'GED'
p6707
S'GULEDAGUDDA RD'
p6708
sS'GEK'
p6709
S'GEGAL AKHRI'
p6710
sS'UHL'
p6711
S'UNA HIMACHAL'
p6712
sS'AMNR'
p6713
S'AMMANUR'
p6714
sS'MHN'
p6715
S'MAHANADI'
p6716
sS'JGI'
p6717
S'JHAGADIYA JN'
p6718
sS'DDY'
p6719
S'DUDWINDI'
p6720
sS'DDX'
p6721
S'DHAMDHAMIA'
p6722
sS'KAMG'
p6723
S'KAMAKHYAGURI'
p6724
sS'JGM'
p6725
S'JHARGRAM'
p6726
sS'JGN'
p6727
S'JAGRAON'
p6728
sS'BRMP'
p6729
S'BIRMITRAPUR'
p6730
sS'DDR'
p6731
S'DADAR'
p6732
sS'MHD'
p6733
S'MHMDVD KHEDA RD'
p6734
sS'DDP'
p6735
S'DAUDPUR'
p6736
sS'DDW'
p6737
S'DUDWA'
p6738
sS'DDV'
p6739
S'DADHDEVI'
p6740
sS'JGF'
p6741
S'JOGIDIH'
p6742
sS'MKDI'
p6743
S'MAKUDI'
p6744
sS'DDJ'
p6745
S'DUM DUM'
p6746
sS'GKK'
p6747
S'GOKAK ROAD'
p6748
sS'BRMD'
p6749
S'BIRAMDIH'
p6750
sS'GKM'
p6751
S'GUNDALUKAMMA'
p6752
sS'DDN'
p6753
S'DEHRADUN'
p6754
sS'DDL'
p6755
S'DHANDARI KALAN'
p6756
sS'BRMO'
p6757
S'BERMO'
p6758
sS'DDA'
p6759
S'DURAUNDHA JN'
p6760
sS'GKB'
p6761
S'GHATAKA VARANA'
p6762
sS'DDE'
p6763
S'DONDAICHA'
p6764
sS'JGW'
p6765
S'JOGIWALA'
p6766
sS'SSIA'
p6767
S'SUISA'
p6768
sS'ANE'
p6769
S'ANANTARAJUPET'
p6770
sS'ANF'
p6771
S'ANANDAPURAM'
p6772
sS'ANG'
p6773
S'AHMADNAGAR'
p6774
sS'NVS'
p6775
S'NAVSARI'
p6776
sS'ANA'
p6777
S'ASLANA'
p6778
sS'ANB'
p6779
S'AMMANABROLU'
p6780
sS'SBY'
p6781
S'SOLAN BREWERY'
p6782
sS'ANO'
p6783
S'ANJANI'
p6784
sS'ANH'
p6785
S'ANKORAH AKORHA'
p6786
sS'DSL'
p6787
S'DESWAL'
p6788
sS'ANK'
p6789
S'ANKAI'
p6790
sS'NVG'
p6791
S'NAWAGAON'
p6792
sS'PLA'
p6793
S'PALIA'
p6794
sS'ANV'
p6795
S'ANNAVARAM'
p6796
sS'UGWE'
p6797
S'UGWE'
p6798
sS'ANP'
p6799
S'ANANDTANDAVPUR'
p6800
sS'SOL'
p6801
S'SOLAN'
p6802
sS'ANR'
p6803
S'ANARA'
p6804
sS'GDYA'
p6805
S'GHORADONGRI'
p6806
sS'ANY'
p6807
S'ARUMUGANERI'
p6808
sS'MRND'
p6809
S'MORINDA'
p6810
sS'GWD'
p6811
S'GADWAL'
p6812
sS'TNM'
p6813
S'TIRUVANNAMALAI'
p6814
sS'KHS'
p6815
S'KHARSIA'
p6816
sS'GWA'
p6817
S'GANJ DUNDWARA'
p6818
sS'TKWD'
p6819
S'TIKEKARWADI'
p6820
sS'EKMA'
p6821
S'EKMA'
p6822
sS'SQL'
p6823
S'SONTALAI'
p6824
sS'GWM'
p6825
S'GANNAVARAM'
p6826
sS'BDBA'
p6827
S'BADABANDHA'
p6828
sS'TMZ'
p6829
S'TAMLUK'
p6830
sS'MRDW'
p6831
S'MURDESHWAR'
p6832
sS'KHU'
p6833
S'KHURHAND'
p6834
sS'DEMU'
p6835
S'DEMU'
p6836
sS'TMD'
p6837
S'TALMADLA'
p6838
sS'SXN'
p6839
S'SONAKHAN'
p6840
sS'GWS'
p6841
S'GAUSHALA'
p6842
sS'DWNA'
p6843
S'DIWANA'
p6844
sS'TML'
p6845
S'TENMALAI'
p6846
sS'NNR'
p6847
S'NARAYANPUR'
p6848
sS'KRND'
p6849
S'KHORASON ROAD'
p6850
sS'KDL'
p6851
S'KANKROLI'
p6852
sS'KDM'
p6853
S'KESAMUDRAM'
p6854
sS'KDN'
p6855
S'KUDATINI'
p6856
sS'KDO'
p6857
S'KADAKOLA'
p6858
sS'KOAA'
p6859
S'KOLKATA'
p6860
sS'KDI'
p6861
S'KUNDLI'
p6862
sS'HWH'
p6863
S'HOWRAH JN'
p6864
sS'DSB'
p6865
S'SADAR BAZAR'
p6866
sS'KDF'
p6867
S'KHUNDAUR'
p6868
sS'DBRG'
p6869
S'DIBRUGARH'
p6870
sS'KALE'
p6871
S'KALAY'
p6872
sS'KHJ'
p6873
S'KHAJRAHA'
p6874
sS'NJM'
p6875
S'N J RAMANAL'
p6876
sS'KKDE'
p6877
S'KURUKSHETRA JN'
p6878
sS'PKW'
p6879
S'PILKHUA'
p6880
sS'KVDU'
p6881
S'KADAVAKUDURU'
p6882
sS'NJP'
p6883
S'NEW JALPAIGURI'
p6884
sS'BHME'
p6885
S'BHANDARIDAH'
p6886
sS'KDZ'
p6887
S'KANDAGHAT'
p6888
sS'NJT'
p6889
S'NAGER COIL TOWN'
p6890
sS'BSWD'
p6891
S'BHEMSWADI'
p6892
sS'KDU'
p6893
S'KADAMBUR'
p6894
sS'HWT'
p6895
S'HANWANT'
p6896
sS'KDP'
p6897
S'KONDAPURAM'
p6898
sS'KDQ'
p6899
S'KADIPUR'
p6900
sS'WRS'
p6901
S'WARIS ALEGANJ'
p6902
sS'NDAE'
p6903
S'NABADWIP DHAM'
p6904
sS'KRY'
p6905
S'KADIRI'
p6906
sS'KHN'
p6907
S'KHANYAN'
p6908
sS'HER'
p6909
S'HER'
p6910
sS'NDN'
p6911
S'NARDANA'
p6912
sS'KRR'
p6913
S'KARUR'
p6914
sS'KRS'
p6915
S'KARISATH'
p6916
sS'BALE'
p6917
S'BALE'
p6918
sS'KRQ'
p6919
S'KARARI'
p6920
sS'KRV'
p6921
S'KARAVADI'
p6922
sS'KRW'
p6923
S'KHARWA'
p6924
sS'PDU'
p6925
S'PONDURU'
p6926
sS'KRU'
p6927
S'KHERALU'
p6928
sS'KRJ'
p6929
S'KHURJA JN'
p6930
sS'KRH'
p6931
S'KHAIRTHAL'
p6932
sS'NDZ'
p6933
S'NIDIGALLU'
p6934
sS'ATRU'
p6935
S'ATRU'
p6936
sS'HEB'
p6937
S'HEBBAL'
p6938
sS'VLE'
p6939
S'VELLACHERUVU'
p6940
sS'HEM'
p6941
S'HIMAYATNAGAR'
p6942
sS'BALU'
p6943
S'BALUGAON'
p6944
sS'KRA'
p6945
S'KAREPALLI'
p6946
sS'NDU'
p6947
S'NADAUJ'
p6948
sS'BALR'
p6949
S'BAITALPUR'
p6950
sS'KRD'
p6951
S'KARAD'
p6952
sS'KRE'
p6953
S'KARTARPUR'
p6954
sS'BJG'
p6955
S'BAJRANGARH'
p6956
sS'BJF'
p6957
S'BIJNI'
p6958
sS'BJE'
p6959
S'BHOJUDIH JN'
p6960
sS'BJD'
p6961
S'BAREJADI'
p6962
sS'SMZ'
p6963
S'SARAI MIR'
p6964
sS'SKLR'
p6965
S'SAKLESHPUR'
p6966
sS'BJA'
p6967
S'BIJROTHA'
p6968
sS'MRDD'
p6969
S'MORDAR'
p6970
sS'BJO'
p6971
S'BIJNOR'
p6972
sS'BJN'
p6973
S'BEJNAL'
p6974
sS'MXY'
p6975
S'MAHUARIYA'
p6976
sS'BJK'
p6977
S'BIJORA'
p6978
sS'TRAH'
p6979
S'TARANGA HILL'
p6980
sS'BJI'
p6981
S'BIJAULI'
p6982
sS'HPLE'
p6983
S'HATPURAINI'
p6984
sS'BJW'
p6985
S'BAJVA'
p6986
sS'SRJM'
p6987
S'SIRJAM'
p6988
sS'BJU'
p6989
S'BARAUNI JN'
p6990
sS'DSNI'
p6991
S'DAUSNI'
p6992
sS'BJR'
p6993
S'BARRAJPUR'
p6994
sS'BJQ'
p6995
S'BAGHORA'
p6996
sS'BJP'
p6997
S'BIJAPUR'
p6998
sS'STSN'
p6999
S'SHAITANSINGHNGR'
p7000
sS'SCH'
p7001
S'SACHIN'
p7002
sS'MXT'
p7003
S'MALAKPET KCG'
p7004
sS'KRNT'
p7005
S'KURNOOL CITY'
p7006
sS'WSA'
p7007
S'WADSA'
p7008
sS'HYB'
p7009
S'HYDERABAD DECAN'
p7010
sS'WSB'
p7011
S'WASHIMBE'
p7012
sS'KKRD'
p7013
S'KIKAKUI ROAD'
p7014
sS'HYG'
p7015
S'HOOGHLY GHAT'
p7016
sS'UNDI'
p7017
S'UNDI'
p7018
sS'MXR'
p7019
S'MAHUR'
p7020
sS'WSJ'
p7021
S'WANSJALIYA'
p7022
sS'RCP'
p7023
S'RAMACHANDRAPUR'
p7024
sS'KKRM'
p7025
S'KAIKORAM'
p7026
sS'SVM'
p7027
S'SANVERDAM CHUCH'
p7028
sS'HYT'
p7029
S'HAIAGHAT'
p7030
sS'RNJD'
p7031
S'RANJANGAON RD'
p7032
sS'RCJ'
p7033
S'RANYAL JASMIYA'
p7034
sS'SRVX'
p7035
S'SURAVALI'
p7036
sS'ARCL'
p7037
S'ARUNACHAL'
p7038
sS'KLDI'
p7039
S'KALDHARI'
p7040
sS'PJB'
p7041
S'PANIAJOB'
p7042
sS'STUR'
p7043
S'SATULUR'
p7044
sS'MXH'
p7045
S'MAKHU'
p7046
sS'SVH'
p7047
S'SONADANGA'
p7048
sS'SVI'
p7049
S'SAGARPALI'
p7050
sS'MXL'
p7051
S'MOKHOLI'
p7052
sS'LLPR'
p7053
S'LALIT LAKSHMIPR'
p7054
sS'FAN'
p7055
S'FATEHNAGAR'
p7056
sS'SRO'
p7057
S'SIRATHU'
p7058
sS'UHR'
p7059
S'UNCHHERA'
p7060
sS'SRNT'
p7061
S'SARNATH'
p7062
sS'TIR'
p7063
S'TIRUR'
p7064
sS'LEDO'
p7065
S'LEDO'
p7066
sS'TSI'
p7067
S'TENKASI JN'
p7068
sS'SDLE'
p7069
S'SWADINPUR'
p7070
sS'STL'
p7071
S'SIMULTALA'
p7072
sS'INJ'
p7073
S'INNANJE'
p7074
sS'GJUT'
p7075
S'GANGSAR JAITU'
p7076
sS'LLR'
p7077
S'LALPUR'
p7078
sS'VKR'
p7079
S'VENKATNAGRA'
p7080
sS'BJIH'
p7081
S'BIJULI HALT'
p7082
sS'VKT'
p7083
S'VENKATACHALAM'
p7084
sS'SMET'
p7085
S'SHIMOGA TOWN'
p7086
sS'ADRA'
p7087
S'ADRA JN'
p7088
sS'VKI'
p7089
S'VENKATAGIRI'
p7090
sS'RPR'
p7091
S'RAGHUNATHPUR'
p7092
sS'VPZ'
p7093
S'VAILAPUZHA'
p7094
sS'THUR'
p7095
S'THURIA'
p7096
sS'RPD'
p7097
S'RUPAUND'
p7098
sS'IPPM'
p7099
S'IPURUPALEM'
p7100
sS'SVA'
p7101
S'SUWASRA'
p7102
sS'DHMZ'
p7103
S'DHOLA MAZRA'
p7104
sS'UAM'
p7105
S'UDAGAMANDALAM'
p7106
sS'BIWK'
p7107
S'BISALWAS KALAN'
p7108
sS'MRPR'
p7109
S'MAU RANIPUR'
p7110
sS'SBLT'
p7111
S'SHRIBDRYA LATHI'
p7112
sS'MKPR'
p7113
S'MUKTAPUR'
p7114
sS'WDLN'
p7115
S'WADWAL NAGNATH'
p7116
sS'MKPT'
p7117
S'MALIKPETH'
p7118
sS'RAJR'
p7119
S'RAJUR'
p7120
sS'YTL'
p7121
S'YAVATMAL'
p7122
sS'SBLJ'
p7123
S'SHRI BALAJI'
p7124
sS'PURI'
p7125
S'PURI'
p7126
sS'PJR'
p7127
S'PANGRI'
p7128
sS'AGTL'
p7129
S'AGARTALA'
p7130
sS'KNPR'
p7131
S'KENDRAPARA ROAD'
p7132
sS'POU'
p7133
S'PADRAUNA'
p7134
sS'SVX'
p7135
S'SAVARDA'
p7136
sS'CCT'
p7137
S'KAKINADA TOWN'
p7138
sS'VMU'
p7139
S'VEMURU'
p7140
sS'DOH'
p7141
S'DHODRA MOHAR'
p7142
sS'DARI'
p7143
S'DHARI JN'
p7144
sS'SRKI'
p7145
S'SEMARKHERI'
p7146
sS'CCI'
p7147
S'CHINNEKUNTAPALI'
p7148
sS'CCH'
p7149
S'CHINCHVAD'
p7150
sS'CCK'
p7151
S'CHICHAKI'
p7152
sS'SVW'
p7153
S'SHIVNI SHIVAPUR'
p7154
sS'DARA'
p7155
S'DARA'
p7156
sS'MAHE'
p7157
S'MAHE'
p7158
sS'CCA'
p7159
S'CHIGICHERLA'
p7160
sS'SVT'
p7161
S'SHIVPURA'
p7162
sS'KNPL'
p7163
S'KANDANUR P VAYA'
p7164
sS'MYY'
p7165
S'MAYYANAD'
p7166
sS'MYX'
p7167
S'METYAL SOHAR'
p7168
sS'PIJ'
p7169
S'PIJ'
p7170
sS'SBPD'
p7171
S'SAMBALPUR ROAD'
p7172
sS'PIL'
p7173
S'PILER'
p7174
sS'PRLI'
p7175
S'PARLI VAIJNATH'
p7176
sS'POO'
p7177
S'POTLAPADU'
p7178
sS'MYP'
p7179
S'MUNDILYAMPAKKAM'
p7180
sS'MYS'
p7181
S'MYSORE JN'
p7182
sS'MYR'
p7183
S'MAIHAR'
p7184
sS'SUNR'
p7185
S'SURENDRANAGAR'
p7186
sS'MEC'
p7187
S'MERTA CITY'
p7188
sS'BMKJ'
p7189
S'BHIMKHOJ'
p7190
sS'MYK'
p7191
S'MAYAKONDA'
p7192
sS'BMKI'
p7193
S'BAPUDM MOTIHARI'
p7194
sS'MYM'
p7195
S'MEMARI'
p7196
sS'MYL'
p7197
S'MALLIYALA'
p7198
sS'GLA'
p7199
S'GARLA'
p7200
sS'MYA'
p7201
S'MANDYA'
p7202
sS'KALN'
p7203
S'KALANA'
p7204
sS'ASKN'
p7205
S'ASHOK NAGAR'
p7206
sS'PIT'
p7207
S'PALITANA'
p7208
sS'MYD'
p7209
S'MANDERDISA'
p7210
sS'BMKD'
p7211
S'BELLAMKONDA'
p7212
sS'POK'
p7213
S'POKRAN'
p7214
sS'CAER'
p7215
S'CHHANERA'
p7216
sS'RAKL'
p7217
S'RETHORAKALAN'
p7218
sS'DOA'
p7219
S'DORAHA'
p7220
sS'TAT'
p7221
S'TUMMANAMGUTTA'
p7222
sS'BRPL'
p7223
S'BARPALI'
p7224
sS'CQA'
p7225
S'CHERUKARA'
p7226
sS'TBX'
p7227
S'TILBHUM'
p7228
sS'MOMU'
p7229
S'MOLAKALMURU'
p7230
sS'DOG'
p7231
S'DONIGAL'
p7232
sS'GRKN'
p7233
S'GORAKHNATH'
p7234
sS'POF'
p7235
S'PIPARSAND'
p7236
sS'KTM'
p7237
S'KUTRALAM'
p7238
sS'SMR'
p7239
S'SAMDHARI JN'
p7240
sS'AKU'
p7241
S'ANGALAKUDURU'
p7242
sS'DUBH'
p7243
S'DUBAHA'
p7244
sS'AKT'
p7245
S'AKALTARA'
p7246
sS'GRKA'
p7247
S'GURHA KEMLA'
p7248
sS'SMO'
p7249
S'SEMAPUR'
p7250
sS'OM'
p7251
S'OMKARESHWAR RD'
p7252
sS'PT'
p7253
S'PATLI'
p7254
sS'RQP'
p7255
S'RADHAKISHOREPUR'
p7256
sS'GLY'
p7257
S'GOLLAPALLY'
p7258
sS'MHL'
p7259
S'MAHWAL'
p7260
sS'RPM'
p7261
S'ROYAPURAM'
p7262
sS'KH'
p7263
S'KAHILIYA'
p7264
sS'ALER'
p7265
S'ALER'
p7266
sS'GNR'
p7267
S'GADIGANURU'
p7268
sS'SML'
p7269
S'SIMLA'
p7270
sS'GLGT'
p7271
S'GOLAGHAT'
p7272
sS'TRDI'
p7273
S'TIRODI'
p7274
sS'KRHA'
p7275
S'KORAHIA'
p7276
sS'UBC'
p7277
S'AMBALA CITY'
p7278
sS'UBL'
p7279
S'HUBLI JN'
p7280
sS'OV'
p7281
S'OTIVAKKAM'
p7282
sS'SKGH'
p7283
S'SAKTESGARH'
p7284
sS'RQJ'
p7285
S'RNINGR JLPAIGRI'
p7286
sS'VXD'
p7287
S'VADOD'
p7288
sS'SUMR'
p7289
S'SUMER'
p7290
sS'JDL'
p7291
S'JAGDEVWALA'
p7292
sS'CUPJ'
p7293
S'CUDDALORE PORT'
p7294
sS'JDN'
p7295
S'JAGUDAN'
p7296
sS'JDI'
p7297
S'JHARRADIH'
p7298
sS'JDH'
p7299
S'JAM JODHPUR JN'
p7300
sS'DGLE'
p7301
S'DHULIAN GANGA'
p7302
sS'MWT'
p7303
S'MARWAR LOHWAT'
p7304
sS'DEP'
p7305
S'DEPALSAR'
p7306
sS'DER'
p7307
S'DADRI'
p7308
sS'DES'
p7309
S'DESARI'
p7310
sS'GJS'
p7311
S'GAJSINGHPUR'
p7312
sS'DEV'
p7313
S'DEVARAYI'
p7314
sS'DEW'
p7315
S'DEWALGAON'
p7316
sS'GJN'
p7317
S'GAJNER'
p7318
sS'KLOD'
p7319
S'KELOD'
p7320
sS'GJL'
p7321
S'GAJRAULA JN'
p7322
sS'BRNA'
p7323
S'BERAWANYA'
p7324
sS'DEL'
p7325
S'DENDULURU'
p7326
sS'SALR'
p7327
S'SALUR'
p7328
sS'BRND'
p7329
S'BORIDAND'
p7330
sS'MWD'
p7331
S'MHASAVAD'
p7332
sS'MWK'
p7333
S'MORDAD TANDA'
p7334
sS'MWJ'
p7335
S'MARWASGRAM'
p7336
sS'DEB'
p7337
S'DEBAGRAM'
p7338
sS'DEC'
p7339
S'DELHI CANTT'
p7340
sS'DEE'
p7341
S'DELHI S ROHILLA'
p7342
sS'BPKA'
p7343
S'BHOPALKA'
p7344
sS'DEG'
p7345
S'DELANG'
p7346
sS'AMI'
p7347
S'AMRAVATI'
p7348
sS'AMH'
p7349
S'AZAMGARH'
p7350
sS'FK'
p7351
S'FEROK'
p7352
sS'AMM'
p7353
S'ATIRAMPATTINAM'
p7354
sS'AML'
p7355
S'\x03\x01ALSAD'
p7356
sS'NWR'
p7357
S'NIWAR'
p7358
sS'BOKE'
p7359
S'BHOKE'
p7360
sS'FL'
p7361
S'PHULERA JN'
p7362
sS'AMC'
p7363
S'AMRITAPURA'
p7364
sS'AMB'
p7365
S'AMBODALA'
p7366
sS'BVNR'
p7367
S'BHAVANI NAGAR'
p7368
sS'AMG'
p7369
S'ALAMNAGAR'
p7370
sS'FM'
p7371
S'KCG FALAKNUMA'
p7372
sS'AMY'
p7373
S'AKATHUMURI'
p7374
sS'AMX'
p7375
S'AMLAKHURD'
p7376
sS'KVU'
p7377
S'KADAKAVUR'
p7378
sS'NWA'
p7379
S'NAGARWARA'
p7380
sS'NWB'
p7381
S'NIWAS ROAD'
p7382
sS'AMQ'
p7383
S'AMMUGUDA'
p7384
sS'AMP'
p7385
S'AHMADPUR JN'
p7386
sS'AMS'
p7387
S'AMAUSI'
p7388
sS'NWH'
p7389
S'NAWALGARH'
p7390
sS'AMW'
p7391
S'AMAN VADI'
p7392
sS'SQN'
p7393
S'SARAI KANSRAI'
p7394
sS'PRTL'
p7395
S'PIRTALA'
p7396
sS'SLS'
p7397
S'SALANPUR'
p7398
sS'DMGN'
p7399
S'DHAMALGAON'
p7400
sS'UPI'
p7401
S'UPLAI'
p7402
sS'VRD'
p7403
S'VIRDEL ROAD'
p7404
sS'RBS'
p7405
S'RUPBAS'
p7406
sS'KOM'
p7407
S'KODIKKALPALAIYM'
p7408
sS'MBB'
p7409
S'MURSHIDABAD'
p7410
sS'BLWR'
p7411
S'BILESHWAR'
p7412
sS'UPA'
p7413
S'UTTARPARA'
p7414
sS'VDL'
p7415
S'VITHISVARANKOL'
p7416
sS'MHAD'
p7417
S'MOHADI PRGN LNG'
p7418
sS'CBSA'
p7419
S'CHAIBASA'
p7420
sS'UPR'
p7421
S'USMANPUR'
p7422
sS'RAY'
p7423
S'RAY'
p7424
sS'VRLR'
p7425
S'VIRANI ALUR'
p7426
sS'TJD'
p7427
S'TAJPUR DEHMA'
p7428
sS'JADR'
p7429
S'JADAR'
p7430
sS'MDL'
p7431
S'MANDAL'
p7432
sS'ANGL'
p7433
S'ANGUL'
p7434
sS'KVZ'
p7435
S'KAVALI'
p7436
sS'BNWC'
p7437
S'BHIWANI CITY'
p7438
sS'RJB'
p7439
S'RAJABERA'
p7440
sS'KHRS'
p7441
S'KHARESHWAR ROAD'
p7442
sS'KCNR'
p7443
S'KACHNARA ROAD'
p7444
sS'MNAE'
p7445
S'MANKAR'
p7446
sS'RBL'
p7447
S'RAE BARELI JN'
p7448
sS'KHRK'
p7449
S'KHARAK'
p7450
sS'KHRJ'
p7451
S'KUMBHRAJ'
p7452
sS'TKB'
p7453
S'TUPKADIH'
p7454
sS'BNWS'
p7455
S'BHANWASA'
p7456
sS'KNBR'
p7457
S'KANAIBAZAR'
p7458
sS'KLRE'
p7459
S'KHALARI'
p7460
sS'NEO'
p7461
S'NEORA'
p7462
sS'PED'
p7463
S'PIPARDAHI'
p7464
sS'HFZ'
p7465
S'HAFIZPETA'
p7466
sS'KUX'
p7467
S'KHIRSADOH JN'
p7468
sS'ACK'
p7469
S'ACHARAPAKKAM'
p7470
sS'BSP'
p7471
S'BILASPUR JN'
p7472
sS'NED'
p7473
S'H SAHIB NANDED'
p7474
sS'ACH'
p7475
S'ACHALGANJ'
p7476
sS'TUWA'
p7477
S'TUWA'
p7478
sS'KUR'
p7479
S'KHURDA ROAD JN'
p7480
sS'ACL'
p7481
S'ANCHELI'
p7482
sS'KUN'
p7483
S'KARNAL'
p7484
sS'KUK'
p7485
S'KORUKONDA'
p7486
sS'KUI'
p7487
S'KULALI'
p7488
sS'KUH'
p7489
S'KHACHROD'
p7490
sS'KUG'
p7491
S'KUSUGALI'
p7492
sS'KUF'
p7493
S'KAURHA'
p7494
sS'KUE'
p7495
S'KURSELA'
p7496
sS'KUD'
p7497
S'KUDACHI'
p7498
sS'HSRA'
p7499
S'HOSUR'
p7500
sS'HFG'
p7501
S'HAFLONG HILL'
p7502
sS'BSL'
p7503
S'BHUSAVAL JN'
p7504
sS'BKG'
p7505
S'BANKA GHAT'
p7506
sS'KON'
p7507
S'KUDALNAGAR'
p7508
sS'BKA'
p7509
S'BARKHERA'
p7510
sS'SMK'
p7511
S'SAMALKHA'
p7512
sS'ZRDE'
p7513
S'JIRADEI'
p7514
sS'BKL'
p7515
S'BONA KALU'
p7516
sS'RMNP'
p7517
S'RAMANNAPET'
p7518
sS'BKN'
p7519
S'BIKANER JN'
p7520
sS'BKO'
p7521
S'BINDKI ROAD'
p7522
sS'BKH'
p7523
S'BANKHEDI'
p7524
sS'BHTL'
p7525
S'BHATEL'
p7526
sS'BKJ'
p7527
S'BARKUR'
p7528
sS'NRO'
p7529
S'NAKODAR JN'
p7530
sS'BKU'
p7531
S'BHIKNUR'
p7532
sS'PRBZ'
p7533
S'PARSA BAZAR'
p7534
sS'BKP'
p7535
S'BAKHTIYARPUR JN'
p7536
sS'PRP'
p7537
S'PAHARPUR'
p7538
sS'MUGA'
p7539
S'MAHUGARHA'
p7540
sS'GGA'
p7541
S'GHOGA'
p7542
sS'BUDI'
p7543
S'BUNDI'
p7544
sS'LKD'
p7545
S'LAKODARA'
p7546
sS'BUDM'
p7547
S'BADMAL'
p7548
sS'BSI'
p7549
S'BASBARI'
p7550
sS'GILL'
p7551
S'GILL'
p7552
sS'LKE'
p7553
S'LAKHERI'
p7554
sS'KHTG'
p7555
S'KHATGAON'
p7556
sS'JSR'
p7557
S'JASRA'
p7558
sS'SJS'
p7559
S'SHAMLAJI ROAD'
p7560
sS'SJP'
p7561
S'SHUJALPUR'
p7562
sS'GGB'
p7563
S'GARHMUKTESAR BR'
p7564
sS'DHRR'
p7565
S'DHIRERA'
p7566
sS'SJT'
p7567
S'SHUJAATPUR'
p7568
sS'AADR'
p7569
S'AMB ANDAURA'
p7570
sS'MDR'
p7571
S'MADHIRA'
p7572
sS'DHRJ'
p7573
S'DHIRGANJ'
p7574
sS'KUTI'
p7575
S'KHUMTAI'
p7576
sS'SJL'
p7577
S'SGM JAGARLAMUDI'
p7578
sS'KNLP'
p7579
S'KANAMALO PALLE'
p7580
sS'GOPG'
p7581
S'GOPALGANJ'
p7582
sS'SJF'
p7583
S'SAJANVAR ROAD'
p7584
sS'GGO'
p7585
S'GORAM GHAT'
p7586
sS'CRLM'
p7587
S'CARMELARAM'
p7588
sS'GOPA'
p7589
S'GHOSIPURA'
p7590
sS'GDP'
p7591
S'GUDUPULLI'
p7592
sS'GDQ'
p7593
S'GODAMGURA'
p7594
sS'GDR'
p7595
S'GUDUR JN'
p7596
sS'GADH'
p7597
S'GOALDIH'
p7598
sS'GDU'
p7599
S'GUDRU HALT'
p7600
sS'GADJ'
p7601
S'GANDHINAGAR JPR'
p7602
sS'NVLN'
p7603
S'NAWALGOHAN'
p7604
sS'GDX'
p7605
S'GHOKSADANGA'
p7606
sS'BBAI'
p7607
S'BHADBHUNJA'
p7608
sS'JRL'
p7609
S'JHARILI'
p7610
sS'JRK'
p7611
S'JERUWA KHERA'
p7612
sS'JRJ'
p7613
S'JARGAON'
p7614
sS'JRI'
p7615
S'JHARIA'
p7616
sS'MEJ'
p7617
S'VANCHIMANIYACHI'
p7618
sS'JRW'
p7619
S'JORAMOW'
p7620
sS'GDA'
p7621
S'GODHRA JN'
p7622
sS'JRU'
p7623
S'CHIKJAJUR JN'
p7624
sS'JRT'
p7625
S'JARTI'
p7626
sS'JRS'
p7627
S'JORAVASAN'
p7628
sS'GDE'
p7629
S'GARLADINNE'
p7630
sS'JRQ'
p7631
S'JHAROKHAS'
p7632
sS'GDG'
p7633
S'GADAG JN'
p7634
sS'KDHI'
p7635
S'KALADEHI'
p7636
sS'GDI'
p7637
S'GUDGERI'
p7638
sS'SDGH'
p7639
S'SRI DUNGARGARH'
p7640
sS'BHTA'
p7641
S'BHATIYA'
p7642
sS'GDL'
p7643
S'GONDAL'
p7644
sS'GDM'
p7645
S'GUDMA'
p7646
sS'GDO'
p7647
S'GOVERDHAN'
p7648
sS'IDGH'
p7649
S'INDARGARH'
p7650
sS'TRS'
p7651
S'TARSARAI'
p7652
sS'DHND'
p7653
S'DHINDA'
p7654
sS'DHNE'
p7655
S'DHONE'
p7656
sS'LWR'
p7657
S'ALNAVAR JN'
p7658
sS'YNG'
p7659
S'YENUGONDA'
p7660
sS'MUUA'
p7661
S'MAHUAWA KHURD'
p7662
sS'JEP'
p7663
S'JEONATHPUR'
p7664
sS'MGE'
p7665
S'MIGRENDISA'
p7666
sS'YNK'
p7667
S'YELHANKA JN'
p7668
sS'CPLE'
p7669
S'CHINPAI'
p7670
sS'LKW'
p7671
S'LAKHEWALI'
p7672
sS'KGG'
p7673
S'KHAGARIA JN'
p7674
sS'CLPE'
p7675
S'CHALLAVARIPALLI'
p7676
sS'VDK'
p7677
S'VADAKANNIKAPURM'
p7678
sS'LKU'
p7679
S'LAL KUAN'
p7680
sS'ND'
p7681
S'NADIAD JN'
p7682
sS'TU'
p7683
S'TADIPATRI'
p7684
sS'TR'
p7685
S'TARU'
p7686
sS'MFP'
p7687
S'MUZAFFARPUR JN'
p7688
sS'FLD'
p7689
S'PHULAD'
p7690
sS'TN'
p7691
S'TUTICORIN'
p7692
sS'TL'
p7693
S'TILONIYA'
p7694
sS'TJ'
p7695
S'THANJAVUR'
p7696
sS'SLGR'
p7697
S'SIMALUGURI JN'
p7698
sS'KGF'
p7699
S'KATHGHAR'
p7700
sS'PBD'
p7701
S'PEDABRAMADVAM'
p7702
sS'VDN'
p7703
S'VADGAON'
p7704
sS'MFKA'
p7705
S'MUSAFIR KHANA'
p7706
sS'TA'
p7707
S'TANUR'
p7708
sS'AB'
p7709
S'AMBUR'
p7710
sS'AE'
p7711
S'AMRELI'
p7712
sS'AD'
p7713
S'ADONI'
p7714
sS'GVL'
p7715
S'GUDLAVALLERU'
p7716
sS'AF'
p7717
S'AGRA FORT'
p7718
sS'AI'
p7719
S'ADIPUR'
p7720
sS'AH'
p7721
S'ACHHNERA JN'
p7722
sS'AK'
p7723
S'AKOLA JN'
p7724
sS'AJ'
p7725
S'AJGAIN'
p7726
sS'AL'
p7727
S'ATTILI'
p7728
sS'DELO'
p7729
S'DEORAKOT'
p7730
sS'AN'
p7731
S'AMALNER'
p7732
sS'AP'
p7733
S'ASHOKAPURAM'
p7734
sS'AS'
p7735
S'ARJANSAR'
p7736
sS'AVLI'
p7737
S'ARAVALLI'
p7738
sS'AT'
p7739
S'ASNOTI'
p7740
sS'NASP'
p7741
S'NARASINGAPALLI'
p7742
sS'AY'
p7743
S'AYODHYA'
p7744
sS'BDCR'
p7745
S'BHADRACHALAM RD'
p7746
sS'SME'
p7747
S'SHIMOGA'
p7748
sS'AZ'
p7749
S'AZIMGANJ JN'
p7750
sS'TNK'
p7751
S'TIRUNELLIKAVAL'
p7752
sS'TDD'
p7753
S'TADEPALLIGUDEM'
p7754
sS'KGQ'
p7755
S'KASARAGOD'
p7756
sS'KGP'
p7757
S'KHARAGPUR JN'
p7758
sS'KGS'
p7759
S'KHONGSARA'
p7760
sS'WKR'
p7761
S'WANKANER JN'
p7762
sS'NKD'
p7763
S'NEKONDA'
p7764
sS'NKE'
p7765
S'NARKATIAGANJ JN'
p7766
sS'KGW'
p7767
S'KARIGANURU'
p7768
sS'QDN'
p7769
S'QADIAN'
p7770
sS'KGX'
p7771
S'KANGINHAL'
p7772
sS'NKJ'
p7773
S'NEW KATNI JN'
p7774
sS'KGZ'
p7775
S'KARUNGUZHI'
p7776
sS'NKM'
p7777
S'NAMKON'
p7778
sS'BVRM'
p7779
S'BHIMAVARAM JN'
p7780
sS'KGA'
p7781
S'KHAGA'
p7782
sS'NKR'
p7783
S'NIMAR KHERI'
p7784
sS'KGB'
p7785
S'KARGI ROAD'
p7786
sS'KGE'
p7787
S'KATANGI'
p7788
sS'KGD'
p7789
S'KALLIGUDI'
p7790
sS'BVRT'
p7791
S'BHIMAVARAM TOWN'
p7792
sS'BHBK'
p7793
S'BODHADI BUJRUG'
p7794
sS'KGI'
p7795
S'KENGERI'
p7796
sS'KGM'
p7797
S'KATHGODAM'
p7798
sS'KGL'
p7799
S'KUPGAL'
p7800
sS'KGN'
p7801
S'KURSEONG'
p7802
sS'CPH'
p7803
S'CHAMPA'
p7804
sS'DZA'
p7805
S'DASUYA'
p7806
sS'CPJ'
p7807
S'KAPTANGANJ JN'
p7808
sS'CPK'
p7809
S'CHAPARMUKH JN'
p7810
sS'CPL'
p7811
S'CHAKARLAPALLI'
p7812
sS'MVF'
p7813
S'MANABAR'
p7814
sS'CPN'
p7815
S'CHAMPANER RD JN'
p7816
sS'CPA'
p7817
S'KANPUR ANWRGANJ'
p7818
sS'CPD'
p7819
S'CHINCHPADA'
p7820
sS'CPE'
p7821
S'CHANDIPOSI'
p7822
sS'BKTL'
p7823
S'BAKTAL'
p7824
sS'PAS'
p7825
S'PASUR'
p7826
sS'KSTH'
p7827
S'KASHTI'
p7828
sS'BKTH'
p7829
S'BAIKUNTH'
p7830
sS'SMC'
p7831
S'SAMNAPUR'
p7832
sS'MVI'
p7833
S'MORBI'
p7834
sS'CPP'
p7835
S'CHIPURUPALLE'
p7836
sS'RAJP'
p7837
S'RAJAPUR ROAD'
p7838
sS'CPR'
p7839
S'CHHAPRA'
p7840
sS'CPS'
p7841
S'CHAND SIAU'
p7842
sS'CPT'
p7843
S'CHANNAPATNA'
p7844
sS'CPU'
p7845
S'CHOPAN'
p7846
sS'MRBL'
p7847
S'MURIBAHAL'
p7848
sS'ARPL'
p7849
S'AREPALLI HALT'
p7850
sS'KRKP'
p7851
S'KYARKOP'
p7852
sS'MANU'
p7853
S'MONU'
p7854
sS'LLJ'
p7855
S'LALGANJ'
p7856
sS'KTSH'
p7857
S'KOTMI SONAN HLT'
p7858
sS'PAW'
p7859
S'PANDABESWAR'
p7860
sS'NILE'
p7861
S'NIMTITA'
p7862
sS'DMPR'
p7863
S'DHARAMPUR'
p7864
sS'KMAH'
p7865
S'KAMATHE'
p7866
sS'MONR'
p7867
S'MOHANUR'
p7868
sS'MANG'
p7869
S'MAHANAGAR'
p7870
sS'UAA'
p7871
S'UPPALA'
p7872
sS'MANI'
p7873
S'MANI NAGAR'
p7874
sS'MANK'
p7875
S'MANKI'
p7876
sS'GLPT'
p7877
S'GOALPARA TOWN'
p7878
sS'SCKR'
p7879
S'SALICHAUKA ROAD'
p7880
sS'WRE'
p7881
S'WARDHA EAST'
p7882
sS'DUSI'
p7883
S'DUSI'
p7884
sS'TJP'
p7885
S'TAJPUR'
p7886
sS'SBP'
p7887
S'SAMBALPUR'
p7888
sS'ROP'
p7889
S'RUPSA JN'
p7890
sS'SNDD'
p7891
S'SINDHUDURG'
p7892
sS'NTZ'
p7893
S'NATHWANA'
p7894
sS'WRR'
p7895
S'WARORA'
p7896
sS'DTRD'
p7897
S'DIYATARA ROAD'
p7898
sS'VLCA'
p7899
S'VELALACHERUV HT'
p7900
sS'HZR'
p7901
S'HAFIZPUR'
p7902
sS'MNTT'
p7903
S'MULANTURUTTI'
p7904
sS'KTES'
p7905
S'KATNI SOUTH'
p7906
sS'KIKA'
p7907
S'KURWAI KETHORA'
p7908
sS'LAL'
p7909
S'LUSHALA'
p7910
sS'KYOP'
p7911
S'KOTTAPALLI'
p7912
sS'ROS'
p7913
S'RAJOSI'
p7914
sS'PAA'
p7915
S'PATAS'
p7916
sS'LAE'
p7917
S'LAKHOLI'
p7918
sS'KESR'
p7919
S'KESRI SINGHPUR'
p7920
sS'LAA'
p7921
S'LAKHPAT'
p7922
sS'LAC'
p7923
S'LACHHIPURA'
p7924
sS'SBZ'
p7925
S'SISWA BAZAR'
p7926
sS'BGSF'
p7927
S'BISUGIRSHARIF'
p7928
sS'JO'
p7929
S'JO JAGABOR'
p7930
sS'THV'
p7931
S'THERUBALI'
p7932
sS'LAT'
p7933
S'LATHI'
p7934
sS'LAU'
p7935
S'LADNUN'
p7936
sS'LAV'
p7937
S'LABHA'
p7938
sS'SAPE'
p7939
S'SAPE WAMNE'
p7940
sS'LAR'
p7941
S'LALITPUR'
p7942
sS'PAE'
p7943
S'PALANA'
p7944
sS'NDNI'
p7945
S'NIDHANI'
p7946
sS'SNKL'
p7947
S'SANKARANKOVIL'
p7948
sS'SGUJ'
p7949
S'SILIGURI JN'
p7950
sS'DTO'
p7951
S'DALTONGANJ'
p7952
sS'TNKU'
p7953
S'TANUKU'
p7954
sS'DTL'
p7955
S'DARRITOLA'
p7956
sS'BLTR'
p7957
S'BELTHARA ROAD'
p7958
sS'PSX'
p7959
S'PTNSNGI TWN HLT'
p7960
sS'PBM'
p7961
S'PAMBAN JN'
p7962
sS'PUA'
p7963
S'PULLA'
p7964
sS'MDKU'
p7965
S'MODUKURU'
p7966
sS'SLW'
p7967
S'SOHWAL'
p7968
sS'DTR'
p7969
S'DHAMTARI'
p7970
sS'DTP'
p7971
S'DIVITI PALLI'
p7972
sS'SNKR'
p7973
S'SANKA'
p7974
sS'DTV'
p7975
S'DHUTRA'
p7976
sS'SBB'
p7977
S'SAHIBABAD'
p7978
sS'PAK'
p7979
S'PAKALA JN'
p7980
sS'JJN'
p7981
S'JHUNJHUNUN'
p7982
sS'PBL'
p7983
S'PATHSALA'
p7984
sS'PAM'
p7985
S'PANAPAKAM'
p7986
sS'PUX'
p7987
S'PARASIA'
p7988
sS'GVN'
p7989
S'GODAVARI'
p7990
sS'SBPY'
p7991
S'SAMBALPUR CITY'
p7992
sS'SBG'
p7993
S'SAHIBGANJ JN'
p7994
sS'FTP'
p7995
S'FATEHPUR'
p7996
sS'FTS'
p7997
S'FATEHPUR SIKRI'
p7998
sS'NPNR'
p7999
S'NEPANAGAR'
p8000
sS'BGAE'
p8001
S'BALAGARH'
p8002
sS'KPKD'
p8003
S'KHAPRI KHEDA'
p8004
sS'MMR'
p8005
S'MANMAD JN'
p8006
sS'NTN'
p8007
S'NAR TOWN'
p8008
sS'KNSR'
p8009
S'KANASAR'
p8010
sS'OLA'
p8011
S'OLAKUR'
p8012
sS'RPAR'
p8013
S'RUPNAGAR'
p8014
sS'MME'
p8015
S'MUL MARORA'
p8016
sS'FTD'
p8017
S'FATEHABAD CH.JN'
p8018
sS'FTG'
p8019
S'FURSATGANJ'
p8020
sS'PUU'
p8021
S'PUNALUR'
p8022
sS'MQE'
p8023
S'MOHAMMADKHERA'
p8024
sS'GRJA'
p8025
S'GORINJA'
p8026
sS'SCQ'
p8027
S'SHAM CHAURASI'
p8028
sS'LIG'
p8029
S'LINGA'
p8030
sS'GSPR'
p8031
S'GOSALPUR'
p8032
sS'CHLK'
p8033
S'CHAVALKHEDE'
p8034
sS'MPA'
p8035
S'MANAPARAI'
p8036
sS'CBF'
p8037
S'COIMBATORE NRTH'
p8038
sS'CBG'
p8039
S'CHARBHUJA ROAD'
p8040
sS'CBE'
p8041
S'COIMBATORE JN'
p8042
sS'CBJ'
p8043
S'CLUTTERBUCKGANJ'
p8044
sS'CBK'
p8045
S'CHACHAURA BNGJ'
p8046
sS'CBH'
p8047
S'Chaube'
p8048
sS'SRJN'
p8049
S'SIRAJNAGAR H'
p8050
sS'CBN'
p8051
S'CHIT BARAGAON'
p8052
sS'CBM'
p8053
S'CUMBUM'
p8054
sS'MXN'
p8055
S'MARIANI JN'
p8056
sS'MXO'
p8057
S'MORTHALA'
p8058
sS'CBP'
p8059
S'CHIK BALLAPUR'
p8060
sS'MXK'
p8061
S'MANDRAK'
p8062
sS'CBT'
p8063
S'CHARBATIA'
p8064
sS'PUMU'
p8065
S'PENUMARRU'
p8066
sS'CBZ'
p8067
S'CHURAIBARI'
p8068
sS'PSAE'
p8069
S'PURBASTHALI'
p8070
sS'CBY'
p8071
S'KHAMBHAT'
p8072
sS'MHV'
p8073
S'MAHUVA JN'
p8074
sS'MSOD'
p8075
S'MASODHA'
p8076
sS'MXA'
p8077
S'MARAUDA'
p8078
sS'KOI'
p8079
S'KHODRI'
p8080
sS'BZU'
p8081
S'BETUL'
p8082
sS'GPAE'
p8083
S'GUPTIPARA'
p8084
sS'BZR'
p8085
S'BISRA'
p8086
sS'SANR'
p8087
S'SARDARNAGAR'
p8088
sS'SHNR'
p8089
S'SHADNAGAR'
p8090
sS'PNYA'
p8091
S'PANIAHWA'
p8092
sS'SMU'
p8093
S'SAMBHU'
p8094
sS'SMT'
p8095
S'SALAMATPUR'
p8096
sS'GIMB'
p8097
S'GANDHIDHAM BG'
p8098
sS'BZY'
p8099
S'BASAI'
p8100
sS'AWR'
p8101
S'ALWAR'
p8102
sS'BZG'
p8103
S'BILGA'
p8104
sS'FA'
p8105
S'FALNA'
p8106
sS'KOJ'
p8107
S'KOKRAJHAR'
p8108
sS'FD'
p8109
S'FAIZABAD JN'
p8110
sS'MQO'
p8111
S'MUNROTURUTTU'
p8112
sS'SMI'
p8113
S'SITAMARHI'
p8114
sS'BZO'
p8115
S'BARSOLA'
p8116
sS'BZN'
p8117
S'BAGNAN'
p8118
sS'BZM'
p8119
S'BHIMSEN'
p8120
sS'SMD'
p8121
S'CHARANMAHADEVI'
p8122
sS'BZK'
p8123
S'BHAINI KHURD'
p8124
sS'DJKR'
p8125
S'DOLAJI KA KHERA'
p8126
sS'MGRL'
p8127
S'MANGROLLA'
p8128
sS'CROA'
p8129
S'CHAUTARA'
p8130
sS'MDJ'
p8131
S'MUHAMMADGANJ'
p8132
sS'GGT'
p8133
S'GHUNGHUTI'
p8134
sS'MDH'
p8135
S'MANDHAR'
p8136
sS'JSG'
p8137
S'JHARSUGUDA JN'
p8138
sS'MDN'
p8139
S'MIDNAPORE'
p8140
sS'KOO'
p8141
S'KHUSROPUR'
p8142
sS'GGS'
p8143
S'GHUGUS'
p8144
sS'GGR'
p8145
S'GANGRAR'
p8146
sS'JSM'
p8147
S'JAISALMER'
p8148
sS'BRYA'
p8149
S'BARHIYA'
p8150
sS'BAQ'
p8151
S'GANJ BASODA'
p8152
sS'JSH'
p8153
S'JASWANTGARH'
p8154
sS'JSI'
p8155
S'JASALI'
p8156
sS'MDE'
p8157
S'MAKHDUMPUR GAYA'
p8158
sS'GGD'
p8159
S'GULLAGUDA'
p8160
sS'JSV'
p8161
S'JARANDESHWAR'
p8162
sS'KKDI'
p8163
S'KARAIKKUDI JN'
p8164
sS'BDRL'
p8165
S'BYADARAHALLI'
p8166
sS'MDVL'
p8167
S'MANDAVALLI'
p8168
sS'GGC'
p8169
S'GANGAPUR CITY'
p8170
sS'AMLA'
p8171
S'AMLA JN'
p8172
sS'GGM'
p8173
S'GORA GHUMA'
p8174
sS'MDS'
p8175
S'MANDASOR'
p8176
sS'BONA'
p8177
S'BOINDA'
p8178
sS'GGN'
p8179
S'GURGAON'
p8180
sS'KZTW'
p8181
S'KULITTURAI WEST'
p8182
sS'MDW'
p8183
S'MARWAR MUNDWA'
p8184
sS'NGHW'
p8185
S'NAGESHWADI HALT'
p8186
sS'AMLI'
p8187
S'AMLI'
p8188
sS'JER'
p8189
S'JALESWAR'
p8190
sS'JES'
p8191
S'JAITSAR'
p8192
sS'GNJ'
p8193
S'GUNJI'
p8194
sS'LUSA'
p8195
S'LUSA'
p8196
sS'MVV'
p8197
S'MAHESHI'
p8198
sS'MVW'
p8199
S'MALLIVIDU'
p8200
sS'CHBN'
p8201
S'CHANDKHIRA BAGN'
p8202
sS'NR'
p8203
S'NIPHAD'
p8204
sS'KCG'
p8205
S'KACHEGUDA'
p8206
sS'DFR'
p8207
S'DEOGAN ROAD'
p8208
sS'KQR'
p8209
S'KODERMA'
p8210
sS'LKKD'
p8211
S'LAKKADKOT'
p8212
sS'CHBT'
p8213
S'CHAKARBHATHA'
p8214
sS'MVD'
p8215
S'MULVAD'
p8216
sS'CHBR'
p8217
S'CHAURE BAZAR'
p8218
sS'KRBA'
p8219
S'KORBA'
p8220
sS'MVG'
p8221
S'MALIGURA'
p8222
sS'BPHB'
p8223
S'BHILAI PWR HS'
p8224
sS'KCA'
p8225
S'KUCHMAN'
p8226
sS'MVJ'
p8227
S'MAVLI JN'
p8228
sS'TOU'
p8229
S'TELAPROLU'
p8230
sS'MVL'
p8231
S'MALAVLI'
p8232
sS'BBPM'
p8233
S'BALABHADRAPURAM'
p8234
sS'MVN'
p8235
S'MILAVITTAN'
p8236
sS'MVO'
p8237
S'MANWATH ROAD'
p8238
sS'ALN'
p8239
S'ALANDI'
p8240
sS'ALM'
p8241
S'ALAMANDA'
p8242
sS'ALJ'
p8243
S'ALIGANJ'
p8244
sS'PLPM'
p8245
S'PALAPPURAM'
p8246
sS'SJNP'
p8247
S'SUJANPUR'
p8248
sS'ALD'
p8249
S'ALLAHABAD JN'
p8250
sS'ALB'
p8251
S'ALIA BADA'
p8252
sS'NTW'
p8253
S'NANJANGUD TOWN'
p8254
sS'NTV'
p8255
S'NAUTANWA'
p8256
sS'TIBI'
p8257
S'TIBI'
p8258
sS'KCM'
p8259
S'KALASUMUDRAM'
p8260
sS'TOI'
p8261
S'TAMKUHI ROAD'
p8262
sS'PAGM'
p8263
S'PENNADA AGRHRM'
p8264
sS'SNV'
p8265
S'SONDAD'
p8266
sS'ALY'
p8267
S'ALLAHABAD CITY'
p8268
sS'ALW'
p8269
S'ALWAL'
p8270
sS'ALU'
p8271
S'ARIYALUR'
p8272
sS'GNH'
p8273
S'GANGAKHER'
p8274
sS'RPAN'
p8275
S'RANGAPARA NORTH'
p8276
sS'GQL'
p8277
S'GURLA'
p8278
sS'TRT'
p8279
S'TIRUTTANI'
p8280
sS'VRV'
p8281
S'VIRAVADA'
p8282
sS'YA'
p8283
S'YERRAGUNTLA'
p8284
sS'KCI'
p8285
S'KALLKIRI'
p8286
sS'YG'
p8287
S'YADGIR'
p8288
sS'HTJ'
p8289
S'HATHRAS ROAD'
p8290
sS'TOK'
p8291
S'THOKUR'
p8292
sS'SKPA'
p8293
S'SHRIKALYANPURA'
p8294
sS'GOVR'
p8295
S'GOVINDNAGAR'
p8296
sS'KSWR'
p8297
S'KALMESHWAR'
p8298
sS'SMBL'
p8299
S'SIMBHOOLI'
p8300
sS'BAO'
p8301
S'BANMOR'
p8302
sS'YP'
p8303
S'ERRUPALEM'
p8304
sS'WL'
p8305
S'WARANGAL'
p8306
sS'ERN'
p8307
S'ERNAKULAM TOWN'
p8308
sS'TOD'
p8309
S'TALOD'
p8310
sS'MITA'
p8311
S'MITHA'
p8312
sS'HIP'
p8313
S'HALDIPADA'
p8314
sS'PMU'
p8315
S'PARMANANDPUR'
p8316
sS'HIR'
p8317
S'HARINAGAR'
p8318
sS'KFU'
p8319
S'KOHAND'
p8320
sS'SOT'
p8321
S'SHOHRATGARH'
p8322
sS'KFP'
p8323
S'KUKRA KHAPA'
p8324
sS'NHM'
p8325
S'NANDOL DEHEGAM'
p8326
sS'VKH'
p8327
S'VIKHRAN ROAD'
p8328
sS'NHN'
p8329
S'NIGOHAN'
p8330
sS'NHH'
p8331
S'NIHALGARH'
p8332
sS'NHK'
p8333
S'NAHARKATIYA'
p8334
sS'CTTP'
p8335
S'CHITRAPUR (H)'
p8336
sS'KFF'
p8337
S'KOLDA'
p8338
sS'NHT'
p8339
S'NALHATI JN'
p8340
sS'KFD'
p8341
S'KARANJADI'
p8342
sS'SLH'
p8343
S'SILIARI'
p8344
sS'VLYN'
p8345
S'VALLABH VDYANGR'
p8346
sS'ATNR'
p8347
S'AWATARNAGAR'
p8348
sS'HIJ'
p8349
S'HIJILLI'
p8350
sS'KOV'
p8351
S'KIRLOSKARVADI'
p8352
sS'HIL'
p8353
S'HILSA'
p8354
sS'SGNR'
p8355
S'SHRI GANGANAGAR'
p8356
sS'NOK'
p8357
S'NOKHA'
p8358
sS'KCP'
p8359
S'KALGUPUR'
p8360
sS'RGDA'
p8361
S'RAYAGADA'
p8362
sS'KFV'
p8363
S'KUNDARA EAST'
p8364
sS'ABB'
p8365
S'ABADA'
p8366
sS'ABD'
p8367
S'AMBLI ROAD'
p8368
sS'KTY'
p8369
S'KOTTURU'
p8370
sS'HGY'
p8371
S'HOOGHLY'
p8372
sS'ABH'
p8373
S'AMBARNATH'
p8374
sS'ABI'
p8375
S'AMBATURAI'
p8376
sS'HGT'
p8377
S'HINGANGHAT'
p8378
sS'KTW'
p8379
S'KOTDWARA'
p8380
sS'HGR'
p8381
S'HEMAGIRI'
p8382
sS'KFT'
p8383
S'KAJRI'
p8384
sS'KTR'
p8385
S'KOTHAR'
p8386
sS'YGL'
p8387
S'YELGUR'
p8388
sS'ABP'
p8389
S'AKBARPUR'
p8390
sS'BAND'
p8391
S'BANASWADI'
p8392
sS'ABR'
p8393
S'ABU ROAD'
p8394
sS'ABS'
p8395
S'ABOHAR'
p8396
sS'KTH'
p8397
S'KATRASGARH'
p8398
sS'KTI'
p8399
S'KANTI'
p8400
sS'HGH'
p8401
S'HAIDERGARH'
p8402
sS'HGI'
p8403
S'HAGARI'
p8404
sS'KTD'
p8405
S'KANTADIH'
p8406
sS'JGNR'
p8407
S'JOGENDRANAGAR'
p8408
sS'ABZ'
p8409
S'ADGAON BUZURG'
p8410
sS'SNVR'
p8411
S'SANVATSAR'
p8412
sS'BANI'
p8413
S'BANI'
p8414
sS'KTA'
p8415
S'KUSHTALA'
p8416
sS'NZM'
p8417
S'H NIZAMUDDIN'
p8418
sS'NRX'
p8419
S'NOADAR DHAL'
p8420
sS'BHI'
p8421
S'BAHERI'
p8422
sS'JIND'
p8423
S'JIND JN'
p8424
sS'BSGN'
p8425
S'BASUGAON'
p8426
sS'BHL'
p8427
S'BHILWARA'
p8428
sS'SWNI'
p8429
S'SIWANI'
p8430
sS'GVD'
p8431
S'GHOLVAD'
p8432
sS'UA'
p8433
S'UPLETA'
p8434
sS'BHC'
p8435
S'BHADRAK'
p8436
sS'BHB'
p8437
S'BADLA GHAT'
p8438
sS'BHD'
p8439
S'BADLI'
p8440
sS'BHG'
p8441
S'BHATON KI GALI'
p8442
sS'BHY'
p8443
S'BHAYAVADAR'
p8444
sS'BHZ'
p8445
S'BIHARA'
p8446
sS'SDLK'
p8447
S'SUNDLAK'
p8448
sS'MML'
p8449
S'MADAN MAHAL'
p8450
sS'BHP'
p8451
S'BOLPUR S NIKTN'
p8452
sS'BHS'
p8453
S'VIDISHA'
p8454
sS'BHU'
p8455
S'BHANDU MOTIDAU'
p8456
sS'BHT'
p8457
S'BHATTU'
p8458
sS'BHW'
p8459
S'BARHARWA JN'
p8460
sS'BHV'
p8461
S'BHOMA'
p8462
sS'GNGD'
p8463
S'GANGADHARPUR'
p8464
sS'KKPM'
p8465
S'KALLAKKUDI PLGH'
p8466
sS'MKRA'
p8467
S'MAKRERA'
p8468
sS'DURG'
p8469
S'DURG'
p8470
sS'DURE'
p8471
S'DUMRAON'
p8472
sS'KMAE'
p8473
S'KHAMARGACHHI'
p8474
sS'RDG'
p8475
S'RAYADRUG'
p8476
sS'UMR'
p8477
S'UMARIA'
p8478
sS'ARAG'
p8479
S'ARAG'
p8480
sS'HTD'
p8481
S'HATUNDI'
p8482
sS'SAWN'
p8483
S'SOHANSRA'
p8484
sS'NLPD'
p8485
S'NALLAPADU'
p8486
sS'KKPR'
p8487
S'KOKPARA'
p8488
sS'SSR'
p8489
S'SARERI'
p8490
sS'PDNR'
p8491
S'PADNUR'
p8492
sS'RAG'
p8493
S'RAIGIR'
p8494
sS'RAA'
p8495
S'BARARA'
p8496
sS'RAL'
p8497
S'REPALLE'
p8498
sS'RAJ'
p8499
S'RAJPIPLA'
p8500
sS'FGR'
p8501
S'FATEHGARH'
p8502
sS'LBA'
p8503
S'LAMBHUA'
p8504
sS'NNKR'
p8505
S'NANAKSAR'
p8506
sS'BGRA'
p8507
S'BAGHNAPARA'
p8508
sS'TZTB'
p8509
S'TEZPORE'
p8510
sS'SSM'
p8511
S'SASARAM'
p8512
sS'LBN'
p8513
S'LABAN'
p8514
sS'SKP'
p8515
S'SHANKARPALLI'
p8516
sS'MURI'
p8517
S'MURI'
p8518
sS'BFE'
p8519
S'BAHAWAL BASI'
p8520
sS'BFD'
p8521
S'BORHAT'
p8522
sS'BFJ'
p8523
S'BHORAS BUDRUKH'
p8524
sS'KFA'
p8525
S'KOPARIA'
p8526
sS'MURD'
p8527
S'MANDAWAR M RD'
p8528
sS'LPR'
p8529
S'LILAPUR ROAD'
p8530
sS'BFM'
p8531
S'BHALUI'
p8532
sS'BFR'
p8533
S'BEKAL FORT'
p8534
sS'RANI'
p8535
S'RANI'
p8536
sS'LPJ'
p8537
S'LALPUR JAM'
p8538
sS'LPI'
p8539
S'LINGAMPALLI'
p8540
sS'BFT'
p8541
S'BHABTA'
p8542
sS'BFY'
p8543
S'BHESANA'
p8544
sS'SSL'
p8545
S'SIRSAUL'
p8546
sS'LTHR'
p8547
S'LATEHAR'
p8548
sS'PHN'
p8549
S'POKHRAYAN'
p8550
sS'NAZJ'
p8551
S'NAZIRGANJ'
p8552
sS'VPN'
p8553
S'VIDYAPATINAGAR'
p8554
sS'VID'
p8555
S'VILAVADE'
p8556
sS'YPD'
p8557
S'YERPEDU'
p8558
sS'NHY'
p8559
S'NAGANAHALLI'
p8560
sS'MZS'
p8561
S'MURKEONGSELEK'
p8562
sS'PKPU'
p8563
S'PEDDAKURAPADU'
p8564
sS'SBNM'
p8565
S'SUBARNAMRIGI'
p8566
sS'GHGL'
p8567
S'GHAGWAL'
p8568
sS'MFR'
p8569
S'MANDLA FORT'
p8570
sS'KFI'
p8571
S'KAPPIL'
p8572
sS'SDNR'
p8573
S'SEYDUNGANALLUR'
p8574
sS'YPR'
p8575
S'YESVANTPUR JN'
p8576
sS'DPLN'
p8577
S'DIPLANA'
p8578
sS'PIA'
p8579
S'PIPRAIGAON'
p8580
sS'YAL'
p8581
S'YATALURU'
p8582
sS'CLKA'
p8583
S'CHILKA'
p8584
sS'KNRT'
p8585
S'KUNERU'
p8586
sS'DJRZ'
p8587
S'TO DARJEELING'
p8588
sS'LHLL'
p8589
S'LAHLI'
p8590
sS'TQN'
p8591
S'TIKUNIA'
p8592
sS'NRR'
p8593
S'NAGARUR'
p8594
sS'TAY'
p8595
S'TALAIYUTHU'
p8596
sS'BNGN'
p8597
S'BONGAIGAON'
p8598
sS'KTX'
p8599
S'KATAKHAL JN'
p8600
sS'SIRD'
p8601
S'SIRD'
p8602
sS'BLGT'
p8603
S'BALURGHAT'
p8604
sS'BLGR'
p8605
S'BALANGIR'
p8606
sS'KNRG'
p8607
S'KANHARGAON NAKA'
p8608
sS'PKR'
p8609
S'PAKUR'
p8610
sS'PKP'
p8611
S'PALLIKERE'
p8612
sS'PKQ'
p8613
S'PATTIKKAD'
p8614
sS'DAPD'
p8615
S'DAPODI'
p8616
sS'PKT'
p8617
S'PATTUKOTTAI'
p8618
sS'PKU'
p8619
S'PANSKURA'
p8620
sS'CEM'
p8621
S'CHEEKATEEGALPLM'
p8622
sS'CEL'
p8623
S'CHEBROL'
p8624
sS'KKGT'
p8625
S'KALKALIGHAT'
p8626
sS'VVM'
p8627
S'VIRAVASARAM'
p8628
sS'DUMK'
p8629
S'DUMKA'
p8630
sS'RNGG'
p8631
S'RANGALITING'
p8632
sS'NZB'
p8633
S'NIZAMABAD'
p8634
sS'CEU'
p8635
S'CHIHERU'
p8636
sS'PKA'
p8637
S'PRADHANKHUNTA'
p8638
sS'PKF'
p8639
S'POKLA'
p8640
sS'JAMA'
p8641
S'JAMA'
p8642
sS'PKD'
p8643
S'PENUKONDA'
p8644
sS'KTU'
p8645
S'KUTTIPPURAM'
p8646
sS'CHSM'
p8647
S'CHINNA SALEM'
p8648
sS'MNO'
p8649
S'MEHNAR ROAD'
p8650
sS'KTV'
p8651
S'KOTTAVALASA'
p8652
sS'PKL'
p8653
S'PAPINAYAKNAHALI'
p8654
sS'CSM'
p8655
S'CANSAULIM'
p8656
sS'PMT'
p8657
S'PULLAMPET'
p8658
sS'CSN'
p8659
S'CHALISGAON JN'
p8660
sS'YDK'
p8661
S'YEDEKUMERI'
p8662
sS'PSL'
p8663
S'PARISAL'
p8664
sS'MZC'
p8665
S'MIRZA CHEUKI'
p8666
sS'CSA'
p8667
S'CHAUSA'
p8668
sS'MAJN'
p8669
S'MANGALORE JN'
p8670
sS'GHUM'
p8671
S'GHUM'
p8672
sS'JACN'
p8673
S'JALSU NANAK'
p8674
sS'RRL'
p8675
S'REWRAL'
p8676
sS'BKSL'
p8677
S'BIKRAM SHILA'
p8678
sS'CSZ'
p8679
S'COSSIMBAZAR'
p8680
sS'UCB'
p8681
S'UNCHI BASSI'
p8682
sS'LUNI'
p8683
S'LUNI JN'
p8684
sS'BKSC'
p8685
S'BOKARO STL CITY'
p8686
sS'PHQ'
p8687
S'PARDHANDE'
p8688
sS'RRJ'
p8689
S'RAMARAJU PALLI'
p8690
sS'BANE'
p8691
S'BASNI'
p8692
sS'RRI'
p8693
S'RAHURI'
p8694
sS'KTRD'
p8695
S'KATOSAN ROAD'
p8696
sS'AKVD'
p8697
S'AKIVIDU'
p8698
sS'KTRH'
p8699
S'KATAREAH'
p8700
sS'THA'
p8701
S'TEHTA'
p8702
sS'HGL'
p8703
S'HARANGUL'
p8704
sS'SGDP'
p8705
S'SAGADAPATA'
p8706
sS'KTRR'
p8707
S'KATHARA ROAD'
p8708
sS'KTO'
p8709
S'KATORA'
p8710
sS'REG'
p8711
S'REGUPALEM'
p8712
sS'KRJD'
p8713
S'KARJODA'
p8714
sS'SRI'
p8715
S'SALMARI'
p8716
sS'KRJA'
p8717
S'KARANJA'
p8718
sS'RRE'
p8719
S'RAHUL ROAD'
p8720
sS'KUDL'
p8721
S'KUDAL'
p8722
sS'MUT'
p8723
S'MEERUT CANT'
p8724
sS'MUW'
p8725
S'MATHURAPUR'
p8726
sS'MUV'
p8727
S'MANDUADIH'
p8728
sS'KTJ'
p8729
S'KHALTIPUR'
p8730
sS'KLPG'
p8731
S'KAMALPURGRAM'
p8732
sS'JBP'
p8733
S'JABALPUR'
p8734
sS'KHPL'
p8735
S'KHALIPALI'
p8736
sS'KTK'
p8737
S'KYATANEAKERI RD'
p8738
sS'KLPM'
p8739
S'KAILASAPURAM'
p8740
sS'KUDA'
p8741
S'KUNDAPURA'
p8742
sS'DRWN'
p8743
S'DEROWAN P. H.'
p8744
sS'JBG'
p8745
S'JUNG BAHADURGNJ'
p8746
sS'MUD'
p8747
S'MURADNAGAR'
p8748
sS'MUG'
p8749
S'MAGRA'
p8750
sS'GBE'
p8751
S'GAYABARI'
p8752
sS'MUA'
p8753
S'MUSRA'
p8754
sS'KTE'
p8755
S'KATNI'
p8756
sS'MUM'
p8757
S'MANGAPATNAM'
p8758
sS'JBN'
p8759
S'JOGBANI'
p8760
sS'JBL'
p8761
S'JABLI'
p8762
sS'JBK'
p8763
S'JGMBLA KSHNPRM'
p8764
sS'BANO'
p8765
S'BANO'
p8766
sS'MUK'
p8767
S'MUNUMAKA'
p8768
sS'OBVP'
p8769
S'OBULAVARIPALLI'
p8770
sS'SILO'
p8771
S'SILAO'
p8772
sS'ASR'
p8773
S'AMRITSAR JN'
p8774
sS'DGA'
p8775
S'DIGHWARA'
p8776
sS'ASV'
p8777
S'ASARVA JN'
p8778
sS'AST'
p8779
S'ASAOTI'
p8780
sS'DGJ'
p8781
S'DUNGAR JN'
p8782
sS'DGI'
p8783
S'DUNGRI'
p8784
sS'DGN'
p8785
S'DONGARGAON'
p8786
sS'DGO'
p8787
S'DURGAUTI'
p8788
sS'VPDA'
p8789
S'VIDYAPATIDHAM'
p8790
sS'NUQ'
p8791
S'NAGAR UNTARI'
p8792
sS'DGR'
p8793
S'DURGAPUR'
p8794
sS'DGS'
p8795
S'DAGORI'
p8796
sS'NUJ'
p8797
S'NUJELLA'
p8798
sS'DGW'
p8799
S'DHIGAWARA'
p8800
sS'DGT'
p8801
S'DHULGHAT'
p8802
sS'ASD'
p8803
S'AMBASAMUDRAM'
p8804
sS'ASK'
p8805
S'ARSIKERE JN'
p8806
sS'ORAI'
p8807
S'ORAI'
p8808
sS'NUD'
p8809
S'NAVAGADH'
p8810
sS'ASH'
p8811
S'AISHBAGH'
p8812
sS'ASN'
p8813
S'ASANSOL JN'
p8814
sS'ASL'
p8815
S'ASLAODA'
p8816
sS'DUI'
p8817
S'DHURI JN'
p8818
sS'DUJ'
p8819
S'DUBRAJPUR'
p8820
sS'MJF'
p8821
S'MALKAJGIRI'
p8822
sS'DUN'
p8823
S'DUGANPUR'
p8824
sS'CSTM'
p8825
S'MUMBAI CST'
p8826
sS'DUA'
p8827
S'DHAURA'
p8828
sS'DUB'
p8829
S'DABTARA'
p8830
sS'SZB'
p8831
S'SARONA'
p8832
sS'DUD'
p8833
S'DUDHANI'
p8834
sS'PNWN'
p8835
S'PACHWAN'
p8836
sS'PML'
p8837
S'PAPANASAM'
p8838
sS'R'
p8839
S'RAIPUR JN'
p8840
sS'SRL'
p8841
S'SAROLA'
p8842
sS'KDBM'
p8843
S'KHED BRAHMA'
p8844
sS'UNI'
p8845
S'UNAI VANSADA RD'
p8846
sS'DUR'
p8847
S'DESUR'
p8848
sS'UNK'
p8849
S'UNKAL'
p8850
sS'DUT'
p8851
S'DUM DUMA TOWN'
p8852
sS'DUU'
p8853
S'DUPADU'
p8854
sS'MLPR'
p8855
S'MALIPUR'
p8856
sS'ODC'
p8857
S'ODDAM HATRAM'
p8858
sS'PTPU'
p8859
S'PRATTIAPADU'
p8860
sS'KD'
p8861
S'KUNDARKHI'
p8862
sS'KK'
p8863
S'KHADKI'
p8864
sS'KJ'
p8865
S'KAJGAON'
p8866
sS'KI'
p8867
S'KONDAPALLI'
p8868
sS'ITE'
p8869
S'INTIYATHOK'
p8870
sS'KO'
p8871
S'KOSGI'
p8872
sS'KN'
p8873
S'KADALUNDI'
p8874
sS'ITA'
p8875
S'ITOLA'
p8876
sS'KS'
p8877
S'KHETA SARAI'
p8878
sS'KP'
p8879
S'KAMPTEE'
p8880
sS'MNGD'
p8881
S'MUNIGUDA'
p8882
sS'HTNL'
p8883
S'HITNAL'
p8884
sS'KT'
p8885
S'KUMTA'
p8886
sS'AUWA'
p8887
S'AUWA'
p8888
sS'NW'
p8889
S'NALWAR'
p8890
sS'ITR'
p8891
S'ITWARI'
p8892
sS'PRCA'
p8893
S'PERECHERLA'
p8894
sS'DMU'
p8895
S'DHAMUA'
p8896
sS'AAG'
p8897
S'ANGAR'
p8898
sS'GBP'
p8899
S'GULABPURA'
p8900
sS'RDT'
p8901
S'RAVTHA ROAD'
p8902
sS'AAM'
p8903
S'ANGADIPPURAM'
p8904
sS'AAL'
p8905
S'AMLAI'
p8906
sS'TLWA'
p8907
S'THALWARA'
p8908
sS'KULE'
p8909
S'KOLAMB'
p8910
sS'MWE'
p8911
S'MEWA NAWADA'
p8912
sS'AAS'
p8913
S'ASRANADA'
p8914
sS'AAR'
p8915
S'ADESAR'
p8916
sS'GTKD'
p8917
S'GERITA KOLVADA'
p8918
sS'SHMI'
p8919
S'SHIROOR'
p8920
sS'AAY'
p8921
S'ARALVAYMOZHI'
p8922
sS'LCAE'
p8923
S'LALBAGH CRT RD'
p8924
sS'MJA'
p8925
S'MEJA ROAD'
p8926
sS'BIO'
p8927
S'BORDI'
p8928
sS'BIM'
p8929
S'BILIMORA JN'
p8930
sS'BIJ'
p8931
S'BIRNAGAR'
p8932
sS'BIK'
p8933
S'BHIRA KHERI'
p8934
sS'AJIT'
p8935
S'AJIT'
p8936
sS'KWF'
p8937
S'KATWA'
p8938
sS'KWI'
p8939
S'KIVARLI'
p8940
sS'BIG'
p8941
S'BELGAHNA'
p8942
sS'BID'
p8943
S'BIDADI'
p8944
sS'KWJ'
p8945
S'KHOJEWALA'
p8946
sS'KWM'
p8947
S'KAMPUR'
p8948
sS'BIC'
p8949
S'BICHIA'
p8950
sS'KWO'
p8951
S'KARAUTA'
p8952
sS'BIA'
p8953
S'BHILAI'
p8954
sS'SOD'
p8955
S'SOJAT ROAD'
p8956
sS'KWP'
p8957
S'KHATIPURA'
p8958
sS'KWR'
p8959
S'KOELWAR'
p8960
sS'BIX'
p8961
S'BHIND'
p8962
sS'BIY'
p8963
S'BARDOLI'
p8964
sS'BIR'
p8965
S'BIR'
p8966
sS'SANK'
p8967
S'SANK'
p8968
sS'BIQ'
p8969
S'BANSI PAHARPUR'
p8970
sS'PRNR'
p8971
S'PORJANPUR'
p8972
sS'PQD'
p8973
S'PRANPUR ROAD'
p8974
sS'SLY'
p8975
S'SAMALPATTI'
p8976
sS'KNNK'
p8977
S'KANINA KHAS'
p8978
sS'GDPL'
p8979
S'G POCHAMPALLI'
p8980
sS'KSNG'
p8981
S'KESINGA'
p8982
sS'CTND'
p8983
S'CHETTINAD'
p8984
sS'KNNA'
p8985
S'KHINANIYAN'
p8986
sS'IZN'
p8987
S'IZZATNAGAR'
p8988
sS'KLNP'
p8989
S'KALINARYNPUR JN'
p8990
sS'SLGH'
p8991
S'SHELGOAN H'
p8992
sS'SLN'
p8993
S'SULTANPUR'
p8994
sS'SLO'
p8995
S'SAMALKOT JN'
p8996
sS'KLNK'
p8997
S'KALANAUR KALAN'
p8998
sS'SLI'
p8999
S'SANGLI'
p9000
sS'SLJ'
p9001
S'SAKRIGALI JN'
p9002
sS'SLD'
p9003
S'SAKALDIHA'
p9004
sS'SLF'
p9005
S'SILLI'
p9006
sS'MNUR'
p9007
S'MANNANUR'
p9008
sS'QLD'
p9009
S'QUILANDI'
p9010
sS'SLB'
p9011
S'SALBONI'
p9012
sS'PQE'
p9013
S'PAWAPURI ROAD'
p9014
sS'JPI'
p9015
S'JHADUPUDI'
p9016
sS'JPH'
p9017
S'JHANTIPAHARI'
p9018
sS'MCL'
p9019
S'MADIMANGALAM'
p9020
sS'JPM'
p9021
S'JIYAPURAM'
p9022
sS'JPL'
p9023
S'JAPLA'
p9024
sS'MCI'
p9025
S'MANCHIRYAL'
p9026
sS'SKTN'
p9027
S'SHAKTI NAGAR'
p9028
sS'JPE'
p9029
S'JALPAIGURI ROAD'
p9030
sS'JPD'
p9031
S'JALALPUR DHAI'
p9032
sS'JPG'
p9033
S'JALPAIGURI'
p9034
sS'BYNR'
p9035
S'MOOKAMBIKA ROAD'
p9036
sS'TMLU'
p9037
S'TUMMALACHERUVU'
p9038
sS'JPZ'
p9039
S'JOGIGHOPA'
p9040
sS'TGU'
p9041
S'TARIGOPPULA'
p9042
sS'MCV'
p9043
S'MACHARYA'
p9044
sS'JPS'
p9045
S'JMLPR SHAIKHAN'
p9046
sS'SAMT'
p9047
S'SALEM MARKET'
p9048
sS'MCS'
p9049
S'MANCHESWAR'
p9050
sS'MCQ'
p9051
S'MIRCHADHORI'
p9052
sS'JPV'
p9053
S'JMTRA PARASWARA'
p9054
sS'BGA'
p9055
S'BAGALIA'
p9056
sS'IDAR'
p9057
S'IDAR'
p9058
sS'UCH'
p9059
S'UNCHAULIA'
p9060
sS'VELI'
p9061
S'VELI'
p9062
sS'BGG'
p9063
S'BANTA RNATHGARH'
p9064
sS'BGH'
p9065
S'BAGHAULI'
p9066
sS'TCR'
p9067
S'THRISUR'
p9068
sS'BGK'
p9069
S'BAGALKOT'
p9070
sS'SHDM'
p9071
S'SHAHBAD MARKNDA'
p9072
sS'BGM'
p9073
S'BELGAUM'
p9074
sS'BGN'
p9075
S'BORGAON'
p9076
sS'BGP'
p9077
S'BHAGALPUR'
p9078
sS'BGQ'
p9079
S'BHONGAON'
p9080
sS'BGS'
p9081
S'BEGU SARAI'
p9082
sS'PYOL'
p9083
S'PAYYOLI'
p9084
sS'BSTP'
p9085
S'BASANTAPUR'
p9086
sS'BGW'
p9087
S'BEGDEWADI'
p9088
sS'BGX'
p9089
S'BAGRI SAJJANPUR'
p9090
sS'BGY'
p9091
S'BANGRIPOSI'
p9092
sS'BGZ'
p9093
S'BAHADURGARH'
p9094
sS'YLM'
p9095
S'ELLAMANCHILI'
p9096
sS'GDB'
p9097
S'GIDDARBAHA'
p9098
sS'SVPM'
p9099
S'S VENKTESWRPALM'
p9100
sS'VNG'
p9101
S'VISNAGAR'
p9102
sS'BIPR'
p9103
S'BHEEMPURA'
p9104
sS'VNE'
p9105
S'VISWANATH CHRLI'
p9106
sS'TLT'
p9107
S'TILATI'
p9108
sS'SPLE'
p9109
S'SUJNIPARA'
p9110
sS'VNB'
p9111
S'VANIYAMBALAM'
p9112
sS'DLPR'
p9113
S'DAYALPUR'
p9114
sS'VNM'
p9115
S'ONTIMITTA'
p9116
sS'LBG'
p9117
S'LIMBGAON'
p9118
sS'VNK'
p9119
S'BINAIKI'
p9120
sS'JUP'
p9121
S'JHUNPA'
p9122
sS'SDMD'
p9123
S'SUDAMDIH'
p9124
sS'WENA'
p9125
S'WENA'
p9126
sS'MARD'
p9127
S'MAVUR ROAD'
p9128
sS'MKRN'
p9129
S'MAKRONIA'
p9130
sS'MSMD'
p9131
S'MAHASAMUND'
p9132
sS'TZD'
p9133
S'TOZHUPPEDU'
p9134
sS'DLPH'
p9135
S'DAULATPUR HAT'
p9136
sS'LIN'
p9137
S'LINGAMGUNTLA'
p9138
sS'KSTA'
p9139
S'KASTHA'
p9140
sS'GPH'
p9141
S'GARPOS'
p9142
sS'GPI'
p9143
S'GAJAPATINAGARAM'
p9144
sS'GPJ'
p9145
S'GORAPUR'
p9146
sS'KSTE'
p9147
S'KISTAMSETTIPALI'
p9148
sS'GPD'
p9149
S'GUMMIDIPUNDI'
p9150
sS'BBMN'
p9151
S'BARI BRAHMAN'
p9152
sS'GPF'
p9153
S'GAURI PHANTA'
p9154
sS'DKJR'
p9155
S'DHEKIAJILI ROAD'
p9156
sS'MST'
p9157
S'MASIT'
p9158
sS'GPB'
p9159
S'GHATPRABHA'
p9160
sS'STJT'
p9161
S'SATHAJAGAT'
p9162
sS'SONR'
p9163
S'SAONER JN'
p9164
sS'GPX'
p9165
S'GAUTAMPURA ROAD'
p9166
sS'GPY'
p9167
S'GANGAYAPLLE'
p9168
sS'BDAG'
p9169
S'BONIDANGA'
p9170
sS'GPT'
p9171
S'GOPALAPATNAM'
p9172
sS'GPU'
p9173
S'GULAPALYAMU'
p9174
sS'KMM'
p9175
S'KANNAMANGALAM'
p9176
sS'THB'
p9177
S'THANA BIHPUR JN'
p9178
sS'GPR'
p9179
S'GHORPURI'
p9180
sS'HLAR'
p9181
S'HOLE ALUR'
p9182
sS'HJP'
p9183
S'HAJIPUR JN'
p9184
sS'NIL'
p9185
S'NILAMBUR ROAD'
p9186
sS'KODI'
p9187
S'KODI'
p9188
sS'KIS'
p9189
S'KAPILAS ROAD'
p9190
sS'KIR'
p9191
S'KATIHAR JN'
p9192
sS'NIA'
p9193
S'JANJGIR NAILA'
p9194
sS'KIW'
p9195
S'KANWALPURA'
p9196
sS'KIV'
p9197
S'KAIALSA'
p9198
sS'NID'
p9199
S'NIDUR'
p9200
sS'BUG'
p9201
S'BAGAHA'
p9202
sS'KIK'
p9203
S'KARAIKAL'
p9204
sS'KIN'
p9205
S'KAPASAN'
p9206
sS'KIM'
p9207
S'KIM'
p9208
sS'KIC'
p9209
S'KALLIDAIKURICHI'
p9210
sS'HJL'
p9211
S'HEJJALA'
p9212
sS'HJO'
p9213
S'HARANGAJAO'
p9214
sS'LKNA'
p9215
S'LAKHNA'
p9216
sS'HJI'
p9217
S'HOJAI'
p9218
sS'KIF'
p9219
S'KURI'
p9220
sS'SKT'
p9221
S'SAKTI'
p9222
sS'KID'
p9223
S'KHAIRAR JN'
p9224
sS'CRR'
p9225
S'KARAGOLA ROAD'
p9226
sS'RDUM'
p9227
S'RAMPUR DUMRA'
p9228
sS'CRP'
p9229
S'CHANDRAPURA'
p9230
sS'FDB'
p9231
S'FARIDABAD'
p9232
sS'RUI'
p9233
S'RUKNI'
p9234
sS'CRW'
p9235
S'CHARAUD'
p9236
sS'CRU'
p9237
S'CHUDAWA'
p9238
sS'TATA'
p9239
S'TATANAGAR JN'
p9240
sS'FDK'
p9241
S'FARIDKOT'
p9242
sS'CRY'
p9243
S'CHIRAYINKIL'
p9244
sS'KNR'
p9245
S'KANKINARA'
p9246
sS'JGJ'
p9247
S'JAGESHARGANJ'
p9248
sS'FDN'
p9249
S'FARIDABAD NW TN'
p9250
sS'CRC'
p9251
S'CHARKHARI ROAD'
p9252
sS'BRMT'
p9253
S'BARAMATI'
p9254
sS'BKRO'
p9255
S'BOKARO THERMAL'
p9256
sS'RNPR'
p9257
S'RUPNARAYANPUR'
p9258
sS'CRE'
p9259
S'CHORGHATPIPARIA'
p9260
sS'CRJ'
p9261
S'CHITTARANJAN'
p9262
sS'MHJ'
p9263
S'MAHAJAN'
p9264
sS'ULG'
p9265
S'UDALGURI'
p9266
sS'CRN'
p9267
S'CHAREGAON'
p9268
sS'CRL'
p9269
S'CHORAL'
p9270
sS'BKRD'
p9271
S'BHALUKA ROAD F'
p9272
sS'PS'
p9273
S'PARAS'
p9274
sS'ARVI'
p9275
S'ARVI'
p9276
sS'SPTR'
p9277
S'SILAPATHAR'
p9278
sS'MHH'
p9279
S'MAGHAR'
p9280
sS'MALX'
p9281
S'MALIYA'
p9282
sS'PU'
p9283
S'PATCHUR'
p9284
sS'KRMR'
p9285
S'KARIMNAGAR'
p9286
sS'MHI'
p9287
S'MANIHARI'
p9288
sS'UKA'
p9289
S'UKHRA'
p9290
sS'PB'
p9291
S'PUNTAMBA'
p9292
sS'KRMI'
p9293
S'KARMALI'
p9294
sS'MALM'
p9295
S'MANTHRALAYAM RD'
p9296
sS'KMJ'
p9297
S'KAIMGANJ'
p9298
sS'MALK'
p9299
S'MALKAPUR ROAD'
p9300
sS'GKP'
p9301
S'GORAKHPUR JN'
p9302
sS'PJ'
p9303
S'PEPPEGANJ'
p9304
sS'KRMA'
p9305
S'KARAMTOLA'
p9306
sS'SIP'
p9307
S'SURAIMANPUR'
p9308
sS'KRMD'
p9309
S'KUARMUNDA'
p9310
sS'PO'
p9311
S'PARANGIPETTAI'
p9312
sS'SWPR'
p9313
S'SEWAPURI'
p9314
sS'NNE'
p9315
S'NONERA'
p9316
sS'SV'
p9317
S'SIWAN JN'
p9318
sS'APTA'
p9319
S'APTA'
p9320
sS'HNDR'
p9321
S'Hendegir'
p9322
sS'JGD'
p9323
S'JAGADISHPUR'
p9324
sS'SRTL'
p9325
S'SHERTALAI'
p9326
sS'USL'
p9327
S'USALAPUR'
p9328
sS'WTR'
p9329
S'WATHAR'
p9330
sS'MHC'
p9331
S'MASRAKH'
p9332
sS'MKSP'
p9333
S'MUKHASA PARUR'
p9334
sS'S'
p9335
S'SHRIRANGAPATNA'
p9336
sS'MKSR'
p9337
S'MOKALSAR'
p9338
sS'GLE'
p9339
S'GAJULAGUDEM'
p9340
sS'KTCH'
p9341
S'KAITHALKUCHI'
p9342
sS'KMBL'
p9343
S'KHAMBHALIYA'
p9344
sS'DOTL'
p9345
S'DEOTALA'
p9346
sS'RNJ'
p9347
S'RUNIJA'
p9348
sS'RNI'
p9349
S'RANGAPANI'
p9350
sS'RNH'
p9351
S'RUNKHERA'
p9352
sS'RNO'
p9353
S'RANOLI'
p9354
sS'RNN'
p9355
S'RAJANKUNTI'
p9356
sS'GKH'
p9357
S'GUSKARA'
p9358
sS'RNC'
p9359
S'RANCHI'
p9360
sS'NGF'
p9361
S'NAGARNABI'
p9362
sS'RS'
p9363
S'RISIA'
p9364
sS'RNG'
p9365
S'RANIGANJ'
p9366
sS'RNE'
p9367
S'RANJANI'
p9368
sS'RNY'
p9369
S'RANGIYA JN'
p9370
sS'GKJ'
p9371
S'GOLAKGANJ JN'
p9372
sS'OPL'
p9373
S'UPPAL'
p9374
sS'RNR'
p9375
S'RANIBENNUR'
p9376
sS'RNQ'
p9377
S'RENUKUT'
p9378
sS'SPRD'
p9379
S'SINGAPURAM ROAD'
p9380
sS'RNW'
p9381
S'RENWAL'
p9382
sS'RNV'
p9383
S'RANIWARA'
p9384
sS'RNU'
p9385
S'RATNAPUR'
p9386
sS'GKL'
p9387
S'GOKULPUR'
p9388
sS'DVM'
p9389
S'DALBHUMGARH'
p9390
sS'DVL'
p9391
S'DEVLALI'
p9392
sS'ZB'
p9393
S'ZAHIRABAD'
p9394
sS'DVH'
p9395
S'DEVI HALT'
p9396
sS'TTZ'
p9397
S'TUKAITHAD'
p9398
sS'TVL'
p9399
S'TADWAL'
p9400
sS'DVD'
p9401
S'DUVVADA'
p9402
sS'DOHM'
p9403
S'DEVGARH MADRIYA'
p9404
sS'DVA'
p9405
S'DELVADA'
p9406
sS'BMLL'
p9407
S'BAMLA'
p9408
sS'GLG'
p9409
S'GULABHGANJ'
p9410
sS'DDC'
p9411
S'DUM DUM CANT'
p9412
sS'MABG'
p9413
S'MATANA BUZURG'
p9414
sS'DVY'
p9415
S'DEVALIYA'
p9416
sS'MABA'
p9417
S'MANDI BAMORA'
p9418
sS'TNR'
p9419
S'TANGUTURU'
p9420
sS'UMB'
p9421
S'AMBALA CANT JN'
p9422
sS'JBD'
p9423
S'JALLALABD'
p9424
sS'SGKM'
p9425
S'SRUNGAVRUKSHAM'
p9426
sS'UMN'
p9427
S'AMBLIYASAN'
p9428
sS'GKC'
p9429
S'GORAKHPUR CANT'
p9430
sS'DVR'
p9431
S'DORAVART CHTRAM'
p9432
sS'SHDR'
p9433
S'SHADHORAGAON'
p9434
sS'IKR'
p9435
S'IKLEHRA'
p9436
sS'ANDN'
p9437
S'ANAND NAGAR'
p9438
sS'ANDI'
p9439
S'ADRSH NGR DELHI'
p9440
sS'BLRE'
p9441
S'BELSIRI'
p9442
sS'RE'
p9443
S'REWARI'
p9444
sS'SVGA'
p9445
S'SIVAGANGA'
p9446
sS'AGAS'
p9447
S'AGAS'
p9448
sS'PDNA'
p9449
S'PEDDADINNE'
p9450
sS'IKK'
p9451
S'IKKAR'
p9452
sS'MBA'
p9453
S'MAHOBA'
p9454
sS'IKI'
p9455
S'ITKYALA'
p9456
sS'MHQ'
p9457
S'MAHUDA'
p9458
sS'RA'
p9459
S'RAMPARDA'
p9460
sS'BLDI'
p9461
S'BHILDI'
p9462
sS'NBVJ'
p9463
S'NEW BHUJ'
p9464
sS'ANVR'
p9465
S'ANAND VIHAR'
p9466
sS'MLGT'
p9467
S'MALLAPPA GATE'
p9468
sS'KER'
p9469
S'KIRIHRAPUR'
p9470
sS'FZR'
p9471
S'FIROZPUR CANT'
p9472
sS'KMU'
p9473
S'KUMBAKONAM'
p9474
sS'BLDA'
p9475
S'BELDA'
p9476
sS'MOY'
p9477
S'MOHRI'
p9478
sS'IMGE'
p9479
S'ISMAILPUR'
p9480
sS'NVT'
p9481
S'NAVIPET'
p9482
sS'FZL'
p9483
S'FAZALPUR'
p9484
sS'PMKT'
p9485
S'PIMPALKHUTI'
p9486
sS'TXD'
p9487
S'TYADA'
p9488
sS'OBR'
p9489
S'OBRA DAM'
p9490
sS'MLG'
p9491
S'MALHARGARH'
p9492
sS'FZD'
p9493
S'FIROZABAD'
p9494
sS'PLW'
p9495
S'PINGLESHWAR'
p9496
sS'PLU'
p9497
S'PATAKOTTACHERU'
p9498
sS'BILD'
p9499
S'BILDI'
p9500
sS'PLS'
p9501
S'PIPALSANA'
p9502
sS'CDA'
p9503
S'CHUDA'
p9504
sS'BILA'
p9505
S'BHESLANA'
p9506
sS'PLP'
p9507
S'PHULPUR'
p9508
sS'CDL'
p9509
S'CHODIALA'
p9510
sS'CDM'
p9511
S'CHIDAMBARAM'
p9512
sS'CDH'
p9513
S'CHAKDAHA'
p9514
sS'PLY'
p9515
S'PLASSEY'
p9516
sS'CHRG'
p9517
S'CHORGI'
p9518
sS'PSB'
p9519
S'PARSABAD'
p9520
sS'PLE'
p9521
S'PIPLEE'
p9522
sS'JALD'
p9523
S'JALIYA DEVANI'
p9524
sS'CDP'
p9525
S'CHANDPARA'
p9526
sS'CHRA'
p9527
S'CHHARRA'
p9528
sS'CDS'
p9529
S'CHANDISAR'
p9530
sS'PLO'
p9531
S'PULGAON JN'
p9532
sS'CHRM'
p9533
S'CHIRMIRI'
p9534
sS'PLL'
p9535
S'PARLI'
p9536
sS'PLK'
p9537
S'PALIA KALAN'
p9538
sS'PLJ'
p9539
S'PALEJ'
p9540
sS'KHAT'
p9541
S'KHAT'
p9542
sS'BXY'
p9543
S'BORDHAL'
p9544
sS'PSA'
p9545
S'PALASA'
p9546
sS'BXP'
p9547
S'BARPATHAR'
p9548
sS'CDG'
p9549
S'CHANDIGARH'
p9550
sS'ANI'
p9551
S'AJANTI'
p9552
sS'SNQ'
p9553
S'SANKARPUR'
p9554
sS'TLGP'
p9555
S'TALGUPPA'
p9556
sS'BXK'
p9557
S'BANDARKHAL'
p9558
sS'BXJ'
p9559
S'BOKAJAN'
p9560
sS'BXM'
p9561
S'BELRAYAN'
p9562
sS'PSD'
p9563
S'PARSODA'
p9564
sS'BXN'
p9565
S'BAYANA JN'
p9566
sS'BXA'
p9567
S'BALOD'
p9568
sS'KLMC'
p9569
S'KALAMBOLI'
p9570
sS'BXC'
p9571
S'BARWALA'
p9572
sS'MGTD'
p9573
S'MEGHPURTITODI'
p9574
sS'IQG'
p9575
S'IQBAL GADH'
p9576
sS'BXG'
p9577
S'BHANGA'
p9578
sS'BXF'
p9579
S'BARSUAN'
p9580
sS'MBL'
p9581
S'MANUBOLU'
p9582
sS'MBM'
p9583
S'MAMBALAM'
p9584
sS'PPA'
p9585
S'PIPRA'
p9586
sS'SOB'
p9587
S'SILANIBARI'
p9588
sS'PPG'
p9589
S'PIPLODA BAGLA'
p9590
sS'MBI'
p9591
S'MADHUBANI'
p9592
sS'SOG'
p9593
S'SURATGARH JN'
p9594
sS'PPD'
p9595
S'PIPLOD JN'
p9596
sS'GAW'
p9597
S'GAINJAHWA'
p9598
sS'PPJ'
p9599
S'POPHLAJ'
p9600
sS'MBF'
p9601
S'MUNABAO'
p9602
sS'MBG'
p9603
S'MAIBANG'
p9604
sS'PPO'
p9605
S'PANPOSH'
p9606
sS'GAR'
p9607
S'GADARWARA'
p9608
sS'AMBR'
p9609
S'AMBIKA ROHINA'
p9610
sS'GAP'
p9611
S'GURPA'
p9612
sS'SOQ'
p9613
S'SOMPUR ROAD'
p9614
sS'PPR'
p9615
S'PIPAR ROAD JN'
p9616
sS'GAM'
p9617
S'GANJAM'
p9618
sS'SOR'
p9619
S'SONAGIR'
p9620
sS'GAGA'
p9621
S'GALGALIA'
p9622
sS'GAJ'
p9623
S'GANESHGANJ'
p9624
sS'PPU'
p9625
S'PIPARPUR'
p9626
sS'PPT'
p9627
S'PIRPAINTI'
p9628
sS'SOY'
p9629
S'SUKRIMANGELA'
p9630
sS'MOO'
p9631
S'MUDDANURU'
p9632
sS'GAD'
p9633
S'GEVRA ROAD'
p9634
sS'MBP'
p9635
S'MOHIBULLAPUR'
p9636
sS'PNU'
p9637
S'PALANPUR JN'
p9638
sS'GAA'
p9639
S'GALAN'
p9640
sS'MBS'
p9641
S'MADHOSINGH'
p9642
sS'UMD'
p9643
S'USMANABAD'
p9644
sS'HRV'
p9645
S'HARRAD'
p9646
sS'CKTD'
p9647
S'CHITRAKOT'
p9648
sS'VLKN'
p9649
S'VELANKANNI'
p9650
sS'MTR'
p9651
S'MOTIPUR'
p9652
sS'MTP'
p9653
S'METUPALAIYAM'
p9654
sS'MTPR'
p9655
S'RAIMEHATPUR'
p9656
sS'MTT'
p9657
S'MUTUPET'
p9658
sS'MTU'
p9659
S'MATMARI'
p9660
sS'MTJ'
p9661
S'MATHURA JN'
p9662
sS'SJN'
p9663
S'SANJAN'
p9664
sS'MTI'
p9665
S'MITAWAL'
p9666
sS'MTL'
p9667
S'MAILAM'
p9668
sS'MTM'
p9669
S'MACHELIPATNAM'
p9670
sS'JCL'
p9671
S'JADCHERLA'
p9672
sS'MTC'
p9673
S'MEERUT CITY'
p9674
sS'RRGA'
p9675
S'RANGAREDDY GUDA'
p9676
sS'NRGR'
p9677
S'NARANJIPUR'
p9678
sS'MTPC'
p9679
S'MOTIPURA CHAUKI'
p9680
sS'NRLR'
p9681
S'NORLA ROAD'
p9682
sS'MTD'
p9683
S'MERTA ROAD JN'
p9684
sS'ARP'
p9685
S'ATRAMPUR'
p9686
sS'ARQ'
p9687
S'ARARIYA COURT'
p9688
sS'ARR'
p9689
S'ARARIYA'
p9690
sS'JRNA'
p9691
S'JIRANIA'
p9692
sS'ARV'
p9693
S'ARNI ROAD'
p9694
sS'ARW'
p9695
S'AHRAURA ROAD'
p9696
sS'SHTT'
p9697
S'SILGHAT TOWN'
p9698
sS'PSV'
p9699
S'PARSNEU'
p9700
sS'SLRP'
p9701
S'SALARPUR'
p9702
sS'SNGR'
p9703
S'SANGANAPUR'
p9704
sS'ARA'
p9705
S'ARA'
p9706
sS'SNGP'
p9707
S'SINGHPUR'
p9708
sS'MLD'
p9709
S'MALIHABAD'
p9710
sS'ARD'
p9711
S'AMARDA ROAD'
p9712
sS'ARE'
p9713
S'ARNETHA'
p9714
sS'SGP'
p9715
S'SOHAGPUR'
p9716
sS'WZJ'
p9717
S'WAZERGANJ'
p9718
sS'ARJ'
p9719
S'AUNRIHAR JN'
p9720
sS'ARK'
p9721
S'ARAKKU'
p9722
sS'SBH'
p9723
S'SULEBHAVI'
p9724
sS'ARN'
p9725
S'ARAND'
p9726
sS'BD'
p9727
S'BADNERA JN'
p9728
sS'BE'
p9729
S'BAREILLY'
p9730
sS'BF'
p9731
S'BAGETAR'
p9732
sS'BG'
p9733
S'BHONGIR'
p9734
sS'PBH'
p9735
S'PARTAPGARH JN'
p9736
sS'DVGM'
p9737
S'DEVGAM'
p9738
sS'BB'
p9739
S'BOMBAY VT'
p9740
sS'BC'
p9741
S'BAREILLY CITY'
p9742
sS'TIT'
p9743
S'TALIT'
p9744
sS'TIU'
p9745
S'TILARU'
p9746
sS'BN'
p9747
S'BIBINAGAR'
p9748
sS'LPH'
p9749
S'LOTAPAHAR'
p9750
sS'BH'
p9751
S'BHARUCH JN'
p9752
sS'ETP'
p9753
S'ETTAPUR ROAD'
p9754
sS'BJ'
p9755
S'BAHJOI'
p9756
sS'BK'
p9757
S'BAKRA ROAD'
p9758
sS'BT'
p9759
S'BARASAT'
p9760
sS'BU'
p9761
S'BASWA'
p9762
sS'BV'
p9763
S'BABHNAN'
p9764
sS'KMD'
p9765
S'KODUMUDI'
p9766
sS'BP'
p9767
S'BARRACKPORE'
p9768
sS'GSD'
p9769
S'GHOSUNDA'
p9770
sS'BR'
p9771
S'BANDH BARETA'
p9772
sS'BDNK'
p9773
S'BODINAYAKKANUR'
p9774
sS'GSI'
p9775
S'GHOSI'
p9776
sS'KMC'
p9777
S'KAMAREDDI'
p9778
sS'TIG'
p9779
S'TITLAGARH'
p9780
sS'VYN'
p9781
S'VYASNAGAR'
p9782
sS'TIA'
p9783
S'TILAYA'
p9784
sS'BORA'
p9785
S'BAGHDOGRA'
p9786
sS'ETW'
p9787
S'ETAWAH'
p9788
sS'NNO'
p9789
S'NANGLOI'
p9790
sS'NNN'
p9791
S'NANGUNERI'
p9792
sS'NNM'
p9793
S'NANNILAM'
p9794
sS'NNL'
p9795
S'NARNAUL'
p9796
sS'TMV'
p9797
S'TINDIVANAM'
p9798
sS'HKR'
p9799
S'KIWAR KHED'
p9800
sS'HKP'
p9801
S'HAKIMPUR'
p9802
sS'BSPN'
p9803
S'BASSI PATHANAM'
p9804
sS'KHT'
p9805
S'SRI KALAHASTI'
p9806
sS'AQG'
p9807
S'ASHAPURA GOMAT'
p9808
sS'NNA'
p9809
S'NAUGACHIA'
p9810
sS'KHH'
p9811
S'KICHHA'
p9812
sS'TMX'
p9813
S'TIMMAPUR'
p9814
sS'HKH'
p9815
S'HARANYA KHERI'
p9816
sS'KHM'
p9817
S'KUSMHI'
p9818
sS'HKL'
p9819
S'HARKIA KHAL'
p9820
sS'GWL'
p9821
S'GWALIOR'
p9822
sS'NNW'
p9823
S'NRYNPUR TATWAR'
p9824
sS'KMQA'
p9825
S'KOMALI'
p9826
sS'KHC'
p9827
S'KHORANA'
p9828
sS'KHD'
p9829
S'KHODIYAR'
p9830
sS'HKG'
p9831
S'HIRAKUD'
p9832
sS'TDPR'
p9833
S'TIRUPADRIPULYUR'
p9834
sS'NNP'
p9835
S'NANPARA JN'
p9836
sS'NEP'
p9837
S'NENPUR'
p9838
sS'KML'
p9839
S'KAMTAUL'
p9840
sS'SQR'
p9841
S'SULTANPUR LODI'
p9842
sS'NAVI'
p9843
S'NEW AMRAVATI'
p9844
sS'BDPL'
p9845
S'BANDARUPALLE'
p9846
sS'GTJT'
p9847
S'GETOR JAGATPURA'
p9848
sS'HNL'
p9849
S'HINGOLI DECCAN'
p9850
sS'CMNR'
p9851
S'CHAMARAJANAGAR'
p9852
sS'CKNI'
p9853
S'CHIKNI ROAD'
p9854
sS'CHE'
p9855
S'SRIKAKULAM ROAD'
p9856
sS'BAHI'
p9857
S'BALLENAHALLI'
p9858
sS'NXN'
p9859
S'NUAGAON'
p9860
sS'KVG'
p9861
S'KUNEANGANJ'
p9862
sS'BVQ'
p9863
S'BHILAVDI'
p9864
sS'BVP'
p9865
S'BHAVANAGAR PARA'
p9866
sS'BVV'
p9867
S'BEDETTI'
p9868
sS'BVU'
p9869
S'BALIPARA'
p9870
sS'KMV'
p9871
S'KARMAD'
p9872
sS'PDGL'
p9873
S'PONDUGULA'
p9874
sS'BVZ'
p9875
S'NALOI BARWA'
p9876
sS'SQQ'
p9877
S'SALAGAON'
p9878
sS'KVM'
p9879
S'KAVUTARAM'
p9880
sS'KVJ'
p9881
S'KESHAVGANJ'
p9882
sS'KVK'
p9883
S'KAVATHE MAHANKL'
p9884
sS'MSMI'
p9885
S'MISAMARI'
p9886
sS'BVC'
p9887
S'BHAVNAGAR TRMUS'
p9888
sS'BVB'
p9889
S'BHADBHADAGHAT'
p9890
sS'BVA'
p9891
S'BAURIA JN'
p9892
sS'GWV'
p9893
S'GOWDAVALLI'
p9894
sS'KVR'
p9895
S'KOVVUR'
p9896
sS'KVS'
p9897
S'KALSUR'
p9898
sS'RTGN'
p9899
S'RATANGAON'
p9900
sS'KMS'
p9901
S'KARAMNASA'
p9902
sS'BVI'
p9903
S'BORIVALI'
p9904
sS'BVH'
p9905
S'`\x02LLABGARH'
p9906
sS'BVO'
p9907
S'BOGOLU'
p9908
sS'BVN'
p9909
S'BISWAN'
p9910
sS'BVM'
p9911
S'BAYYAVARAM'
p9912
sS'BVL'
p9913
S'BIKKAVOLU'
p9914
sS'TBV'
p9915
S'TIMBARVA'
p9916
sS'RHR'
p9917
S'RAJHURA'
p9918
sS'JUJA'
p9919
S'JUJUMURA'
p9920
sS'VTM'
p9921
S'VETAPALEMU'
p9922
sS'BATL'
p9923
S'BAIHATOLA'
p9924
sS'WP'
p9925
S'WANGAPALLI'
p9926
sS'BNBH'
p9927
S'BANI BIHAR'
p9928
sS'JTTN'
p9929
S'JORHAT TOWN'
p9930
sS'RTGH'
p9931
S'RATANGARH JN'
p9932
sS'ARGD'
p9933
S'ARIGADA'
p9934
sS'BCHL'
p9935
S'BACHELI'
p9936
sS'RPRL'
p9937
S'RAPARLA HALT'
p9938
sS'ROI'
p9939
S'REOTI'
p9940
sS'ROK'
p9941
S'ROHTAK JN'
p9942
sS'PDGN'
p9943
S'PADHEGAON'
p9944
sS'VTL'
p9945
S'VADTAL SWAMNRYN'
p9946
sS'DCA'
p9947
S'DAMCHARA'
p9948
sS'ROB'
p9949
S'ROBERTSON'
p9950
sS'LLU'
p9951
S'LALRU'
p9952
sS'BGPR'
p9953
S'BHAGWANPURA'
p9954
sS'BGPL'
p9955
S'BAGHUAPAL'
p9956
sS'LLI'
p9957
S'LALGUDI'
p9958
sS'KNPS'
p9959
S'KENDPOSI'
p9960
sS'OSN'
p9961
S'OSIYAN'
p9962
sS'OSA'
p9963
S'AUSA ROAD'
p9964
sS'ETM'
p9965
S'ETTUMANUR'
p9966
sS'SRY'
p9967
S'SIRARI'
p9968
sS'ROU'
p9969
S'ROURKELA'
p9970
sS'MHO'
p9971
S'MAHPUR'
p9972
sS'BDC'
p9973
S'BANDEL JN'
p9974
sS'BDB'
p9975
S'VRINDAVAN'
p9976
sS'BDM'
p9977
S'BADAMI'
p9978
sS'BDL'
p9979
S'Vindhyachal'
p9980
sS'BDN'
p9981
S'BHADAN'
p9982
sS'BDI'
p9983
S'BHADLI'
p9984
sS'BDH'
p9985
S'BHEDIA'
p9986
sS'BDJ'
p9987
S'VADAKARA'
p9988
sS'BDU'
p9989
S'BADNAPUR'
p9990
sS'BDW'
p9991
S'BANDANWARA'
p9992
sS'BJUD'
p9993
S'BAJUD'
p9994
sS'TRKR'
p9995
S'TUREKALA ROAD'
p9996
sS'BHAS'
p9997
S'BHOJRAS'
p9998
sS'MUPA'
p9999
S'MUPA'
p10000
sS'TWG'
p10001
S'TWINING GANJ'
p10002
sS'BDY'
p10003
S'BUDDIREDDIPPATI'
p10004
sS'GZN'
p10005
S'N GHAZIABAD'
p10006
sS'BDZ'
p10007
S'BADKULLA'
p10008
sS'LRA'
p10009
S'LODNA'
p10010
sS'NOI'
p10011
S'NARIAOLI'
p10012
sS'LRD'
p10013
S'LAR ROAD'
p10014
sS'MDLM'
p10015
S'MUNDALARAM'
p10016
sS'TUVR'
p10017
S'TURAVUR'
p10018
sS'LRJ'
p10019
S'LAKSAR JN'
p10020
sS'PKRA'
p10021
S'PARSA KHERA'
p10022
sS'PSK'
p10023
S'PARADSINGA HALT'
p10024
sS'MDLE'
p10025
S'MANDAR HILL'
p10026
sS'UR'
p10027
S'UMDANAGAR'
p10028
sS'MPML'
p10029
S'MOHAPANI MAL'
p10030
sS'SNTD'
p10031
S'SANTALDIH'
p10032
sS'LRU'
p10033
S'LALPUR UMRI'
p10034
sS'BISH'
p10035
S'BISHENGARH'
p10036
sS'UJ'
p10037
S'UJALVAV'
p10038
sS'UD'
p10039
S'UDUPI'
p10040
sS'PP'
p10041
S'PURANPUR'
p10042
sS'DTAE'
p10043
S'DHATRIGRAM'
p10044
sS'RNL'
p10045
S'RANALA'
p10046
sS'TKPY'
p10047
S'TURKAPALLI'
p10048
sS'KDG'
p10049
S'KEDGAON'
p10050
sS'ULL'
p10051
S'ULLAL'
p10052
sS'NRZB'
p10053
S'NOWROZABAD'
p10054
sS'ALAI'
p10055
S'ALAI'
p10056
sS'IDR'
p10057
S'INDI ROAD'
p10058
sS'FUT'
p10059
S'FATWA'
p10060
sS'TVP'
p10061
S'TRIVANDRUM PETT'
p10062
sS'ULB'
p10063
S'ULUBARIA'
p10064
sS'IDL'
p10065
S'INDALVAI'
p10066
sS'IDJ'
p10067
S'IDALHOND'
p10068
sS'IDH'
p10069
S'IDGAH AGRA JN'
p10070
sS'IDG'
p10071
S'INDARGARH'
p10072
sS'TIHU'
p10073
S'TIHU'
p10074
sS'MDVK'
p10075
S'MAHADEOKHEDI'
p10076
sS'MLJ'
p10077
S'MOHANLALGANJ'
p10078
sS'CGI'
p10079
S'CHANDRAGIRI'
p10080
sS'CGH'
p10081
S'CHOLANG'
p10082
sS'PMP'
p10083
S'PIMPRI'
p10084
sS'CGL'
p10085
S'CHENGALPATTU'
p10086
sS'PMR'
p10087
S'PITAMBARPUR'
p10088
sS'CGN'
p10089
S'CHIRGAON'
p10090
sS'JWNR'
p10091
S'JAWAHARNAGAR'
p10092
sS'KVC'
p10093
S'KAPARPURA'
p10094
sS'KTMA'
p10095
S'KOTMA'
p10096
sS'RSYI'
p10097
S'RASAYANI'
p10098
sS'CGY'
p10099
S'CHANGANASERI'
p10100
sS'CGX'
p10101
S'CHARGOLA'
p10102
sS'TVN'
p10103
S'TIRUPPUVANAM'
p10104
sS'RHNE'
p10105
S'ROHINI'
p10106
sS'MLDT'
p10107
S'\xbd\x01LDA TOWN'
p10108
sS'NBUJ'
p10109
S'NEW BHUJ'
p10110
sS'KPZ'
p10111
S'KAPREN'
p10112
sS'VRG'
p10113
S'VIKRAMNAGAR'
p10114
sS'CGS'
p10115
S'CHANGSARI'
p10116
sS'CGR'
p10117
S'CHANDAN NAGAR'
p10118
sS'PMK'
p10119
S'PARAMAKKUDI'
p10120
sS'VHGN'
p10121
S'WIHIRGAON'
p10122
sS'MINJ'
p10123
S'MAIKALGANJ'
p10124
sS'CUR'
p10125
S'CHURU'
p10126
sS'SPK'
p10127
S'SAPEKHATI'
p10128
sS'MINA'
p10129
S'MIYANA'
p10130
sS'UGNA'
p10131
S'UGNA HALT'
p10132
sS'CUX'
p10133
S'CHAURA'
p10134
sS'DBRT'
p10135
S'DIBRUGARH TOWN'
p10136
sS'CUE'
p10137
S'CHOUPALE'
p10138
sS'SBBJ'
p10139
S'SBB JOGULAMBA H'
p10140
sS'CUK'
p10141
S'CHURK'
p10142
sS'TVG'
p10143
S'TAVARGATTI'
p10144
sS'NOMD'
p10145
S'NOAMUNDI'
p10146
sS'KRLS'
p10147
S'KURLAS'
p10148
sS'KRLR'
p10149
S'KARAILA ROAD JN'
p10150
sS'ABLE'
p10151
S'AMBALE'
p10152
sS'VRN'
p10153
S'VANGANUR'
p10154
sS'SEP'
p10155
S'SODPUR'
p10156
sS'KRLI'
p10157
S'KURALI'
p10158
sS'URPR'
p10159
S'UGRASENPUR'
p10160
sS'VRM'
p10161
S'VARNAMA'
p10162
sS'RGJ'
p10163
S'RAIGANJ'
p10164
sS'KTPR'
p10165
S'KATHAL PUKHURI'
p10166
sS'PNGM'
p10167
S'PANCHGRAM'
p10168
sS'MRHT'
p10169
S'MORANHAT'
p10170
sS'NSU'
p10171
S'NISUI'
p10172
sS'MSZ'
p10173
S'MANSA'
p10174
sS'KART'
p10175
S'KIRATPUR SAHIB'
p10176
sS'DGPP'
p10177
S'DHENGLI PP GOAN'
p10178
sS'MSW'
p10179
S'MASKANWA'
p10180
sS'LKDU'
p10181
S'LANKALAKODERU'
p10182
sS'JLY'
p10183
S'JHILMILI'
p10184
sS'MSR'
p10185
S'MASUR'
p10186
sS'CIL'
p10187
S'CHILBILA JN'
p10188
sS'MSO'
p10189
S'MISROD'
p10190
sS'ASAF'
p10191
S'ASIFABAD ROAD'
p10192
sS'NDJ'
p10193
S'NANDGANJ'
p10194
sS'MSK'
p10195
S'MAHES KHUNT'
p10196
sS'CIV'
p10197
S'CHINNARAVURU'
p10198
sS'CIT'
p10199
S'CHITALI'
p10200
sS'SRF'
p10201
S'SAGAR JAMBAGARU'
p10202
sS'NGD'
p10203
S'NAGARDEVLA'
p10204
sS'MSD'
p10205
S'BOMBAY MASJID'
p10206
sS'MSB'
p10207
S'CHENNAI BEACH'
p10208
sS'NDL'
p10209
S'NANDYAL'
p10210
sS'DAD'
p10211
S'DEVARGUDDA'
p10212
sS'KTYM'
p10213
S'KOTTAYAM'
p10214
sS'DAA'
p10215
S'DATIA'
p10216
sS'DAB'
p10217
S'DHARMABAD'
p10218
sS'DAL'
p10219
S'DALIGANJ'
p10220
sS'DAM'
p10221
S'DHAMORA'
p10222
sS'DAN'
p10223
S'DHANETA'
p10224
sS'DAO'
p10225
S'DAGHORA'
p10226
sS'TBH'
p10227
S'TATIBAHAR'
p10228
sS'DAJ'
p10229
S'DUROJI'
p10230
sS'SRJ'
p10231
S'SHANKARGARH'
p10232
sS'DAV'
p10233
S'DEVALGAON AUCHR'
p10234
sS'DAS'
p10235
S'DHASA JN'
p10236
sS'BRAG'
p10237
S'BARANG'
p10238
sS'BTJL'
p10239
S'BHATKAL'
p10240
sS'KRP'
p10241
S'KRISHNAPUR'
p10242
sS'DAZ'
p10243
S'DELHI AZADPUR'
p10244
sS'PLSN'
p10245
S'PALSANA'
p10246
sS'DWR'
p10247
S'DHARWAR'
p10248
sS'DWP'
p10249
S'DWARAPUDI'
p10250
sS'NDB'
p10251
S'NANDURBAR'
p10252
sS'DWV'
p10253
S'DIWANKHAVATI'
p10254
sS'DWZ'
p10255
S'DANTEWARA'
p10256
sS'NDE'
p10257
S'NANDRE'
p10258
sS'DWX'
p10259
S'DEWAS'
p10260
sS'SAI'
p10261
S'SARAI'
p10262
sS'ULT'
p10263
S'KULTI'
p10264
sS'NDD'
p10265
S'NIDADAVOLU JN'
p10266
sS'INDM'
p10267
S'INDORE JN MG'
p10268
sS'DWA'
p10269
S'DAILWARA'
p10270
sS'DWG'
p10271
S'DEWANGANJ'
p10272
sS'DWD'
p10273
S'DHEKVAD'
p10274
sS'CDRL'
p10275
S'CHHANDRAULI'
p10276
sS'DWJ'
p10277
S'DWARKAGANJ'
p10278
sS'DWK'
p10279
S'DWARKA'
p10280
sS'ULA'
p10281
S'UMRA NALA'
p10282
sS'DWO'
p10283
S'DOIWALA'
p10284
sS'ULD'
p10285
S'ACHALDA'
p10286
sS'KHBJ'
p10287
S'KHANNA BANJARI'
p10288
sS'BLSA'
p10289
S'BOLSA'
p10290
sS'PTRE'
p10291
S'PATARA'
p10292
sS'MLB'
p10293
S'MODNIMB'
p10294
sS'KGRA'
p10295
S'KANGRA'
p10296
sS'PTRU'
p10297
S'PATRATU'
p10298
sS'BLSN'
p10299
S'BELSONDA'
p10300
sS'SNSN'
p10301
S'SONASAN'
p10302
sS'PTRL'
p10303
S'PATHRALA'
p10304
sS'BNKI'
p10305
S'BANMANKHI JN'
p10306
sS'SELU'
p10307
S'SELU'
p10308
sS'PTRD'
p10309
S'PATAUDI ROAD'
p10310
sS'IJK'
p10311
S'IRINJALAKUDA'
p10312
sS'SRW'
p10313
S'SHRI KARANPUR'
p10314
s.