(dp0
S'SSPN'
p1
F0.11548373615657867
sS'AGN'
p2
F0.09844210721831395
sS'NYY'
p3
F0.0
sS'AGI'
p4
F0.013535789742518168
sS'NYP'
p5
F0.056325601913120193
sS'AGC'
p6
F0.20924752153421095
sS'NYN'
p7
F0.03139003041489633
sS'NYO'
p8
F0.006582155046318869
sS'AGY'
p9
F0.03541826286828725
sS'AGR'
p10
F0.00037147964988043
sS'KOTA'
p11
F0.07222957442362611
sS'SPX'
p12
F0.00679111234937661
sS'KYJ'
p13
F0.005328411227972418
sS'BWR'
p14
F0.026630447400803326
sS'SRY'
p15
F0.042766594692484505
sS'BWT'
p16
F0.0008126117341134406
sS'KYN'
p17
F0.05543172900559541
sS'KYM'
p18
F0.10018341807712847
sS'SPP'
p19
F0.010494300109122147
sS'SPT'
p20
F0.004028232453390913
sS'KYF'
p21
F0.0176220658912029
sS'KYE'
p22
F0.13511411390494765
sS'KRG'
p23
F0.0
sS'SPJ'
p24
F0.04391585985930208
sS'SPK'
p25
F0.0
sS'KRD'
p26
F0.0
sS'SPN'
p27
F0.0
sS'BWH'
p28
F0.0035754916300991387
sS'BWI'
p29
F0.006152631701144622
sS'KYQ'
p30
F0.07276357642032923
sS'SPC'
p31
F0.0
sS'BWL'
p32
F0.03472173852476144
sS'BWM'
p33
F0.0
sS'BWN'
p34
F0.02364700146270112
sS'KYT'
p35
F0.0
sS'UMRI'
p36
F0.04290589956118966
sS'GR'
p37
F0.02957906712172924
sS'GP'
p38
F0.13733138306517145
sS'TLHD'
p39
F0.034628868612291336
sS'BYT'
p40
F0.04833878944069095
sS'TRTR'
p41
F0.0
sS'GY'
p42
F0.14513245571266048
sS'BYN'
p43
F0.0035754916300991387
sS'BYL'
p44
F0.04833878944069095
sS'GD'
p45
F0.07164913747068793
sS'GB'
p46
F0.0035406654129228484
sS'BYD'
p47
F0.02165029834459381
sS'GK'
p48
F0.011771261405586125
sS'TLHR'
p49
F0.0
sS'GH'
p50
F0.056058600914768636
sS'SNF'
p51
F0.005119453924914676
sS'MAP'
p52
F0.01915441944695967
sS'MAS'
p53
F0.006802721088435374
sS'MAU'
p54
F0.01745954354438021
sS'SNC'
p55
F0.06224605883308955
sS'JNU'
p56
F0.0001509136077639247
sS'MAY'
p57
F0.0001509136077639247
sS'SNL'
p58
F0.0
sS'PQL'
p59
F0.004910496621856934
sS'SNK'
p60
F0.059320656590281164
sS'PQN'
p61
F0.0032388381973949987
sS'SNI'
p62
F0.0
sS'SNV'
p63
F0.0085092057300736
sS'JNA'
p64
F0.0004991757795268278
sS'MAD'
p65
F0.0008706554294072578
sS'SNP'
p66
F0.0
sS'JND'
p67
F0.013535789742518168
sS'MAI'
p68
F0.04044484688073181
sS'JNH'
p69
F0.0001509136077639247
sS'MAM'
p70
F0.00037147964988043
sS'MAO'
p71
F0.03786770680968633
sS'MAN'
p72
F0.04802535348610434
sS'BEH'
p73
F0.13733138306517145
sS'BEB'
p74
F0.00679111234937661
sS'SVRP'
p75
F0.00749924543196118
sS'BEA'
p76
F0.0035754916300991387
sS'BEG'
p77
F0.0
sS'BEY'
p78
F0.021569037171182467
sS'BER'
p79
F0.021093078869773164
sS'BSRX'
p80
F0.021464558519653596
sS'BET'
p81
F0.22619628056000557
sS'VLI'
p82
F0.000847437951289731
sS'TTR'
p83
F0.02488913654198881
sS'GMDN'
p84
F0.0012537438183464512
sS'LSI'
p85
F0.006872373522787955
sS'VLY'
p86
F0.013535789742518168
sS'MPLM'
p87
F0.0029950546771609667
sS'LSR'
p88
F0.00037147964988043
sS'TTL'
p89
F0.00679111234937661
sS'TTB'
p90
F0.013535789742518168
sS'VLR'
p91
F0.021627080866476283
sS'BIRD'
p92
F0.01938659422813494
sS'LSX'
p93
F0.0
sS'BJR'
p94
F0.012456177010053167
sS'ZN'
p95
F0.004910496621856934
sS'KSRA'
p96
F0.054967379443244875
sS'SPZ'
p97
F0.005990109354321933
sS'GRX'
p98
F9.28699124701075e-05
sS'GRY'
p99
F0.039492930277913216
sS'GRD'
p100
F0.006802721088435374
sS'MLJ'
p101
F0.00024378352023403217
sS'GRA'
p102
F0.0
sS'GRO'
p103
F0.004573843189152794
sS'GRL'
p104
F0.01029695154512317
sS'ZW'
p105
F0.0430219869517773
sS'BSDP'
p106
F0.004028232453390913
sS'NMM'
p107
F0.00679111234937661
sS'NOI'
p108
F0.13511411390494765
sS'NOK'
p109
F6.965243435258063e-05
sS'KKU'
p110
F0.000847437951289731
sS'ARV'
p111
F0.021627080866476283
sS'KKW'
p112
F0.029532632165494184
sS'KKP'
p113
F0.00787072508184161
sS'KKM'
p114
F0.0
sS'HLN'
p115
F0.005920456919969353
sS'KKN'
p116
F0.051182930510087994
sS'KKI'
p117
F0.027210884353741496
sS'TDU'
p118
F0.09275382507951986
sS'KKJ'
p119
F0.0
sS'APDJ'
p120
F0.09700262357502729
sS'KKA'
p121
F0.1210907571219614
sS'NOQ'
p122
F0.08495275243203083
sS'KKB'
p123
F0.004573843189152794
sS'VAPM'
p124
F0.00594367439808688
sS'STPD'
p125
F0.0
sS'VAPI'
p126
F0.0029137935037496228
sS'BZLE'
p127
F0.009310208725128277
sS'TEA'
p128
F0.02005990109354322
sS'VBL'
p129
F0.10296951545123169
sS'VBW'
p130
F0.029532632165494184
sS'PRNR'
p131
F0.00010447865152887093
sS'CTC'
p132
F0.01751758723967403
sS'CTO'
p133
F0.048814747742100255
sS'BRJN'
p134
F0.05053284112279724
sS'GDV'
p135
F0.011469434190058275
sS'WHM'
p136
F0.19363376750017414
sS'PNDM'
p137
F0.03286434027535929
sS'ABSA'
p138
F0.00679111234937661
sS'SID'
p139
F0.009612035940656126
sS'DBEC'
p140
F0.09507557289127255
sS'HPU'
p141
F0.006454458916672471
sS'MME'
p142
F0.0085092057300736
sS'RLO'
p143
F0.0
sS'LMP'
p144
F0.011771261405586125
sS'LMT'
p145
F0.021464558519653596
sS'SPE'
p146
F0.056325601913120193
sS'LMK'
p147
F0.00037147964988043
sS'LMN'
p148
F0.006547328829142578
sS'LMO'
p149
F0.00679111234937661
sS'LMG'
p150
F0.04031715075108542
sS'DPU'
p151
F0.020234032179424672
sS'MOTC'
p152
F0.013535789742518168
sS'DPS'
p153
F0.006825938566552901
sS'DPR'
p154
F0.009670079635949944
sS'MOTH'
p155
F0.0431148568642474
sS'JID'
p156
F0.04656265236470015
sS'MVLK'
p157
F0.0
sS'UKL'
p158
F0.056046992175709874
sS'DPA'
p159
F0.003610317847275429
sS'SDGM'
p160
F0.0430219869517773
sS'DPL'
p161
F0.0222887789928258
sS'DPJ'
p162
F0.10237746975923476
sS'UKA'
p163
F0.0
sS'LD'
p164
F0.025156137540340368
sS'LC'
p165
F0.03448956374358617
sS'LM'
p166
F0.0
sS'BNLW'
p167
F0.003610317847275429
sS'SGDM'
p168
F0.004028232453390913
sS'LS'
p169
F0.054967379443244875
sS'BLPU'
p170
F0.0
sS'BLPR'
p171
F0.0
sS'ANTU'
p172
F0.0
sS'CLDR'
p173
F0.00010447865152887093
sS'RDHP'
p174
F0.017308629936616284
sS'LRD'
p175
F0.0034942304566877944
sS'NLDA'
p176
F0.025852661883866174
sS'PNQ'
p177
F0.024006872373522788
sS'PNP'
p178
F0.0
sS'NLDM'
p179
F0.02029207587471849
sS'BINA'
p180
F0.30923359104734044
sS'PNW'
p181
F0.024436395718697036
sS'PNK'
p182
F0.00042952334517424716
sS'BKNG'
p183
F0.020025074876366927
sS'PNC'
p184
F0.008044856167723062
sS'SRNR'
p185
F0.006582155046318869
sS'PNE'
p186
F0.00679111234937661
sS'SRNT'
p187
F0.02262543242552994
sS'PNF'
p188
F0.14726846369947297
sS'KUDL'
p189
F0.029532632165494184
sS'CTKT'
p190
F0.0
sS'SIPR'
p191
F0.06224605883308955
sS'JOP'
p192
F0.003087924589631074
sS'JOQ'
p193
F0.07842864108100578
sS'PRG'
p194
F0.027675233916092033
sS'PRF'
p195
F0.0
sS'SAN'
p196
F0.0
sS'PRB'
p197
F0.009194121334540643
sS'SAC'
p198
F0.00679111234937661
sS'PRL'
p199
F0.021627080866476283
sS'SAA'
p200
F0.008961946553365373
sS'MUR'
p201
F0.06896751874811358
sS'SAG'
p202
F0.008300248427015858
sS'PRH'
p203
F0.09605070697220867
sS'WANI'
p204
F0.005839195746558009
sS'PRT'
p205
F0.025620487102690905
sS'JOB'
p206
F0.000847437951289731
sS'JOC'
p207
F0.0
sS'PRP'
p208
F0.0422906363910752
sS'PRR'
p209
F0.14086043973903556
sS'BRUD'
p210
F0.051182930510087994
sS'SAW'
p211
F0.0
sS'SAV'
p212
F0.0
sS'SAU'
p213
F0.054839683313598474
sS'NRKR'
p214
F0.25353486104339346
sS'MAQ'
p215
F0.012723178008404726
sS'GRRU'
p216
F0.06015648580251213
sS'CHE'
p217
F0.004028232453390913
sS'JNR'
p218
F0.009449513593833437
sS'MRT'
p219
F0.011306911843235588
sS'CHI'
p220
F0.029532632165494184
sS'CHJ'
p221
F0.0
sS'SKTN'
p222
F0.006802721088435374
sS'MRR'
p223
F0.0986162383041954
sS'KASR'
p224
F0.00679111234937661
sS'JAN'
p225
F0.0
sS'JAO'
p226
F0.0030530983724547838
sS'MRN'
p227
F0.00037147964988043
sS'JAM'
p228
F0.013640268394047039
sS'JAJ'
p229
F0.012131132316407792
sS'MRJ'
p230
F0.0258758793619837
sS'MRK'
p231
F0.021569037171182467
sS'MRE'
p232
F0.003401360544217687
sS'CHZ'
p233
F0.0
sS'MRG'
p234
F0.00679111234937661
sS'MRA'
p235
F0.18006315154047967
sS'MRB'
p236
F0.005340019967031181
sS'PQE'
p237
F0.00679111234937661
sS'BRKA'
p238
F0.07940377516194191
sS'BTKP'
p239
F0.0
sS'DBA'
p240
F0.028824499082909613
sS'WJR'
p241
F0.0
sS'DBB'
p242
F0.006802721088435374
sS'DBD'
p243
F0.0006500893872907525
sS'DBG'
p244
F0.01496366464674607
sS'DBY'
p245
F0.00679111234937661
sS'SNN'
p246
F0.0
sS'API'
p247
F0.00679111234937661
sS'APN'
p248
F0.0013233962526990317
sS'DBR'
p249
F0.03880801467344617
sS'DBU'
p250
F0.1094704093241392
sS'ATP'
p251
F0.14513245571266048
sS'VNUP'
p252
F0.025852661883866174
sS'THVM'
p253
F0.02640988135868682
sS'RPRD'
p254
F0.11771261405586125
sS'TKG'
p255
F0.0
sS'TKD'
p256
F0.0
sS'TKE'
p257
F0.013535789742518168
sS'HMY'
p258
F0.00679111234937661
sS'NLV'
p259
F0.0
sS'TKN'
p260
F0.0422906363910752
sS'TKJ'
p261
F0.005746325834087901
sS'SNT'
p262
F0.11508903902858071
sS'TKH'
p263
F0.00679111234937661
sS'HML'
p264
F0.00679111234937661
sS'NLE'
p265
F0.00594367439808688
sS'NLD'
p266
F0.00679111234937661
sS'KUGT'
p267
F0.00679111234937661
sS'TKQ'
p268
F0.00594367439808688
sS'NLI'
p269
F0.0030530983724547838
sS'SGL'
p270
F0.056058600914768636
sS'HMG'
p271
F0.0
sS'DLB'
p272
F0.00037147964988043
sS'MAG'
p273
F0.0
sS'AFK'
p274
F0.01742471732720392
sS'DLK'
p275
F0.1210907571219614
sS'GCH'
p276
F0.00013930486870516125
sS'DLI'
p277
F0.034907478349701655
sS'SNQ'
p278
F0.011063128323001556
sS'DLO'
p279
F0.09664275266420562
sS'DLN'
p280
F0.0035754916300991387
sS'DLR'
p281
F0.01151586914629333
sS'DLQ'
p282
F0.0
sS'DGA'
p283
F0.006582155046318869
sS'GCT'
p284
F0.011109563279236609
sS'AFR'
p285
F0.0
sS'DGG'
p286
F0.09844210721831395
sS'KXH'
p287
F0.000557219474820645
sS'BTT'
p288
F0.0035406654129228484
sS'BTW'
p289
F0.048988878827981704
sS'BTV'
p290
F0.031831162499129345
sS'KXL'
p291
F0.013535789742518168
sS'BTP'
p292
F0.003087924589631074
sS'KXN'
p293
F0.13733138306517145
sS'JNO'
p294
F0.00679111234937661
sS'BTY'
p295
F0.00679111234937661
sS'BTX'
p296
F0.026630447400803326
sS'SSR'
p297
F0.01519583942792134
sS'SSM'
p298
F0.04253441991130923
sS'BTD'
p299
F0.013535789742518168
sS'AJNI'
p300
F0.0
sS'BTA'
p301
F0.0035754916300991387
sS'SNX'
p302
F0.00679111234937661
sS'BTC'
p303
F0.006802721088435374
sS'BTO'
p304
F2.3217478117526874e-05
sS'JNL'
p305
F0.0067214599150240304
sS'BTI'
p306
F0.014139444173573866
sS'BTH'
p307
F0.056058600914768636
sS'BTK'
p308
F4.643495623505375e-05
sS'BTJ'
p309
F0.021522602214947412
sS'KKLR'
p310
F0.006744677393141557
sS'DGI'
p311
F0.00749924543196118
sS'PGTN'
p312
F0.006802721088435374
sS'KMME'
p313
F0.015428014209096608
sS'RMR'
p314
F0.006802721088435374
sS'RMP'
p315
F0.0
sS'RMT'
p316
F0.07644354670195723
sS'RMU'
p317
F0.020234032179424672
sS'LNT'
p318
F0.005839195746558009
sS'GUD'
p319
F0.0168907153305008
sS'SEE'
p320
F0.006582155046318869
sS'LNR'
p321
F0.0
sS'RMB'
p322
F0.017505978500615263
sS'LNL'
p323
F0.00046434956235053747
sS'RMA'
p324
F0.0
sS'RMF'
p325
F0.09370574168233846
sS'BGVN'
p326
F0.0406073692275545
sS'LNK'
p327
F0.000557219474820645
sS'TETA'
p328
F0.1210907571219614
sS'NUJ'
p329
F0.00679111234937661
sS'KGLE'
p330
F0.009310208725128277
sS'RMN'
p331
F8.126117341134406e-05
sS'RMM'
p332
F0.006802721088435374
sS'BBN'
p333
F0.006802721088435374
sS'BBM'
p334
F0.001300178774581505
sS'NMGY'
p335
F0.0
sS'BBK'
p336
F0.03541826286828725
sS'KJG'
p337
F0.02165029834459381
sS'KJH'
p338
F0.012827656659933599
sS'KJI'
p339
F0.00679111234937661
sS'KJN'
p340
F0.012456177010053167
sS'BBA'
p341
F0.057556128253349124
sS'KJM'
p342
F0.0008126117341134406
sS'KJT'
p343
F0.00046434956235053747
sS'BBU'
p344
F0.04253441991130923
sS'KJY'
p345
F0.003320099370806343
sS'BBS'
p346
F0.013454528569106823
sS'BSQP'
p347
F0.008787815467483922
sS'MDNR'
p348
F0.003958580019038332
sS'TUP'
p349
F0.056046992175709874
sS'VMD'
p350
F0.00679111234937661
sS'MBNL'
p351
F0.02692066587727241
sS'TUV'
p352
F0.00679111234937661
sS'VMA'
p353
F0.0
sS'MDDP'
p354
F0.23274360938914815
sS'TUL'
p355
F0.0
sS'MBNR'
p356
F0.006582155046318869
sS'TUN'
p357
F0.0004991757795268278
sS'TUA'
p358
F0.000847437951289731
sS'BWIP'
p359
F0.00679111234937661
sS'KRND'
p360
F0.006303545308908546
sS'DRLA'
p361
F0.0005223932576443546
sS'BILD'
p362
F0.00037147964988043
sS'KPNA'
p363
F0.05288941515172622
sS'KRNR'
p364
F0.005920456919969353
sS'BEHS'
p365
F0.00679111234937661
sS'BEHR'
p366
F0.10620835364862669
sS'ANSB'
p367
F0.020234032179424672
sS'POZ'
p368
F0.00037147964988043
sS'PDY'
p369
F0.006802721088435374
sS'TKRI'
p370
F0.013535789742518168
sS'POT'
p371
F0.0
sS'JAIS'
p372
F0.0
sS'MLGH'
p373
F0.0625478860486174
sS'FYZ'
p374
F0.003401360544217687
sS'SLH'
p375
F0.04833878944069095
sS'CYN'
p376
F0.0
sS'SKGH'
p377
F0.03541826286828725
sS'FKM'
p378
F0.07868403334029858
sS'FKA'
p379
F0.006802721088435374
sS'FKG'
p380
F0.013535789742518168
sS'CWA'
p381
F0.006802721088435374
sS'KAT'
p382
F0.0005223932576443546
sS'SMET'
p383
F0.013570615959694459
sS'WKI'
p384
F0.023797915070465046
sS'QSR'
p385
F0.00679111234937661
sS'WKR'
p386
F0.04656265236470015
sS'PAP'
p387
F0.10406073692275546
sS'AGTL'
p388
F0.006802721088435374
sS'PAR'
p389
F0.185739824940215
sS'PAU'
p390
F0.19933365837802697
sS'PAV'
p391
F0.00679111234937661
sS'CKB'
p392
F0.003610317847275429
sS'PAY'
p393
F0.00594367439808688
sS'PAZ'
p394
F0.00594367439808688
sS'CKI'
p395
F0.01742471732720392
sS'CKK'
p396
F0.00679111234937661
sS'NRZB'
p397
F0.027210884353741496
sS'KATI'
p398
F0.00679111234937661
sS'DRZ'
p399
F0.006802721088435374
sS'KATL'
p400
F0.1028998630168791
sS'CKP'
p401
F0.1599568154907014
sS'CKR'
p402
F0.014743098604629565
sS'PAK'
p403
F0.052401848111258156
sS'KHTU'
p404
F0.0
sS'PAN'
p405
F0.015985233683917254
sS'PAO'
p406
F0.04699217570987439
sS'AWY'
p407
F0.01742471732720392
sS'BMCK'
p408
F0.11393977386176314
sS'PNYA'
p409
F0.056058600914768636
sS'PERN'
p410
F0.02640988135868682
sS'AMSA'
p411
F0.02488913654198881
sS'DCA'
p412
F0.013535789742518168
sS'MQS'
p413
F0.0
sS'MQR'
p414
F0.09275382507951986
sS'MQU'
p415
F0.0038308838893919344
sS'MQX'
p416
F0.09370574168233846
sS'AWB'
p417
F0.00037147964988043
sS'SGNR'
p418
F0.007963594994311717
sS'UJP'
p419
F0.0
sS'UJN'
p420
F0.02090733904483295
sS'DQG'
p421
F0.0003482621717629031
sS'GRCP'
p422
F0.00679111234937661
sS'DQN'
p423
F0.02692066587727241
sS'UJA'
p424
F0.009612035940656126
sS'ANAS'
p425
F0.00037147964988043
sS'PLCJ'
p426
F0.021836038169534024
sS'ALMR'
p427
F0.013535789742518168
sS'BLQR'
p428
F0.013489354786283114
sS'CCH'
p429
F0.00046434956235053747
sS'MTJ'
p430
F0.19477142392793295
sS'KPP'
p431
F0.009194121334540643
sS'GBD'
p432
F0.1094704093241392
sS'DMC'
p433
F0.006802721088435374
sS'OBVP'
p434
F0.0
sS'DMG'
p435
F0.06224605883308955
sS'DMM'
p436
F0.14537623923289453
sS'DMN'
p437
F0.003633535325392956
sS'DMO'
p438
F0.13776090641034572
sS'DMP'
p439
F0.00679111234937661
sS'DMR'
p440
F0.00679111234937661
sS'GBP'
p441
F0.0
sS'DMW'
p442
F0.004747974275034246
sS'JEUR'
p443
F0.0406073692275545
sS'ITA'
p444
F0.04699217570987439
sS'GBX'
p445
F0.005351628706089944
sS'BUX'
p446
F0.012061479882055212
sS'BUP'
p447
F0.0074295929976085995
sS'BUQ'
p448
F0.00679111234937661
sS'FDN'
p449
F0.0
sS'BUW'
p450
F0.08409370574168235
sS'BUT'
p451
F0.00679111234937661
sS'THAN'
p452
F0.0
sS'BUH'
p453
F0.027210884353741496
sS'BUI'
p454
F0.016205799726033757
sS'KPY'
p455
F0.005328411227972418
sS'BUA'
p456
F0.05056766733997353
sS'BUG'
p457
F0.056058600914768636
sS'RNPR'
p458
F0.0
sS'RDUM'
p459
F0.026502751271156928
sS'KPRD'
p460
F0.0074295929976085995
sS'KCKI'
p461
F0.076455155441016
sS'JMKT'
p462
F0.004213972278331128
sS'ZB'
p463
F0.10081028998630169
sS'MOZ'
p464
F0.0005223932576443546
sS'JLW'
p465
F0.0
sS'PMKT'
p466
F0.005839195746558009
sS'JLS'
p467
F0.04903531378421676
sS'JLR'
p468
F0.020210814701307145
sS'PSB'
p469
F0.0422906363910752
sS'MOR'
p470
F0.009855819460890158
sS'ACND'
p471
F0.004330059668918762
sS'PSA'
p472
F0.004028232453390913
sS'PSD'
p473
F0.00037147964988043
sS'PSE'
p474
F0.04253441991130923
sS'JLD'
p475
F0.06733068654082794
sS'MOI'
p476
F0.0
sS'MOO'
p477
F0.0
sS'MON'
p478
F0.02692066587727241
sS'MOM'
p479
F0.003320099370806343
sS'MOL'
p480
F0.0
sS'PSR'
p481
F0.05402707157948504
sS'JLL'
p482
F0.003087924589631074
sS'NRLR'
p483
F0.11771261405586125
sS'JLN'
p484
F0.04316129182048246
sS'MOG'
p485
F0.010494300109122147
sS'MOF'
p486
F0.0
sS'HNA'
p487
F0.012386524575700587
sS'ETP'
p488
F0.0013233962526990317
sS'KMD'
p489
F0.0029950546771609667
sS'BCH'
p490
F0.009194121334540643
sS'ETW'
p491
F0.00042952334517424716
sS'OMLF'
p492
F0.09506396415221378
sS'MULK'
p493
F5.8043695293817184e-05
sS'KML'
p494
F0.009449513593833437
sS'KMJ'
p495
F0.0
sS'BSPX'
p496
F0.00010447865152887093
sS'HNS'
p497
F0.005792760790322955
sS'KMT'
p498
F0.005560586009147686
sS'KMS'
p499
F0.04253441991130923
sS'BCY'
p500
F0.02262543242552994
sS'KMQ'
p501
F0.00594367439808688
sS'KPI'
p502
F0.0431148568642474
sS'BCT'
p503
F0.006825938566552901
sS'BCU'
p504
F0.011422999233823223
sS'BSPR'
p505
F0.00679111234937661
sS'KMZ'
p506
F0.13930486870516123
sS'ETM'
p507
F0.0
sS'VRR'
p508
F0.020025074876366927
sS'TORI'
p509
F0.07554967379443245
sS'TVP'
p510
F0.0038308838893919344
sS'TVR'
p511
F0.022103039167885585
sS'VRB'
p512
F0.0
sS'VRG'
p513
F0.00679111234937661
sS'BPH'
p514
F0.05053284112279724
sS'VRI'
p515
F0.03418773652805832
sS'VRH'
p516
F0.00679111234937661
sS'SWC'
p517
F0.028348540781500314
sS'TVC'
p518
F0.010447865152887094
sS'VRL'
p519
F0.013570615959694459
sS'CJ'
p520
F0.0
sS'CI'
p521
F0.006582155046318869
sS'CH'
p522
F0.07838220612477073
sS'SRF'
p523
F0.00679111234937661
sS'SRE'
p524
F0.024738222934224886
sS'CC'
p525
F0.0035406654129228484
sS'ALLP'
p526
F0.011690000232174782
sS'SRO'
p527
F0.003401360544217687
sS'CE'
p528
F0.054839683313598474
sS'CD'
p529
F0.012061479882055212
sS'SRR'
p530
F0.03754266211604096
sS'MYA'
p531
F0.0008706554294072578
sS'SRP'
p532
F0.0
sS'SRW'
p533
F0.0
sS'SRT'
p534
F0.04202363539272364
sS'SRU'
p535
F0.0034942304566877944
sS'NGAN'
p536
F0.00679111234937661
sS'ADIJ'
p537
F0.003401360544217687
sS'SORO'
p538
F0.031831162499129345
sS'CW'
p539
F4.643495623505375e-05
sS'CT'
p540
F0.09275382507951986
sS'BPQ'
p541
F0.01935176801095865
sS'NMT'
p542
F0.013535789742518168
sS'TDO'
p543
F0.02016437974507209
sS'TDN'
p544
F0.0002205660421165053
sS'TDL'
p545
F0.05273850154396229
sS'HLX'
p546
F0.013535789742518168
sS'NMZ'
p547
F0.09664275266420562
sS'NMX'
p548
F0.0003482621717629031
sS'TDD'
p549
F0.09605070697220867
sS'BTTR'
p550
F0.08281674444521836
sS'MYG'
p551
F0.04699217570987439
sS'TDP'
p552
F0.0
sS'NMJ'
p553
F0.011678391493116018
sS'NMK'
p554
F0.01358222469875322
sS'BAGL'
p555
F0.006582155046318869
sS'PBKS'
p556
F0.00679111234937661
sS'BGUA'
p557
F0.013535789742518168
sS'CVR'
p558
F0.013535789742518168
sS'CVP'
p559
F0.04202363539272364
sS'PDKN'
p560
F0.0
sS'VARD'
p561
F0.0
sS'PDKT'
p562
F0.06668059715353718
sS'FHT'
p563
F0.001091221471523763
sS'SDGH'
p564
F0.02567853079798472
sS'JYM'
p565
F0.0430219869517773
sS'KKAH'
p566
F0.00024378352023403217
sS'QRP'
p567
F0.005363237445148708
sS'KTMA'
p568
F0.00679111234937661
sS'VSKP'
p569
F0.10893640732743609
sS'VG'
p570
F0.056952473822293424
sS'KMNR'
p571
F0.10479208748345754
sS'HPP'
p572
F0.026630447400803326
sS'VM'
p573
F0.0714401801676302
sS'VN'
p574
F0.01996703118107311
sS'HPT'
p575
F0.005340019967031181
sS'VR'
p576
F0.0029137935037496228
sS'VS'
p577
F0.04699217570987439
sS'VV'
p578
F0.00679111234937661
sS'KMNC'
p579
F0.00013930486870516125
sS'RJT'
p580
F0.04671356597246407
sS'RJR'
p581
F0.02567853079798472
sS'RJP'
p582
F0.0
sS'RJY'
p583
F0.10018341807712847
sS'RJG'
p584
F0.0986162383041954
sS'CNDB'
p585
F0.21843003412969283
sS'RJA'
p586
F0.00679111234937661
sS'RJO'
p587
F0.0
sS'RJN'
p588
F0.09844210721831395
sS'CNDM'
p589
F0.013535789742518168
sS'RJK'
p590
F0.03360729957512015
sS'WDA'
p591
F0.013535789742518168
sS'SIHO'
p592
F0.03704348633651413
sS'DRU'
p593
F0.018701678623667898
sS'WDM'
p594
F0.09370574168233846
sS'DRI'
p595
F0.006582155046318869
sS'DRH'
p596
F0.012827656659933599
sS'WDR'
p597
F0.040758282835318425
sS'DRL'
p598
F0.00037147964988043
sS'KRSL'
p599
F0.00679111234937661
sS'KRSA'
p600
F0.00037147964988043
sS'DRD'
p601
F0.0029137935037496228
sS'SIOB'
p602
F0.027338580483387893
sS'CTR'
p603
F0.0986162383041954
sS'BLND'
p604
F0.00679111234937661
sS'AYRN'
p605
F0.010494300109122147
sS'RDDE'
p606
F0.0
sS'RXL'
p607
F0.017807805716143113
sS'BGKT'
p608
F0.017610457152144134
sS'KWV'
p609
F0.08371061735274314
sS'SVHE'
p610
F0.02057068561212881
sS'KRAR'
p611
F0.056964082561352186
sS'SMPA'
p612
F0.0625478860486174
sS'MMVR'
p613
F0.00010447865152887093
sS'SMPR'
p614
F0.01358222469875322
sS'STLR'
p615
F0.006582155046318869
sS'KTHU'
p616
F0.013535789742518168
sS'KHED'
p617
F0.029532632165494184
sS'SRPJ'
p618
F0.0
sS'MLB'
p619
F0.02340321794246709
sS'HX'
p620
F0.0
sS'URGA'
p621
F0.010169255415476771
sS'PAIL'
p622
F0.0035754916300991387
sS'DHN'
p623
F0.0212091662603608
sS'RDRA'
p624
F0.00679111234937661
sS'HP'
p625
F0.021093078869773164
sS'SWR'
p626
F0.13333797682895684
sS'HW'
p627
F0.02029207587471849
sS'SURI'
p628
F0.12005757934573147
sS'HN'
p629
F0.04833878944069095
sS'DPUR'
p630
F0.00679111234937661
sS'HG'
p631
F0.021464558519653596
sS'HD'
p632
F0.051182930510087994
sS'MLG'
p633
F0.00374962271598059
sS'SCM'
p634
F0.1069977479046226
sS'SCL'
p635
F0.006802721088435374
sS'PTK'
p636
F0.02029207587471849
sS'MLD'
p637
F0.0
sS'PTH'
p638
F0.014360010215690371
sS'MNP'
p639
F0.008787815467483922
sS'MNQ'
p640
F0.0034826217176290313
sS'JMP'
p641
F0.013535789742518168
sS'JMV'
p642
F0.00679111234937661
sS'PTB'
p643
F0.000847437951289731
sS'PTA'
p644
F0.014360010215690371
sS'JMU'
p645
F0.008787815467483922
sS'JMK'
p646
F0.040050149752733855
sS'MNJ'
p647
F0.003401360544217687
sS'MNM'
p648
F0.06130575096932971
sS'MNO'
p649
F0.010494300109122147
sS'SCT'
p650
F0.006802721088435374
sS'PTU'
p651
F0.00037147964988043
sS'SCQ'
p652
F0.00679111234937661
sS'MNE'
p653
F0.05984304984792552
sS'MNF'
p654
F0.007417984258549836
sS'SLW'
p655
F0.014360010215690371
sS'CJN'
p656
F0.0
sS'PBP'
p657
F0.004910496621856934
sS'PBR'
p658
F0.006802721088435374
sS'MLN'
p659
F0.013535789742518168
sS'SRBA'
p660
F0.010169255415476771
sS'KEPR'
p661
F0.003087924589631074
sS'MLO'
p662
F0.0008126117341134406
sS'PBE'
p663
F0.013559007220635695
sS'SUNR'
p664
F0.0
sS'DHA'
p665
F0.0035754916300991387
sS'PBM'
p666
F0.00679111234937661
sS'CAPE'
p667
F0.006802721088435374
sS'PBN'
p668
F0.1476399433493534
sS'PBH'
p669
F0.026015184230688864
sS'RWTB'
p670
F0.00679111234937661
sS'MPA'
p671
F0.012978570267697522
sS'CDMR'
p672
F0.04253441991130923
sS'MPL'
p673
F0.03093728959160456
sS'AMPA'
p674
F0.005328411227972418
sS'MLP'
p675
F0.0176220658912029
sS'BPRD'
p676
F0.0
sS'AVN'
p677
F0.0
sS'MPU'
p678
F0.10018341807712847
sS'AVD'
p679
F0.0025655313319867196
sS'GOY'
p680
F0.047201133012932134
sS'BTIC'
p681
F0.0
sS'BPRH'
p682
F0.010169255415476771
sS'MPY'
p683
F0.0074295929976085995
sS'SUD'
p684
F0.1210907571219614
sS'SUA'
p685
F0.0
sS'DHW'
p686
F6.965243435258063e-05
sS'SUR'
p687
F0.055977339741357296
sS'DEEG'
p688
F0.040166237143321494
sS'DHT'
p689
F0.00679111234937661
sS'TEL'
p690
F0.11878061804926748
sS'TEN'
p691
F0.036521093078869776
sS'NBR'
p692
F0.0
sS'NBQ'
p693
F0.07214831325021476
sS'AJE'
p694
F0.00679111234937661
sS'NBI'
p695
F0.0024030089851640314
sS'NBH'
p696
F0.00374962271598059
sS'NBL'
p697
F0.021464558519653596
sS'NBA'
p698
F0.014360010215690371
sS'NBG'
p699
F0.0176220658912029
sS'NBD'
p700
F0.014034965522044996
sS'BRWD'
p701
F0.07770889925936245
sS'ADT'
p702
F0.0
sS'GMH'
p703
F0.001300178774581505
sS'DNA'
p704
F0.00013930486870516125
sS'ADQ'
p705
F0.0
sS'DNM'
p706
F0.0
sS'DNN'
p707
F6.965243435258063e-05
sS'GMD'
p708
F0.004573843189152794
sS'ADF'
p709
F0.09506396415221378
sS'DNT'
p710
F0.03316616749088714
sS'ADB'
p711
F0.008218987253604513
sS'DNR'
p712
F0.006802721088435374
sS'GMS'
p713
F0.006396415221378654
sS'GMR'
p714
F0.0035754916300991387
sS'ADH'
p715
F0.00679111234937661
sS'NAZJ'
p716
F0.0
sS'BRZ'
p717
F0.0004063058670567203
sS'KZT'
p718
F0.0
sS'BRW'
p719
F0.00679111234937661
sS'BRU'
p720
F0.056058600914768636
sS'KZY'
p721
F0.00679111234937661
sS'BRS'
p722
F0.027210884353741496
sS'BRR'
p723
F0.015428014209096608
sS'KZB'
p724
F0.00679111234937661
sS'GTNR'
p725
F0.01807480671449467
sS'KZA'
p726
F0.056058600914768636
sS'BRK'
p727
F0.0017645283369320424
sS'KZE'
p728
F0.00594367439808688
sS'KZJ'
p729
F0.00746441921478489
sS'KZK'
p730
F0.0038308838893919344
sS'BRE'
p731
F0.003401360544217687
sS'BRD'
p732
F0.09280026003575492
sS'BRC'
p733
F0.05110166933667665
sS'TWB'
p734
F0.012235610967936662
sS'TWG'
p735
F0.0035754916300991387
sS'DISA'
p736
F0.009612035940656126
sS'SEB'
p737
F0.0
sS'GJD'
p738
F0.0422906363910752
sS'RKSH'
p739
F0.006802721088435374
sS'BHKD'
p740
F0.07554967379443245
sS'VEER'
p741
F0.029532632165494184
sS'TLKH'
p742
F0.0
sS'RKD'
p743
F0.00679111234937661
sS'WIRR'
p744
F0.011318520582294352
sS'ODM'
p745
F0.0031111420677486013
sS'RKB'
p746
F6.965243435258063e-05
sS'RKM'
p747
F0.05021940516821063
sS'KLD'
p748
F0.06224605883308955
sS'KLG'
p749
F0.13733138306517145
sS'KLB'
p750
F0.0
sS'NWU'
p751
F0.059320656590281164
sS'KLL'
p752
F0.009612035940656126
sS'HOJ'
p753
F0.09664275266420562
sS'KLJ'
p754
F0.012456177010053167
sS'KLK'
p755
F0.013570615959694459
sS'KLT'
p756
F0.0572775185159388
sS'KLU'
p757
F0.14513245571266048
sS'KLP'
p758
F0.0
sS'GOGH'
p759
F0.07842864108100578
sS'SCI'
p760
F0.22619628056000557
sS'DND'
p761
F9.28699124701075e-05
sS'PTJ'
p762
F0.043254161732952566
sS'VST'
p763
F0.0
sS'VSU'
p764
F0.0031111420677486013
sS'DSPN'
p765
F0.00679111234937661
sS'SCE'
p766
F0.00679111234937661
sS'VSG'
p767
F0.006802721088435374
sS'BLAX'
p768
F0.00679111234937661
sS'AMB'
p769
F0.11393977386176314
sS'SVKS'
p770
F0.00679111234937661
sS'AME'
p771
F0.0
sS'HCNR'
p772
F0.00010447865152887093
sS'OYR'
p773
F0.0
sS'SHSK'
p774
F0.0037844489331568805
sS'LTRR'
p775
F0.1520512641916835
sS'SVKD'
p776
F0.00679111234937661
sS'JMT'
p777
F0.0170184114601472
sS'RYS'
p778
F0.0
sS'RYP'
p779
F0.005560586009147686
sS'RBGJ'
p780
F0.03541826286828725
sS'MNI'
p781
F0.029532632165494184
sS'BWSN'
p782
F0.005839195746558009
sS'HTZU'
p783
F0.005560586009147686
sS'SMQL'
p784
F0.0011028302105825266
sS'STKT'
p785
F0.005328411227972418
sS'KHDB'
p786
F0.00025539225929279563
sS'NLKR'
p787
F0.0
sS'BGTA'
p788
F0.004573843189152794
sS'VAK'
p789
F0.0038308838893919344
sS'JPH'
p790
F0.0031111420677486013
sS'NWB'
p791
F0.10620835364862669
sS'LHA'
p792
F0.008300248427015858
sS'ADTL'
p793
F0.008961946553365373
sS'MWRN'
p794
F0.010169255415476771
sS'LHU'
p795
F0.017505978500615263
sS'MHT'
p796
F0.010354995240416985
sS'ADTP'
p797
F0.001300178774581505
sS'DLGN'
p798
F0.02340321794246709
sS'YLG'
p799
F0.02165029834459381
sS'MND'
p800
F0.06224605883308955
sS'TAPA'
p801
F0.011422999233823223
sS'JJKR'
p802
F0.031831162499129345
sS'JMD'
p803
F0.0034129692832764505
sS'RASP'
p804
F0.054282463838777835
sS'BGU'
p805
F0.013187527570755265
sS'PCZ'
p806
F0.00679111234937661
sS'RLA'
p807
F0.00679111234937661
sS'PCV'
p808
F0.10237746975923476
sS'CMA'
p809
F0.0
sS'SV'
p810
F4.643495623505375e-05
sS'PCH'
p811
F0.014743098604629565
sS'PCN'
p812
F0.00037147964988043
sS'KCVL'
p813
F0.006802721088435374
sS'CMU'
p814
F0.0
sS'GUNA'
p815
F0.23543683685078126
sS'BGZ'
p816
F0.005990109354321933
sS'MAUR'
p817
F0.0004063058670567203
sS'CJM'
p818
F0.08281674444521836
sS'SGRL'
p819
F0.10861136263379072
sS'SGRM'
p820
F0.013535789742518168
sS'UVD'
p821
F0.0029137935037496228
sS'SGRA'
p822
F0.0003830883889391934
sS'MKDD'
p823
F0.00037147964988043
sS'ABFC'
p824
F0.0064428501776137076
sS'SL'
p825
F5.8043695293817184e-05
sS'DSS'
p826
F0.0
sS'DSO'
p827
F6.965243435258063e-05
sS'MAGH'
p828
F0.011318520582294352
sS'DSJ'
p829
F0.1548141440876692
sS'GRMT'
p830
F0.00679111234937661
sS'GRMP'
p831
F0.00679111234937661
sS'GRMR'
p832
F0.0032388381973949987
sS'DSA'
p833
F0.01891063592672564
sS'NDAE'
p834
F0.009310208725128277
sS'MA'
p835
F0.05442176870748299
sS'SGLA'
p836
F0.02340321794246709
sS'RWH'
p837
F0.0
sS'ML'
p838
F0.0031459682849248913
sS'MO'
p839
F0.05442176870748299
sS'PLMD'
p840
F0.056046992175709874
sS'RWL'
p841
F0.013559007220635695
sS'MK'
p842
F0.0
sS'MJ'
p843
F0.021093078869773164
sS'OKA'
p844
F0.0
sS'MW'
p845
F4.643495623505375e-05
sS'MV'
p846
F0.02628218522904042
sS'UHR'
p847
F0.02299691207541037
sS'MS'
p848
F0.053887766710779876
sS'ABP'
p849
F0.006152631701144622
sS'GLH'
p850
F8.126117341134406e-05
sS'DES'
p851
F0.010494300109122147
sS'DOL'
p852
F0.03704348633651413
sS'GLA'
p853
F0.005804369529381718
sS'AKP'
p854
F0.10406073692275546
sS'BRPL'
p855
F0.12828817533839473
sS'AKV'
p856
F0.04699217570987439
sS'DOD'
p857
F0.0030530983724547838
sS'GLG'
p858
F0.22619628056000557
sS'AKJ'
p859
F0.0162870608994451
sS'BRPT'
p860
F0.0
sS'AKN'
p861
F0.0074295929976085995
sS'PBL'
p862
F0.0
sS'GLP'
p863
F0.10406073692275546
sS'DOS'
p864
F0.06015648580251213
sS'AKE'
p865
F0.040758282835318425
sS'AKD'
p866
F0.009194121334540643
sS'PVRD'
p867
F0.0
sS'HKG'
p868
F0.12828817533839473
sS'MHAD'
p869
F0.0034129692832764505
sS'BSZ'
p870
F0.0036567528035104826
sS'BST'
p871
F0.06224605883308955
sS'BHTR'
p872
F4.643495623505375e-05
sS'HSP'
p873
F0.004213972278331128
sS'BSR'
p874
F0.021267209955654617
sS'BSL'
p875
F0.09169742982517239
sS'ZRDE'
p876
F4.643495623505375e-05
sS'BHTK'
p877
F0.02209143042882682
sS'BSE'
p878
F9.28699124701075e-05
sS'BSB'
p879
F0.03871514476097606
sS'BHTA'
p880
F0.00679111234937661
sS'AUB'
p881
F0.11513547398481577
sS'NZB'
p882
F0.040758282835318425
sS'BDWS'
p883
F0.11990666573796754
sS'SBR'
p884
F0.00013930486870516125
sS'PUN'
p885
F0.004028232453390913
sS'SBV'
p886
F0.00679111234937661
sS'SBT'
p887
F0.06392932599661025
sS'PUK'
p888
F0.01742471732720392
sS'SBZ'
p889
F0.056058600914768636
sS'JJR'
p890
F0.0
sS'MMS'
p891
F0.004028232453390913
sS'MMR'
p892
F0.10381695340252142
sS'SBB'
p893
F0.021232383738478328
sS'MML'
p894
F0.004573843189152794
sS'JJK'
p895
F0.00042952334517424716
sS'MMH'
p896
F0.0572775185159388
sS'MMK'
p897
F0.047839613661164127
sS'SBE'
p898
F0.0
sS'PUT'
p899
F0.0
sS'MMD'
p900
F0.00679111234937661
sS'SBI'
p901
F0.006268719091732256
sS'MMA'
p902
F0.008961946553365373
sS'SBO'
p903
F0.00749924543196118
sS'PUS'
p904
F0.0
sS'KOI'
p905
F0.02209143042882682
sS'SHNR'
p906
F0.006582155046318869
sS'BAT'
p907
F6.965243435258063e-05
sS'BAU'
p908
F0.0
sS'BAP'
p909
F0.039945671101204984
sS'BAQ'
p910
F0.22619628056000557
sS'BAZ'
p911
F0.07148661512386524
sS'BAY'
p912
F0.005340019967031181
sS'SJNP'
p913
F0.013535789742518168
sS'BAB'
p914
F0.04448468807318149
sS'WADI'
p915
F0.12186854263889857
sS'ERL'
p916
F0.0
sS'KOP'
p917
F0.006802721088435374
sS'ERN'
p918
F0.01742471732720392
sS'BAM'
p919
F0.004028232453390913
sS'KOU'
p920
F0.0
sS'BAI'
p921
F0.002426226463281558
sS'VPT'
p922
F0.048605790439042514
sS'NPNR'
p923
F0.0
sS'BJRI'
p924
F0.00679111234937661
sS'YFP'
p925
F0.011109563279236609
sS'SONI'
p926
F0.00679111234937661
sS'VPO'
p927
F0.021522602214947412
sS'CPDR'
p928
F0.07554967379443245
sS'JSME'
p929
F0.013257180005107845
sS'YPR'
p930
F0.031204290589956118
sS'BIO'
p931
F0.00037147964988043
sS'BNP'
p932
F0.005340019967031181
sS'STA'
p933
F0.0260035754916301
sS'STL'
p934
F0.008660119337837524
sS'BNW'
p935
F0.012224002228877899
sS'STN'
p936
F0.028754846648557035
sS'SADP'
p937
F0.12140419307654803
sS'STW'
p938
F0.010354995240416985
sS'STP'
p939
F0.011771261405586125
sS'GANG'
p940
F0.00024378352023403217
sS'STR'
p941
F0.0
sS'GANL'
p942
F0.020234032179424672
sS'BTRA'
p943
F0.0
sS'NCR'
p944
F0.00679111234937661
sS'KDNL'
p945
F0.00679111234937661
sS'QLN'
p946
F0.00797520373337048
sS'NCJ'
p947
F0.013570615959694459
sS'QLM'
p948
F0.018144459148847252
sS'QLD'
p949
F0.000847437951289731
sS'MWH'
p950
F0.003401360544217687
sS'MNDR'
p951
F5.8043695293817184e-05
sS'NRPA'
p952
F0.03704348633651413
sS'ROZA'
p953
F0.0
sS'SPTR'
p954
F0.0034129692832764505
sS'KNT'
p955
F0.009670079635949944
sS'RU'
p956
F0.02367021894081865
sS'RV'
p957
F0.0
sS'RS'
p958
F0.0017645283369320424
sS'HDA'
p959
F0.000847437951289731
sS'RE'
p960
F0.0415941120475494
sS'RG'
p961
F0.057556128253349124
sS'KTKL'
p962
F0.0004063058670567203
sS'BNE'
p963
F0.004573843189152794
sS'RC'
p964
F0.12140419307654803
sS'RM'
p965
F0.0034129692832764505
sS'RN'
p966
F0.029532632165494184
sS'NED'
p967
F0.05104362564138283
sS'RK'
p968
F0.020152771006013325
sS'TPF'
p969
F0.0
sS'KOLR'
p970
F0.004213972278331128
sS'AVRD'
p971
F0.029532632165494184
sS'HRT'
p972
F0.00679111234937661
sS'HRW'
p973
F0.00679111234937661
sS'TPK'
p974
F0.00679111234937661
sS'TPJ'
p975
F0.09224304056093427
sS'HRS'
p976
F0.04903531378421676
sS'TPH'
p977
F0.014058183000162523
sS'TPU'
p978
F0.006802721088435374
sS'TPT'
p979
F0.01915441944695967
sS'HRI'
p980
F0.0
sS'HRG'
p981
F0.00679111234937661
sS'TPZ'
p982
F0.0011724826449351071
sS'TPY'
p983
F0.00679111234937661
sS'HRB'
p984
F0.02209143042882682
sS'KAD'
p985
F0.00046434956235053747
sS'KAJ'
p986
F0.00679111234937661
sS'KAH'
p987
F0.22619628056000557
sS'KAN'
p988
F0.015985233683917254
sS'RTGH'
p989
F0.02567853079798472
sS'KAR'
p990
F0.0
sS'KAP'
p991
F0.012456177010053167
sS'NIRA'
p992
F0.0
sS'BUPH'
p993
F0.012061479882055212
sS'RHA'
p994
F0.01080773606370876
sS'RHE'
p995
F0.0168907153305008
sS'RHG'
p996
F2.3217478117526874e-05
sS'DING'
p997
F8.126117341134406e-05
sS'NIA'
p998
F0.05288941515172622
sS'WFD'
p999
F0.0008126117341134406
sS'SCH'
p1000
F0.00749924543196118
sS'DINR'
p1001
F0.01742471732720392
sS'NEW'
p1002
F0.026630447400803326
sS'KTYM'
p1003
F0.0
sS'MTDM'
p1004
F0.006802721088435374
sS'PLNI'
p1005
F0.006802721088435374
sS'RTA'
p1006
F0.08174874045181213
sS'RTM'
p1007
F0.009449513593833437
sS'DMNJ'
p1008
F0.013535789742518168
sS'RTI'
p1009
F0.00037147964988043
sS'SNSI'
p1010
F0.006802721088435374
sS'RTP'
p1011
F0.004132711104919784
sS'UGR'
p1012
F0.014743098604629565
sS'ANND'
p1013
F0.04802535348610434
sS'SVJR'
p1014
F0.00046434956235053747
sS'HDL'
p1015
F0.0
sS'G'
p1016
F0.1032829514058183
sS'KRCD'
p1017
F0.0430219869517773
sS'KIUL'
p1018
F0.021081470130714403
sS'RFJ'
p1019
F0.06015648580251213
sS'MB'
p1020
F0.038274012676743054
sS'ROHA'
p1021
F0.029532632165494184
sS'TUNI'
p1022
F0.10406073692275546
sS'ANPR'
p1023
F0.00679111234937661
sS'STJT'
p1024
F0.0
sS'CLDY'
p1025
F0.054839683313598474
sS'TLMR'
p1026
F0.00679111234937661
sS'ATE'
p1027
F0.028348540781500314
sS'ATL'
p1028
F0.009855819460890158
sS'PPI'
p1029
F0.004573843189152794
sS'UREN'
p1030
F0.012827656659933599
sS'ATH'
p1031
F0.07148661512386524
sS'BKI'
p1032
F0.002426226463281558
sS'DDCE'
p1033
F0.008961946553365373
sS'ATT'
p1034
F0.006802721088435374
sS'ATU'
p1035
F0.0013233962526990317
sS'ATS'
p1036
F0.12828817533839473
sS'ISM'
p1037
F0.005990109354321933
sS'ISA'
p1038
F0.003610317847275429
sS'JKPR'
p1039
F0.00010447865152887093
sS'KRBP'
p1040
F0.03704348633651413
sS'PVP'
p1041
F0.10296951545123169
sS'SEU'
p1042
F0.021093078869773164
sS'PVR'
p1043
F0.02340321794246709
sS'PVU'
p1044
F0.0038308838893919344
sS'KOJ'
p1045
F0.07214831325021476
sS'SEG'
p1046
F0.03836688258921316
sS'JKN'
p1047
F0.01151586914629333
sS'SED'
p1048
F0.014743098604629565
sS'PVD'
p1049
F0.10863458011190824
sS'SEO'
p1050
F0.009670079635949944
sS'JKE'
p1051
F0.0
sS'SEM'
p1052
F0.09275382507951986
sS'SASN'
p1053
F0.06983817417752083
sS'JKA'
p1054
F0.054839683313598474
sS'JKB'
p1055
F0.00679111234937661
sS'SEH'
p1056
F0.009194121334540643
sS'KUA'
p1057
F0.0035754916300991387
sS'CLJ'
p1058
F0.06733068654082794
sS'PDW'
p1059
F0.00679111234937661
sS'PDU'
p1060
F0.004028232453390913
sS'CLG'
p1061
F0.00749924543196118
sS'PDR'
p1062
F0.0017645283369320424
sS'PDL'
p1063
F0.02533026862622182
sS'CLX'
p1064
F0.08281674444521836
sS'VJPJ'
p1065
F0.013535789742518168
sS'PDH'
p1066
F0.020025074876366927
sS'CLT'
p1067
F0.000847437951289731
sS'CLU'
p1068
F0.00679111234937661
sS'PDE'
p1069
F0.00679111234937661
sS'PDD'
p1070
F0.01232848088040677
sS'CLR'
p1071
F0.018144459148847252
sS'SKPI'
p1072
F0.0
sS'RHMA'
p1073
F0.00679111234937661
sS'BRGT'
p1074
F0.004573843189152794
sS'BRGW'
p1075
F0.10620835364862669
sS'BIA'
p1076
F0.09507557289127255
sS'TET'
p1077
F0.016461191985326553
sS'KWAE'
p1078
F0.009310208725128277
sS'KAWR'
p1079
F0.018388242669081286
sS'BRGA'
p1080
F0.12828817533839473
sS'CHPT'
p1081
F0.00679111234937661
sS'BRGM'
p1082
F0.00679111234937661
sS'RGD'
p1083
F0.006802721088435374
sS'PAD'
p1084
F0.0029137935037496228
sS'BPA'
p1085
F0.0072438531726683845
sS'DO'
p1086
F0.002426226463281558
sS'DL'
p1087
F0.0
sS'BPB'
p1088
F0.013559007220635695
sS'SWM'
p1089
F0.003610317847275429
sS'JYP'
p1090
F0.00679111234937661
sS'BPF'
p1091
F0.051182930510087994
sS'SWA'
p1092
F0.06224605883308955
sS'DG'
p1093
F0.013257180005107845
sS'DD'
p1094
F0.0437185112953031
sS'NGNT'
p1095
F0.0
sS'SWE'
p1096
F0.021522602214947412
sS'BPL'
p1097
F0.23813006431241437
sS'JHS'
p1098
F0.07493441062431799
sS'MGLP'
p1099
F0.005990109354321933
sS'JYG'
p1100
F0.006802721088435374
sS'BPR'
p1101
F0.00679111234937661
sS'AUBR'
p1102
F0.06015648580251213
sS'GMO'
p1103
F0.0422906363910752
sS'BPZ'
p1104
F4.643495623505375e-05
sS'DR'
p1105
F0.013570615959694459
sS'SWV'
p1106
F0.03137842167583757
sS'TGP'
p1107
F0.0
sS'TGQ'
p1108
F0.02209143042882682
sS'TGU'
p1109
F0.009403078637598384
sS'NANA'
p1110
F0.0
sS'GYN'
p1111
F4.643495623505375e-05
sS'GYM'
p1112
F0.01996703118107311
sS'MDPB'
p1113
F0.013535789742518168
sS'ANK'
p1114
F0.0070000696524343525
sS'KDMR'
p1115
F0.00679111234937661
sS'NMKL'
p1116
F0.054282463838777835
sS'TGA'
p1117
F0.0
sS'BDHY'
p1118
F0.013535789742518168
sS'NANR'
p1119
F0.00010447865152887093
sS'TGN'
p1120
F0.00046434956235053747
sS'DHO'
p1121
F0.18006315154047967
sS'GOL'
p1122
F0.13333797682895684
sS'GOH'
p1123
F0.0
sS'DHI'
p1124
F0.0034129692832764505
sS'DHG'
p1125
F0.0455294745884702
sS'LMNR'
p1126
F0.00679111234937661
sS'DHD'
p1127
F0.00037147964988043
sS'GOA'
p1128
F0.00679111234937661
sS'AJU'
p1129
F0.0085092057300736
sS'GOC'
p1130
F0.03286434027535929
sS'AJI'
p1131
F0.0
sS'AJJ'
p1132
F0.0025655313319867196
sS'MLV'
p1133
F0.10936593067261034
sS'LKMR'
p1134
F0.013535789742518168
sS'MLZ'
p1135
F0.0
sS'MLY'
p1136
F0.0
sS'GOP'
p1137
F0.00020895730305774186
sS'PTKP'
p1138
F0.004213972278331128
sS'NRI'
p1139
F0.013918878131457361
sS'NRO'
p1140
F0.0
sS'NRM'
p1141
F0.0
sS'NRL'
p1142
F0.00046434956235053747
sS'NRG'
p1143
F6.965243435258063e-05
sS'NRE'
p1144
F0.0
sS'PND'
p1145
F0.02209143042882682
sS'PTKC'
p1146
F0.02016437974507209
sS'BHUJ'
p1147
F0.006802721088435374
sS'PTKD'
p1148
F0.00679111234937661
sS'NRS'
p1149
F2.3217478117526874e-05
sS'NRR'
p1150
F0.12140419307654803
sS'NRP'
p1151
F0.0
sS'NRW'
p1152
F0.0004991757795268278
sS'CKHS'
p1153
F0.0
sS'NRT'
p1154
F0.021569037171182467
sS'RGPM'
p1155
F0.0072438531726683845
sS'WC'
p1156
F0.0
sS'TQA'
p1157
F0.004747974275034246
sS'TQM'
p1158
F0.0034129692832764505
sS'TQN'
p1159
F0.0017645283369320424
sS'WL'
p1160
F0.005804369529381718
sS'ZNA'
p1161
F0.0035754916300991387
sS'WR'
p1162
F0.003633535325392956
sS'BARH'
p1163
F0.009855819460890158
sS'BARL'
p1164
F8.126117341134406e-05
sS'GHQ'
p1165
F0.09370574168233846
sS'HSA'
p1166
F0.09664275266420562
sS'HSD'
p1167
F0.02165029834459381
sS'KRMI'
p1168
F0.02640988135868682
sS'HSK'
p1169
F0.056964082561352186
sS'HSI'
p1170
F0.03472173852476144
sS'HSR'
p1171
F0.015079752037333706
sS'KKHT'
p1172
F0.00679111234937661
sS'RIG'
p1173
F0.053957419145132454
sS'HSX'
p1174
F0.006802721088435374
sS'BJMD'
p1175
F0.00679111234937661
sS'KNN'
p1176
F0.0
sS'BNZ'
p1177
F0.01807480671449467
sS'KNL'
p1178
F8.126117341134406e-05
sS'KNJ'
p1179
F0.00679111234937661
sS'PASA'
p1180
F0.0
sS'HAN'
p1181
F0.0
sS'BNR'
p1182
F0.01029695154512317
sS'KND'
p1183
F0.001300178774581505
sS'KNE'
p1184
F0.12152028046713566
sS'HAD'
p1185
F0.005328411227972418
sS'BNV'
p1186
F0.09664275266420562
sS'BNU'
p1187
F0.0
sS'BNT'
p1188
F0.00042952334517424716
sS'BNI'
p1189
F0.23274360938914815
sS'BNN'
p1190
F0.011422999233823223
sS'BNC'
p1191
F1.1608739058763437e-05
sS'KNW'
p1192
F0.051182930510087994
sS'HAR'
p1193
F0.0036567528035104826
sS'HAS'
p1194
F0.01452253256251306
sS'KNP'
p1195
F0.014743098604629565
sS'MJBT'
p1196
F0.00679111234937661
sS'SYC'
p1197
F5.8043695293817184e-05
sS'SYA'
p1198
F0.0
sS'GADJ'
p1199
F0.002426226463281558
sS'SYJ'
p1200
F0.04253441991130923
sS'GAYA'
p1201
F0.0860439739035546
sS'SYN'
p1202
F0.04699217570987439
sS'MEM'
p1203
F0.021522602214947412
sS'LXA'
p1204
F0.0
sS'PM'
p1205
F0.005839195746558009
sS'DNWH'
p1206
F0.00679111234937661
sS'RGP'
p1207
F0.004910496621856934
sS'RGS'
p1208
F0.01358222469875322
sS'RGU'
p1209
F0.0036567528035104826
sS'BELA'
p1210
F0.02005990109354322
sS'ST'
p1211
F0.05294745884702003
sS'KRBA'
p1212
F0.010192472893594299
sS'RGH'
p1213
F0.015613754034036822
sS'RGJ'
p1214
F0.00679111234937661
sS'RGL'
p1215
F0.1067423556453298
sS'RGO'
p1216
F0.00037147964988043
sS'GDA'
p1217
F0.00037147964988043
sS'DKJ'
p1218
F0.009078033943953007
sS'SRUR'
p1219
F0.011318520582294352
sS'LDH'
p1220
F0.05437533375124794
sS'PDPL'
p1221
F0.009124468900188061
sS'JRU'
p1222
F0.02165029834459381
sS'MEP'
p1223
F0.0
sS'VGN'
p1224
F0.0029137935037496228
sS'ADVI'
p1225
F0.029532632165494184
sS'MOT'
p1226
F0.007313505607020965
sS'LJN'
p1227
F0.038053446634626543
sS'VGE'
p1228
F0.0013233962526990317
sS'BRH'
p1229
F0.00679111234937661
sS'DNEA'
p1230
F0.0
sS'SAI'
p1231
F0.01029695154512317
sS'BRG'
p1232
F0.03880801467344617
sS'SAH'
p1233
F0.0029137935037496228
sS'SCKR'
p1234
F0.004573843189152794
sS'LJR'
p1235
F0.1192217501335005
sS'MOGA'
p1236
F0.012235610967936662
sS'GDO'
p1237
F0.040166237143321494
sS'SBHR'
p1238
F0.008927120336189084
sS'SRGT'
p1239
F0.013535789742518168
sS'COR'
p1240
F0.06608855146154025
sS'PRI'
p1241
F0.0
sS'PEP'
p1242
F0.015242274384156393
sS'PER'
p1243
F0.003076315850572311
sS'PES'
p1244
F0.06015648580251213
sS'COA'
p1245
F0.006802721088435374
sS'PEM'
p1246
F0.0201295535278958
sS'PEH'
p1247
F0.00013930486870516125
sS'COI'
p1248
F0.007417984258549836
sS'DAVM'
p1249
F0.0
sS'SRGM'
p1250
F0.03286434027535929
sS'PEC'
p1251
F0.00679111234937661
sS'ZBD'
p1252
F0.0032388381973949987
sS'JOA'
p1253
F0.14726846369947297
sS'OKHA'
p1254
F0.006802721088435374
sS'SNLR'
p1255
F0.017308629936616284
sS'KSP'
p1256
F0.006872373522787955
sS'MRGA'
p1257
F0.025852661883866174
sS'UDL'
p1258
F0.0
sS'SAP'
p1259
F0.025852661883866174
sS'SGBJ'
p1260
F0.051182930510087994
sS'RUM'
p1261
F0.0
sS'RUB'
p1262
F0.003401360544217687
sS'JOL'
p1263
F0.00679111234937661
sS'BLMR'
p1264
F0.0
sS'SNRR'
p1265
F0.0
sS'BLMK'
p1266
F0.0
sS'RUR'
p1267
F0.0
sS'JRC'
p1268
F0.039492930277913216
sS'OEA'
p1269
F0.004213972278331128
sS'SAT'
p1270
F0.00037147964988043
sS'TELO'
p1271
F0.022451301339648486
sS'DIL'
p1272
F0.0
sS'GNS'
p1273
F0.00679111234937661
sS'GNP'
p1274
F0.004910496621856934
sS'MKC'
p1275
F0.01954911657495763
sS'MKB'
p1276
F0.03206333728030461
sS'MKA'
p1277
F0.009855819460890158
sS'GNU'
p1278
F0.0
sS'MKO'
p1279
F0.031831162499129345
sS'BRRG'
p1280
F0.010354995240416985
sS'BTBR'
p1281
F0.010923823454296395
sS'KSNG'
p1282
F0.11771261405586125
sS'JHL'
p1283
F0.009136077639246825
sS'JHN'
p1284
F0.06015648580251213
sS'GNC'
p1285
F0.006802721088435374
sS'MKU'
p1286
F0.08954981309930116
sS'GNA'
p1287
F0.0018573982494021499
sS'AII'
p1288
F0.028511063128323
sS'GNG'
p1289
F0.0
sS'JHW'
p1290
F0.0
sS'MKP'
p1291
F0.04809500592045692
sS'CHD'
p1292
F0.04687608831928676
sS'GNH'
p1293
F0.14726846369947297
sS'MKX'
p1294
F0.0
sS'GTST'
p1295
F0.010354995240416985
sS'NSL'
p1296
F0.00709293956490446
sS'DLJ'
p1297
F0.013559007220635695
sS'NSD'
p1298
F0.01519583942792134
sS'MNSR'
p1299
F0.0003830883889391934
sS'CHH'
p1300
F0.0
sS'PVPT'
p1301
F0.10296951545123169
sS'JAT'
p1302
F0.013570615959694459
sS'CNGR'
p1303
F0.0
sS'UTA'
p1304
F0.0
sS'CHL'
p1305
F0.0
sS'UTL'
p1306
F0.00679111234937661
sS'UTR'
p1307
F0.00024378352023403217
sS'VPDA'
p1308
F0.010494300109122147
sS'SDT'
p1309
F0.01151586914629333
sS'MRL'
p1310
F0.00749924543196118
sS'BNSA'
p1311
F0.00679111234937661
sS'PWS'
p1312
F0.003215620719277472
sS'SDS'
p1313
F0.0017993545541083328
sS'JAL'
p1314
F0.0
sS'SDE'
p1315
F0.0035754916300991387
sS'SDF'
p1316
F0.02567853079798472
sS'SDB'
p1317
F0.02957906712172924
sS'SDL'
p1318
F0.027210884353741496
sS'SDN'
p1319
F0.006744677393141557
sS'KAJG'
p1320
F0.00037147964988043
sS'DGHA'
p1321
F0.006802721088435374
sS'NAB'
p1322
F0.0085092057300736
sS'KQR'
p1323
F0.0422906363910752
sS'CHV'
p1324
F0.00594367439808688
sS'KQU'
p1325
F0.02533026862622182
sS'KQT'
p1326
F0.09275382507951986
sS'HBD'
p1327
F0.23274360938914815
sS'BOR'
p1328
F0.0029137935037496228
sS'NAN'
p1329
F0.029532632165494184
sS'NAM'
p1330
F0.0
sS'NAS'
p1331
F0.00679111234937661
sS'BOJ'
p1332
F0.0
sS'NAW'
p1333
F0.09275382507951986
sS'NAT'
p1334
F0.0074295929976085995
sS'KQK'
p1335
F0.00594367439808688
sS'KQI'
p1336
F0.013535789742518168
sS'BOD'
p1337
F0.008660119337837524
sS'KQN'
p1338
F0.006744677393141557
sS'BOF'
p1339
F0.00679111234937661
sS'BOG'
p1340
F0.00037147964988043
sS'YDM'
p1341
F0.008927120336189084
sS'HRPG'
p1342
F0.003087924589631074
sS'DEHR'
p1343
F0.0
sS'MLMR'
p1344
F0.047839613661164127
sS'SXT'
p1345
F0.0013233962526990317
sS'JAA'
p1346
F0.1616981263495159
sS'VVB'
p1347
F0.018098024192612198
sS'RMJK'
p1348
F0.00679111234937661
sS'BQG'
p1349
F0.00679111234937661
sS'SVM'
p1350
F0.018144459148847252
sS'GOTN'
p1351
F6.965243435258063e-05
sS'MGME'
p1352
F0.07554967379443245
sS'BQA'
p1353
F0.0031111420677486013
sS'SVA'
p1354
F0.0
sS'AMRO'
p1355
F0.006338371526084837
sS'BQR'
p1356
F0.09507557289127255
sS'JVN'
p1357
F0.0
sS'SVX'
p1358
F0.029532632165494184
sS'SVV'
p1359
F0.00679111234937661
sS'FSP'
p1360
F0.0
sS'BOKR'
p1361
F0.0037844489331568805
sS'UMD'
p1362
F0.048988878827981704
sS'APR'
p1363
F0.028046713565972464
sS'BTPD'
p1364
F0.00679111234937661
sS'LKN'
p1365
F0.0222887789928258
sS'LKO'
p1366
F0.023821132548582574
sS'VDS'
p1367
F0.0170184114601472
sS'SMBX'
p1368
F0.013535789742518168
sS'LKE'
p1369
F0.003610317847275429
sS'LKA'
p1370
F0.040050149752733855
sS'VDA'
p1371
F0.04802535348610434
sS'SMBL'
p1372
F0.006396415221378654
sS'GVI'
p1373
F0.004028232453390913
sS'SMBJ'
p1374
F0.0
sS'APT'
p1375
F0.10018341807712847
sS'LKW'
p1376
F0.00679111234937661
sS'LKU'
p1377
F0.013570615959694459
sS'LKR'
p1378
F0.0476887000534002
sS'VDL'
p1379
F0.025620487102690905
sS'VZM'
p1380
F0.1069977479046226
sS'APK'
p1381
F0.04817626709386826
sS'AF'
p1382
F0.007777855169371503
sS'TRK'
p1383
F0.021627080866476283
sS'TRL'
p1384
F0.0025655313319867196
sS'TRO'
p1385
F0.09280026003575492
sS'MCA'
p1386
F0.025945531796336282
sS'TRB'
p1387
F0.00787072508184161
sS'HBLN'
p1388
F0.006582155046318869
sS'GVG'
p1389
F0.0
sS'GVD'
p1390
F0.0029137935037496228
sS'TRS'
p1391
F0.00679111234937661
sS'TRR'
p1392
F0.0
sS'TRT'
p1393
F0.0025655313319867196
sS'KCD'
p1394
F0.021569037171182467
sS'KCG'
p1395
F0.012235610967936662
sS'KCA'
p1396
F0.0035754916300991387
sS'KCC'
p1397
F0.0
sS'BJNR'
p1398
F0.01519583942792134
sS'HTL'
p1399
F0.013535789742518168
sS'HTK'
p1400
F0.00679111234937661
sS'KCJ'
p1401
F0.0
sS'KCV'
p1402
F0.00679111234937661
sS'HLKT'
p1403
F0.0
sS'HTZ'
p1404
F0.030797984722899397
sS'KDPR'
p1405
F0.09268417264516728
sS'RANI'
p1406
F0.0
sS'TNM'
p1407
F0.021627080866476283
sS'KSV'
p1408
F0.0
sS'BDCR'
p1409
F0.00679111234937661
sS'ABKA'
p1410
F0.009310208725128277
sS'SILO'
p1411
F0.00679111234937661
sS'NH'
p1412
F0.011504260407234566
sS'MAJN'
p1413
F0.020350119570012305
sS'NK'
p1414
F0.054967379443244875
sS'NN'
p1415
F0.03836688258921316
sS'NB'
p1416
F0.0
sS'ND'
p1417
F0.04802535348610434
sS'RRB'
p1418
F0.026943883355389938
sS'NG'
p1419
F0.0
sS'MLHA'
p1420
F0.013535789742518168
sS'MCRD'
p1421
F0.00679111234937661
sS'ODC'
p1422
F0.00679111234937661
sS'RRS'
p1423
F0.004747974275034246
sS'NU'
p1424
F0.004573843189152794
sS'NW'
p1425
F0.12140419307654803
sS'RDP'
p1426
F0.006802721088435374
sS'BCOB'
p1427
F0.013535789742518168
sS'ELM'
p1428
F0.00594367439808688
sS'J'
p1429
F0.00037147964988043
sS'RRME'
p1430
F0.0
sS'NGI'
p1431
F0.011097954540177845
sS'AKOR'
p1432
F0.02957906712172924
sS'KMDR'
p1433
F0.011109563279236609
sS'RDM'
p1434
F0.0072438531726683845
sS'RDL'
p1435
F0.014360010215690371
sS'HDE'
p1436
F0.0032504469364537623
sS'FBG'
p1437
F0.00679111234937661
sS'SRTN'
p1438
F0.013535789742518168
sS'BBMN'
p1439
F0.013535789742518168
sS'FBD'
p1440
F0.01703002019920596
sS'NGR'
p1441
F0.02057068561212881
sS'USL'
p1442
F0.02209143042882682
sS'ANVT'
p1443
F0.006802721088435374
sS'DMBR'
p1444
F0.0
sS'MHPE'
p1445
F0.0
sS'AZR'
p1446
F0.08195769775486987
sS'KGA'
p1447
F0.003401360544217687
sS'SGZ'
p1448
F0.0
sS'SGP'
p1449
F0.004573843189152794
sS'SGS'
p1450
F0.00679111234937661
sS'SGR'
p1451
F0.029532632165494184
sS'BNTL'
p1452
F0.008927120336189084
sS'SGJ'
p1453
F0.014360010215690371
sS'RSNR'
p1454
F0.0
sS'SGO'
p1455
F0.13511411390494765
sS'SGE'
p1456
F0.05937870028557498
sS'SGD'
p1457
F0.00679111234937661
sS'SGG'
p1458
F0.0074295929976085995
sS'SGF'
p1459
F0.0003830883889391934
sS'KGG'
p1460
F0.06253627730955863
sS'NLP'
p1461
F0.00679111234937661
sS'BHBK'
p1462
F0.0037844489331568805
sS'CND'
p1463
F0.0
sS'NLR'
p1464
F0.08281674444521836
sS'CNB'
p1465
F0.06316314921873187
sS'CNC'
p1466
F0.014743098604629565
sS'CNA'
p1467
F0.0625478860486174
sS'CNO'
p1468
F0.017575630934967845
sS'CNK'
p1469
F0.01155069536346962
sS'CNI'
p1470
F0.001300178774581505
sS'BMD'
p1471
F0.09605070697220867
sS'MTHP'
p1472
F0.00679111234937661
sS'MRTL'
p1473
F0.02016437974507209
sS'SZM'
p1474
F0.006930417218081772
sS'PFM'
p1475
F0.02472661419516612
sS'DXN'
p1476
F0.09370574168233846
sS'PFR'
p1477
F0.010354995240416985
sS'BRAG'
p1478
F0.012038262403937685
sS'INDB'
p1479
F0.006802721088435374
sS'DXG'
p1480
F0.059320656590281164
sS'KAYR'
p1481
F0.005839195746558009
sS'SIR'
p1482
F0.0
sS'SIQ'
p1483
F0.003087924589631074
sS'SIP'
p1484
F0.010354995240416985
sS'SIW'
p1485
F0.0
sS'JWP'
p1486
F0.020234032179424672
sS'TPTY'
p1487
F0.028255670869030206
sS'GNVR'
p1488
F0.012061479882055212
sS'JWO'
p1489
F0.00374962271598059
sS'JWB'
p1490
F0.0
sS'SAGR'
p1491
F0.00024378352023403217
sS'SIL'
p1492
F0.00679111234937661
sS'BDVT'
p1493
F0.013535789742518168
sS'SLKR'
p1494
F0.02209143042882682
sS'SOJN'
p1495
F0.00679111234937661
sS'TAZ'
p1496
F0.0
sS'TAE'
p1497
F0.012061479882055212
sS'BDVL'
p1498
F0.006582155046318869
sS'TKR'
p1499
F0.0
sS'TAN'
p1500
F0.01954911657495763
sS'MJF'
p1501
F0.040758282835318425
sS'MJG'
p1502
F0.022219126558473218
sS'MJA'
p1503
F0.007417984258549836
sS'MJL'
p1504
F0.056058600914768636
sS'DJX'
p1505
F0.12828817533839473
sS'MJN'
p1506
F0.00679111234937661
sS'DJA'
p1507
F0.013535789742518168
sS'GID'
p1508
F0.021569037171182467
sS'DJG'
p1509
F0.0
sS'MJS'
p1510
F0.00594367439808688
sS'BBTR'
p1511
F0.18486916951080773
sS'AHA'
p1512
F0.012827656659933599
sS'RUL'
p1513
F0.0
sS'NPK'
p1514
F0.013535789742518168
sS'NPD'
p1515
F0.056964082561352186
sS'AHH'
p1516
F0.005363237445148708
sS'MJRI'
p1517
F0.014499315084395533
sS'JRLI'
p1518
F0.00010447865152887093
sS'CDGR'
p1519
F0.0031111420677486013
sS'JRLE'
p1520
F0.009913863156183976
sS'NPS'
p1521
F0.02567853079798472
sS'HGT'
p1522
F0.011097954540177845
sS'GUG'
p1523
F0.13726173063081887
sS'TSK'
p1524
F0.00679111234937661
sS'NMGT'
p1525
F0.00679111234937661
sS'TSI'
p1526
F0.00679111234937661
sS'TSF'
p1527
F0.06560098442107218
sS'GUH'
p1528
F0.003958580019038332
sS'SHR'
p1529
F0.008961946553365373
sS'TSA'
p1530
F0.0
sS'BDDR'
p1531
F0.013535789742518168
sS'GUR'
p1532
F0.02957906712172924
sS'GUP'
p1533
F0.00679111234937661
sS'GUV'
p1534
F0.006802721088435374
sS'DWLE'
p1535
F0.00679111234937661
sS'TSR'
p1536
F0.08281674444521836
sS'KBJ'
p1537
F0.056964082561352186
sS'KBN'
p1538
F0.003401360544217687
sS'KBL'
p1539
F0.005340019967031181
sS'KBM'
p1540
F0.004028232453390913
sS'HLDD'
p1541
F0.013489354786283114
sS'DLD'
p1542
F0.0030530983724547838
sS'PGRL'
p1543
F0.025852661883866174
sS'KBY'
p1544
F0.00679111234937661
sS'HUP'
p1545
F0.1094704093241392
sS'BSYA'
p1546
F0.0176220658912029
sS'JTW'
p1547
F0.022219126558473218
sS'HLDR'
p1548
F5.8043695293817184e-05
sS'HCR'
p1549
F0.09268417264516728
sS'KPQ'
p1550
F0.00594367439808688
sS'HCP'
p1551
F0.00024378352023403217
sS'KPV'
p1552
F0.00679111234937661
sS'BLZ'
p1553
F0.0004063058670567203
sS'BLU'
p1554
F0.012456177010053167
sS'BLT'
p1555
F0.00679111234937661
sS'BLW'
p1556
F0.01155069536346962
sS'NFK'
p1557
F0.10039237538018621
sS'BLS'
p1558
F0.031831162499129345
sS'BLM'
p1559
F0.0
sS'KPD'
p1560
F0.04356759768753918
sS'BLK'
p1561
F0.0064428501776137076
sS'KPG'
p1562
F0.043254161732952566
sS'BLD'
p1563
F0.0029137935037496228
sS'BLG'
p1564
F0.006152631701144622
sS'KPN'
p1565
F0.0008126117341134406
sS'DEOR'
p1566
F0.017308629936616284
sS'DEOS'
p1567
F0.0035406654129228484
sS'EKM'
p1568
F0.0
sS'KTHD'
p1569
F0.010169255415476771
sS'EKI'
p1570
F0.09726962457337884
sS'JTJ'
p1571
F0.01996703118107311
sS'EKC'
p1572
F0.00749924543196118
sS'RECH'
p1573
F0.0072438531726683845
sS'REJ'
p1574
F0.00679111234937661
sS'REI'
p1575
F0.0
sS'REN'
p1576
F0.00013930486870516125
sS'CLF'
p1577
F0.02209143042882682
sS'SVGA'
p1578
F0.06049313923521627
sS'EKR'
p1579
F0.00679111234937661
sS'JHD'
p1580
F0.02005990109354322
sS'LFG'
p1581
F0.013535789742518168
sS'GNT'
p1582
F0.05017297021197557
sS'PDRD'
p1583
F0.003087924589631074
sS'MKN'
p1584
F0.00013930486870516125
sS'NTSK'
p1585
F0.00679111234937661
sS'LTR'
p1586
F0.0
sS'DIG'
p1587
F0.10863458011190824
sS'LTT'
p1588
F0.006802721088435374
sS'KXJ'
p1589
F0.00679111234937661
sS'DIA'
p1590
F0.0
sS'LTA'
p1591
F0.00679111234937661
sS'SDBH'
p1592
F0.00013930486870516125
sS'LTD'
p1593
F0.013535789742518168
sS'BTQ'
p1594
F0.00679111234937661
sS'MKH'
p1595
F2.3217478117526874e-05
sS'BTU'
p1596
F0.0011028302105825266
sS'MGF'
p1597
F0.005920456919969353
sS'SY'
p1598
F0.025620487102690905
sS'BTS'
p1599
F0.03316616749088714
sS'FTP'
p1600
F0.003401360544217687
sS'TDLE'
p1601
F0.0880406770216619
sS'SYWN'
p1602
F0.003401360544217687
sS'SI'
p1603
F0.045041907548002136
sS'RPAN'
p1604
F0.00679111234937661
sS'SM'
p1605
F0.09268417264516728
sS'MLTR'
p1606
F0.00679111234937661
sS'SC'
p1607
F0.05025423138538692
sS'MKS'
p1608
F0.00679111234937661
sS'SA'
p1609
F0.1174107868403334
sS'KKTA'
p1610
F0.00679111234937661
sS'JUDW'
p1611
F0.022973694597292843
sS'MKR'
p1612
F0.02533026862622182
sS'KNVT'
p1613
F0.0037844489331568805
sS'BBGN'
p1614
F0.0
sS'HZD'
p1615
F0.0422906363910752
sS'CAR'
p1616
F0.077534768173481
sS'CAP'
p1617
F0.004028232453390913
sS'ANKL'
p1618
F0.012386524575700587
sS'MGN'
p1619
F0.00037147964988043
sS'BNCE'
p1620
F0.09331104455434051
sS'PUL'
p1621
F0.011422999233823223
sS'CAI'
p1622
F0.056058600914768636
sS'HAPA'
p1623
F0.020152771006013325
sS'CAN'
p1624
F0.006802721088435374
sS'KHNM'
p1625
F0.0032388381973949987
sS'SRID'
p1626
F0.004573843189152794
sS'CAA'
p1627
F0.04044484688073181
sS'CAG'
p1628
F0.07148661512386524
sS'AIG'
p1629
F0.0
sS'DUSI'
p1630
F0.004028232453390913
sS'BTE'
p1631
F0.0024030089851640314
sS'GMIA'
p1632
F0.0
sS'BAKA'
p1633
F0.006802721088435374
sS'CHOK'
p1634
F0.0
sS'PGK'
p1635
F0.002182442943047526
sS'PGI'
p1636
F0.000847437951289731
sS'PGW'
p1637
F0.039492930277913216
sS'PGT'
p1638
F0.043439901557892784
sS'PGR'
p1639
F0.0029950546771609667
sS'RKSN'
p1640
F0.021777994474240208
sS'DYD'
p1641
F0.014360010215690371
sS'KUPR'
p1642
F0.00679111234937661
sS'PNSA'
p1643
F0.00679111234937661
sS'PPC'
p1644
F0.056058600914768636
sS'FGSB'
p1645
F0.0
sS'VAA'
p1646
F0.00337814306610016
sS'CNPR'
p1647
F0.0
sS'RAIR'
p1648
F0.034628868612291336
sS'SOD'
p1649
F0.021093078869773164
sS'UDR'
p1650
F0.02299691207541037
sS'TGRL'
p1651
F0.00010447865152887093
sS'MAKM'
p1652
F0.011237259408883007
sS'BDWL'
p1653
F0.002182442943047526
sS'PNME'
p1654
F0.0422906363910752
sS'RSI'
p1655
F0.01155069536346962
sS'UDZ'
p1656
F0.047932483573634235
sS'SSA'
p1657
F8.126117341134406e-05
sS'RSA'
p1658
F0.00679111234937661
sS'OGL'
p1659
F0.08281674444521836
sS'SSB'
p1660
F0.005990109354321933
sS'UDN'
p1661
F0.06286132200320402
sS'MAKR'
p1662
F0.0013233962526990317
sS'RSR'
p1663
F0.004132711104919784
sS'UDM'
p1664
F0.00679111234937661
sS'MIH'
p1665
F0.0001509136077639247
sS'DKT'
p1666
F0.0
sS'MIL'
p1667
F0.006767894871259084
sS'GHR'
p1668
F0.008787815467483922
sS'MIN'
p1669
F0.0017645283369320424
sS'IZN'
p1670
F0.006802721088435374
sS'DKZ'
p1671
F0.0012653525574052146
sS'MID'
p1672
F0.059320656590281164
sS'GAR'
p1673
F0.004573843189152794
sS'GHD'
p1674
F0.09389148150727868
sS'DKD'
p1675
F0.021569037171182467
sS'DKE'
p1676
F0.013535789742518168
sS'BE'
p1677
F0.006802721088435374
sS'DKO'
p1678
F0.06049313923521627
sS'GHH'
p1679
F0.005839195746558009
sS'GHJ'
p1680
F0.012456177010053167
sS'PPR'
p1681
F6.965243435258063e-05
sS'SOS'
p1682
F0.0
sS'JRMG'
p1683
F0.05288941515172622
sS'KBPR'
p1684
F0.008927120336189084
sS'GAJ'
p1685
F0.13511411390494765
sS'URD'
p1686
F0.0176220658912029
sS'NDKD'
p1687
F0.025852661883866174
sS'KYOP'
p1688
F0.004213972278331128
sS'URL'
p1689
F0.0029950546771609667
sS'URI'
p1690
F0.006883982261846718
sS'KPTN'
p1691
F0.003610317847275429
sS'DABN'
p1692
F0.0003830883889391934
sS'SFY'
p1693
F0.010354995240416985
sS'SFW'
p1694
F0.010354995240416985
sS'IPL'
p1695
F0.01742471732720392
sS'KLTR'
p1696
F0.02209143042882682
sS'IPR'
p1697
F0.006802721088435374
sS'SFM'
p1698
F0.008300248427015858
sS'SFH'
p1699
F0.0031459682849248913
sS'SFG'
p1700
F0.003401360544217687
sS'PYD'
p1701
F0.0
sS'SFC'
p1702
F0.13064474936732373
sS'HDW'
p1703
F0.00679111234937661
sS'NGG'
p1704
F0.009670079635949944
sS'NGA'
p1705
F0.013535789742518168
sS'NGB'
p1706
F0.008300248427015858
sS'NGN'
p1707
F0.0955979661489169
sS'NGO'
p1708
F6.965243435258063e-05
sS'KSX'
p1709
F0.1616981263495159
sS'NGT'
p1710
F0.013559007220635695
sS'KSD'
p1711
F0.013535789742518168
sS'KSG'
p1712
F0.013918878131457361
sS'KSF'
p1713
F0.003087924589631074
sS'NGP'
p1714
F0.10671913816721228
sS'HDB'
p1715
F0.006802721088435374
sS'KSC'
p1716
F0.042766594692484505
sS'KSB'
p1717
F0.04699217570987439
sS'HDN'
p1718
F0.0176220658912029
sS'KSN'
p1719
F0.12140419307654803
sS'HDK'
p1720
F4.643495623505375e-05
sS'KSH'
p1721
F0.009194121334540643
sS'BAMR'
p1722
F0.034628868612291336
sS'KSJ'
p1723
F0.011306911843235588
sS'BMB'
p1724
F0.13733138306517145
sS'MGAE'
p1725
F0.0055838034872652135
sS'VLNK'
p1726
F0.006802721088435374
sS'BMF'
p1727
F0.19363376750017414
sS'HRNR'
p1728
F0.013535789742518168
sS'BME'
p1729
F0.006802721088435374
sS'DNRP'
p1730
F0.0430219869517773
sS'BMH'
p1731
F0.021569037171182467
sS'BMI'
p1732
F0.00037147964988043
sS'BMO'
p1733
F0.040758282835318425
sS'BMR'
p1734
F0.004573843189152794
sS'PRDP'
p1735
F0.006802721088435374
sS'BMT'
p1736
F0.005119453924914676
sS'BMU'
p1737
F0.003401360544217687
sS'SZR'
p1738
F0.013535789742518168
sS'TPTN'
p1739
F0.03286434027535929
sS'DNRE'
p1740
F0.012827656659933599
sS'BSC'
p1741
F0.003401360544217687
sS'DHPR'
p1742
F0.0836293561793318
sS'SHU'
p1743
F0.0
sS'EE'
p1744
F0.09605070697220867
sS'ED'
p1745
F0.06261753848296998
sS'SHZ'
p1746
F0.00679111234937661
sS'PMN'
p1747
F0.0431148568642474
sS'JTO'
p1748
F0.00679111234937661
sS'SHC'
p1749
F0.006802721088435374
sS'JTI'
p1750
F0.02209143042882682
sS'SHE'
p1751
F0.0
sS'SHF'
p1752
F0.0034129692832764505
sS'SHG'
p1753
F0.006303545308908546
sS'ET'
p1754
F0.2400919412133454
sS'JTG'
p1755
F0.013535789742518168
sS'SHK'
p1756
F0.042766594692484505
sS'SHM'
p1757
F0.006802721088435374
sS'JTB'
p1758
F0.06224605883308955
sS'GZN'
p1759
F0.0
sS'GZO'
p1760
F0.00679111234937661
sS'NASP'
p1761
F0.10406073692275546
sS'RPUR'
p1762
F0.0074295929976085995
sS'MGG'
p1763
F0.00679111234937661
sS'RJPM'
p1764
F0.00679111234937661
sS'GZH'
p1765
F0.008044856167723062
sS'BSKH'
p1766
F0.00679111234937661
sS'RJPB'
p1767
F0.014058183000162523
sS'TBR'
p1768
F0.0
sS'GZB'
p1769
F0.023496087854937196
sS'TBT'
p1770
F0.04448468807318149
sS'REWA'
p1771
F0.006802721088435374
sS'MGS'
p1772
F0.04610991154140837
sS'TBH'
p1773
F0.00679111234937661
sS'BDWD'
p1774
F0.08954981309930116
sS'TBM'
p1775
F0.047839613661164127
sS'TBN'
p1776
F0.051182930510087994
sS'KDJR'
p1777
F0.00010447865152887093
sS'MGX'
p1778
F0.013535789742518168
sS'GHX'
p1779
F0.0
sS'LUR'
p1780
F0.05392259292795617
sS'CBN'
p1781
F0.011109563279236609
sS'VJP'
p1782
F0.010354995240416985
sS'RVKH'
p1783
F0.0072438531726683845
sS'WPR'
p1784
F0.006582155046318869
sS'MLAR'
p1785
F0.00679111234937661
sS'GHY'
p1786
F0.05320285110631283
sS'NRGR'
p1787
F0.00679111234937661
sS'RMC'
p1788
F0.0032388381973949987
sS'SDAH'
p1789
F0.006802721088435374
sS'BLTR'
p1790
F0.0034942304566877944
sS'LNN'
p1791
F0.0
sS'DKNT'
p1792
F0.0
sS'RMD'
p1793
F0.00679111234937661
sS'TLU'
p1794
F0.021569037171182467
sS'TLY'
p1795
F0.000847437951289731
sS'GTK'
p1796
F0.02209143042882682
sS'GTL'
p1797
F0.14860346869123076
sS'GTM'
p1798
F0.0036567528035104826
sS'TLC'
p1799
F0.0
sS'GTS'
p1800
F0.0168907153305008
sS'GTT'
p1801
F0.020025074876366927
sS'TLD'
p1802
F0.04833878944069095
sS'TLJ'
p1803
F0.014058183000162523
sS'TLH'
p1804
F0.0
sS'KEM'
p1805
F0.0406073692275545
sS'KEK'
p1806
F0.04290589956118966
sS'KEJ'
p1807
F0.00679111234937661
sS'KEI'
p1808
F0.06724942536741658
sS'KEH'
p1809
F0.0
sS'KEG'
p1810
F0.0
sS'ARW'
p1811
F0.0
sS'HVD'
p1812
F0.0455294745884702
sS'KEA'
p1813
F0.008300248427015858
sS'BHLE'
p1814
F0.00679111234937661
sS'BTG'
p1815
F0.0
sS'HVR'
p1816
F0.02165029834459381
sS'KMTI'
p1817
F0.00679111234937661
sS'MRDW'
p1818
F0.012386524575700587
sS'SKND'
p1819
F0.00010447865152887093
sS'DGHR'
p1820
F0.00679111234937661
sS'CMW'
p1821
F0.00679111234937661
sS'SINI'
p1822
F0.021777994474240208
sS'MRDL'
p1823
F0.034628868612291336
sS'TLV'
p1824
F0.051182930510087994
sS'RPR'
p1825
F0.0035754916300991387
sS'UCR'
p1826
F0.007267070650785912
sS'PNBE'
p1827
F0.021673515822711337
sS'RPZ'
p1828
F0.046028650367997026
sS'MAHE'
p1829
F0.000847437951289731
sS'RPD'
p1830
F0.0
sS'UCA'
p1831
F0.0004991757795268278
sS'SGAM'
p1832
F0.10620835364862669
sS'RPH'
p1833
F0.11019015114578254
sS'RPJ'
p1834
F0.014360010215690371
sS'KRIH'
p1835
F0.031831162499129345
sS'ALJN'
p1836
F0.0610851849272132
sS'VTJ'
p1837
F0.00679111234937661
sS'RBZ'
p1838
F0.006872373522787955
sS'VTM'
p1839
F0.08281674444521836
sS'RBS'
p1840
F0.0
sS'KTGA'
p1841
F0.0
sS'BEAS'
p1842
F0.0067214599150240304
sS'RBL'
p1843
F0.006802721088435374
sS'RBK'
p1844
F0.0
sS'RBG'
p1845
F0.014743098604629565
sS'RBD'
p1846
F0.0
sS'PWL'
p1847
F0.0
sS'RBA'
p1848
F0.004028232453390913
sS'LGH'
p1849
F0.008892294119012793
sS'RMPB'
p1850
F0.00679111234937661
sS'LGL'
p1851
F0.006802721088435374
sS'SDI'
p1852
F0.0055838034872652135
sS'ATMO'
p1853
F0.020234032179424672
sS'OTP'
p1854
F0.03683452903345639
sS'SMNH'
p1855
F0.006802721088435374
sS'LGT'
p1856
F0.013535789742518168
sS'DZA'
p1857
F0.02016437974507209
sS'NAC'
p1858
F0.00013930486870516125
sS'JU'
p1859
F0.021824429430475262
sS'JP'
p1860
F0.006849156044670428
sS'SEGM'
p1861
F0.012827656659933599
sS'JM'
p1862
F0.03836688258921316
sS'MHRG'
p1863
F0.017505978500615263
sS'NAD'
p1864
F0.008660119337837524
sS'BNVD'
p1865
F0.00020895730305774186
sS'HBJ'
p1866
F0.23680666805971534
sS'SCC'
p1867
F0.06560098442107218
sS'NAK'
p1868
F0.0
sS'HBG'
p1869
F0.00679111234937661
sS'BNDP'
p1870
F0.00679111234937661
sS'IAA'
p1871
F0.004132711104919784
sS'KKGM'
p1872
F0.013535789742518168
sS'BNDA'
p1873
F0.028789672865733324
sS'TIR'
p1874
F0.000847437951289731
sS'BNDM'
p1875
F0.13868960553504678
sS'PHK'
p1876
F0.009855819460890158
sS'MZP'
p1877
F0.052401848111258156
sS'BHLP'
p1878
F4.643495623505375e-05
sS'MZR'
p1879
F0.22000882264168467
sS'KHMA'
p1880
F0.00679111234937661
sS'PHA'
p1881
F0.13511411390494765
sS'NYG'
p1882
F0.00010447865152887093
sS'PHD'
p1883
F0.00042952334517424716
sS'CHNR'
p1884
F0.013535789742518168
sS'MZC'
p1885
F0.00749924543196118
sS'MZL'
p1886
F0.040758282835318425
sS'PHR'
p1887
F0.039492930277913216
sS'SKT'
p1888
F0.05056766733997353
sS'MSDN'
p1889
F0.012827656659933599
sS'RMGM'
p1890
F0.0008706554294072578
sS'KLAR'
p1891
F0.026630447400803326
sS'SKP'
p1892
F0.005119453924914676
sS'SKS'
p1893
F0.09844210721831395
sS'SKR'
p1894
F0.00679111234937661
sS'SKY'
p1895
F0.00679111234937661
sS'BOY'
p1896
F0.0
sS'BNXR'
p1897
F0.005409672401383762
sS'SKB'
p1898
F0.003912145062803278
sS'SKM'
p1899
F0.08281674444521836
sS'DNKL'
p1900
F0.034628868612291336
sS'SKI'
p1901
F0.00679111234937661
sS'SMO'
p1902
F0.05402707157948504
sS'SKJ'
p1903
F0.0222887789928258
sS'JUC'
p1904
F0.040270715794850365
sS'JUD'
p1905
F0.022973694597292843
sS'TCR'
p1906
F0.01742471732720392
sS'BOE'
p1907
F0.127440737387105
sS'MFP'
p1908
F0.049499663346567295
sS'MFQ'
p1909
F0.0
sS'AONI'
p1910
F0.00679111234937661
sS'GED'
p1911
F0.0176220658912029
sS'KVK'
p1912
F0.02340321794246709
sS'JGJ'
p1913
F0.0
sS'KAMG'
p1914
F0.07842864108100578
sS'JGM'
p1915
F0.0
sS'MHH'
p1916
F0.06224605883308955
sS'GKP'
p1917
F0.0677253836688259
sS'MHD'
p1918
F0.04802535348610434
sS'DDP'
p1919
F4.643495623505375e-05
sS'JGD'
p1920
F0.00679111234937661
sS'MKDI'
p1921
F0.011318520582294352
sS'GKH'
p1922
F0.0006036544310556987
sS'GKK'
p1923
F0.014743098604629565
sS'GKJ'
p1924
F0.00679111234937661
sS'DDN'
p1925
F0.006802721088435374
sS'DDL'
p1926
F0.0
sS'BRMO'
p1927
F0.0
sS'GKC'
p1928
F0.0035406654129228484
sS'DDE'
p1929
F0.059320656590281164
sS'MHQ'
p1930
F0.00337814306610016
sS'SSIA'
p1931
F0.0
sS'ANF'
p1932
F0.00679111234937661
sS'ANG'
p1933
F0.039945671101204984
sS'NVS'
p1934
F0.00749924543196118
sS'ANB'
p1935
F0.08281674444521836
sS'ANH'
p1936
F0.0176220658912029
sS'KER'
p1937
F0.0
sS'NVG'
p1938
F0.00679111234937661
sS'ANV'
p1939
F0.10406073692275546
sS'CKTD'
p1940
F0.028348540781500314
sS'GDYA'
p1941
F0.18486916951080773
sS'ANY'
p1942
F0.00679111234937661
sS'TMQ'
p1943
F0.0002205660421165053
sS'TMR'
p1944
F0.09280026003575492
sS'KHS'
p1945
F0.05056766733997353
sS'GWA'
p1946
F0.011306911843235588
sS'EKMA'
p1947
F4.643495623505375e-05
sS'TMX'
p1948
F0.006582155046318869
sS'GWL'
p1949
F0.19819600195026815
sS'TMZ'
p1950
F0.013559007220635695
sS'TMKA'
p1951
F0.00010447865152887093
sS'GWV'
p1952
F0.040758282835318425
sS'TME'
p1953
F0.00679111234937661
sS'GWS'
p1954
F0.00679111234937661
sS'KDM'
p1955
F0.005804369529381718
sS'KKDI'
p1956
F0.0669940331081238
sS'KOAA'
p1957
F0.006802721088435374
sS'HWH'
p1958
F0.0249239627591651
sS'KDG'
p1959
F0.006883982261846718
sS'VVM'
p1960
F0.00679111234937661
sS'KKDE'
p1961
F0.0
sS'NJP'
p1962
F0.11556499732999001
sS'BHME'
p1963
F0.0
sS'KDZ'
p1964
F0.00679111234937661
sS'NJT'
p1965
F0.010250516588888115
sS'ADR'
p1966
F8.126117341134406e-05
sS'SOL'
p1967
F0.00679111234937661
sS'KDP'
p1968
F0.0
sS'NDJ'
p1969
F0.011109563279236609
sS'NDL'
p1970
F0.021569037171182467
sS'NDO'
p1971
F0.08281674444521836
sS'KRR'
p1972
F0.0572775185159388
sS'KRS'
p1973
F0.0035754916300991387
sS'NDB'
p1974
F0.059320656590281164
sS'NDD'
p1975
F0.10018341807712847
sS'KRJ'
p1976
F0.01669336676650182
sS'KRH'
p1977
F0.03472173852476144
sS'HEM'
p1978
F0.0037844489331568805
sS'BALU'
p1979
F0.004028232453390913
sS'KRA'
p1980
F0.00679111234937661
sS'NDU'
p1981
F0.02005990109354322
sS'NDT'
p1982
F0.006802721088435374
sS'NDW'
p1983
F0.02005990109354322
sS'KRE'
p1984
F0.0067214599150240304
sS'BJF'
p1985
F0.0
sS'BJE'
p1986
F0.008218987253604513
sS'BJD'
p1987
F0.04802535348610434
sS'BJO'
p1988
F5.8043695293817184e-05
sS'TRAN'
p1989
F0.0
sS'HPLE'
p1990
F0.00679111234937661
sS'BJW'
p1991
F0.04802535348610434
sS'BJU'
p1992
F0.03519769682617074
sS'MNV'
p1993
F0.21531889206194424
sS'BJP'
p1994
F0.021464558519653596
sS'UHL'
p1995
F0.013570615959694459
sS'KRNT'
p1996
F0.01050590884818091
sS'WSA'
p1997
F0.0085092057300736
sS'HYB'
p1998
F0.006802721088435374
sS'RUPC'
p1999
F0.013489354786283114
sS'WSJ'
p2000
F0.006930417218081772
sS'DRTP'
p2001
F0.012827656659933599
sS'HYT'
p2002
F0.006872373522787955
sS'ARCL'
p2003
F0.00679111234937661
sS'RWO'
p2004
F0.00679111234937661
sS'FAN'
p2005
F0.050683754730561165
sS'MQ'
p2006
F0.006802721088435374
sS'LEDO'
p2007
F0.006802721088435374
sS'UHP'
p2008
F0.006802721088435374
sS'GJUT'
p2009
F0.0018573982494021499
sS'LLR'
p2010
F0.0431148568642474
sS'VKR'
p2011
F0.02209143042882682
sS'HMT'
p2012
F0.0430219869517773
sS'ADRA'
p2013
F0.1387476492303406
sS'VKI'
p2014
F0.02367021894081865
sS'DMRT'
p2015
F0.013535789742518168
sS'VKN'
p2016
F0.021569037171182467
sS'VKA'
p2017
F6.965243435258063e-05
sS'VKB'
p2018
F0.10274894940911518
sS'BQI'
p2019
F0.01915441944695967
sS'SBLT'
p2020
F0.00679111234937661
sS'MKPR'
p2021
F0.006872373522787955
sS'TIHU'
p2022
F0.0
sS'PURI'
p2023
F0.006802721088435374
sS'KNPS'
p2024
F0.00675628613220032
sS'KNPR'
p2025
F0.0
sS'PANP'
p2026
F0.0008706554294072578
sS'BQP'
p2027
F0.004747974275034246
sS'CCT'
p2028
F0.013570615959694459
sS'BGBR'
p2029
F0.056964082561352186
sS'DARA'
p2030
F0.0
sS'DMRX'
p2031
F0.03206333728030461
sS'SMZ'
p2032
F0.006303545308908546
sS'MYY'
p2033
F0.0038308838893919344
sS'PUNE'
p2034
F0.007081330825845697
sS'SBPD'
p2035
F0.0
sS'PIL'
p2036
F0.03093728959160456
sS'PIA'
p2037
F0.21531889206194424
sS'MYS'
p2038
F0.006802721088435374
sS'MYR'
p2039
F0.02299691207541037
sS'BMKI'
p2040
F0.04044484688073181
sS'PIP'
p2041
F0.00374962271598059
sS'ASKN'
p2042
F0.21531889206194424
sS'MYD'
p2043
F0.013535789742518168
sS'SBPY'
p2044
F0.0
sS'POK'
p2045
F0.00679111234937661
sS'CAER'
p2046
F0.051182930510087994
sS'DOA'
p2047
F0.0
sS'CQA'
p2048
F0.00679111234937661
sS'GIMB'
p2049
F0.013570615959694459
sS'GRKN'
p2050
F0.00679111234937661
sS'DUBH'
p2051
F0.03704348633651413
sS'AKT'
p2052
F0.05288941515172622
sS'ON'
p2053
F0.05752130203617283
sS'PLJE'
p2054
F0.0035754916300991387
sS'UBR'
p2055
F0.0029137935037496228
sS'ALER'
p2056
F0.004910496621856934
sS'SLD'
p2057
F0.0035754916300991387
sS'GLGT'
p2058
F0.0
sS'UBC'
p2059
F0.014360010215690371
sS'UBL'
p2060
F0.031355204197720046
sS'FD'
p2061
F0.023112999465998003
sS'RQJ'
p2062
F0.00679111234937661
sS'KANO'
p2063
F0.00679111234937661
sS'CUPJ'
p2064
F0.025620487102690905
sS'BZA'
p2065
F0.11323164077917856
sS'DGLE'
p2066
F0.009913863156183976
sS'MWT'
p2067
F0.01719254254602865
sS'DER'
p2068
F0.01107473706206032
sS'MWX'
p2069
F0.000557219474820645
sS'GJS'
p2070
F0.0
sS'JDB'
p2071
F0.006802721088435374
sS'NRDP'
p2072
F0.025852661883866174
sS'GJL'
p2073
F0.006396415221378654
sS'GJH'
p2074
F0.006582155046318869
sS'MWK'
p2075
F0.0034129692832764505
sS'MWJ'
p2076
F0.10620835364862669
sS'DEB'
p2077
F0.00679111234937661
sS'DEC'
p2078
F0.005839195746558009
sS'DEE'
p2079
F0.049708620649625036
sS'MWM'
p2080
F0.010343386501358222
sS'DEG'
p2081
F0.00679111234937661
sS'AMI'
p2082
F0.00861368438160247
sS'AMH'
p2083
F0.011039910844884029
sS'KBRV'
p2084
F0.04802535348610434
sS'NWP'
p2085
F0.004028232453390913
sS'AML'
p2086
F0.00749924543196118
sS'NWR'
p2087
F0.0
sS'FL'
p2088
F0.014243922825102737
sS'ORGA'
p2089
F0.005351628706089944
sS'BVNR'
p2090
F0.0
sS'AMG'
p2091
F0.0
sS'NWD'
p2092
F0.042766594692484505
sS'NWA'
p2093
F0.00679111234937661
sS'CHA'
p2094
F0.0
sS'AMP'
p2095
F0.00679111234937661
sS'DMGN'
p2096
F0.013535789742518168
sS'BSX'
p2097
F0.040758282835318425
sS'CBSA'
p2098
F0.00675628613220032
sS'KL'
p2099
F0.0024030089851640314
sS'MDL'
p2100
F0.0
sS'KLRS'
p2101
F0.17389891110027628
sS'BNWC'
p2102
F0.0003018272155278494
sS'GPR'
p2103
F0.0
sS'MNAE'
p2104
F0.015985233683917254
sS'JOR'
p2105
F0.02692066587727241
sS'KHRK'
p2106
F0.0003018272155278494
sS'KHRJ'
p2107
F0.010354995240416985
sS'KLRE'
p2108
F0.07554967379443245
sS'NEO'
p2109
F0.0035754916300991387
sS'KUX'
p2110
F0.00679111234937661
sS'GNW'
p2111
F0.00679111234937661
sS'BSP'
p2112
F0.06506698242436906
sS'KUU'
p2113
F0.004028232453390913
sS'KUR'
p2114
F0.009437904854774675
sS'KUN'
p2115
F0.0
sS'KUH'
p2116
F0.008660119337837524
sS'KUF'
p2117
F0.0
sS'KUE'
p2118
F0.05402707157948504
sS'KUD'
p2119
F0.014743098604629565
sS'HSRA'
p2120
F0.10237746975923476
sS'HFG'
p2121
F0.013535789742518168
sS'BHTN'
p2122
F0.004573843189152794
sS'BKG'
p2123
F0.008044856167723062
sS'MUGR'
p2124
F0.006802721088435374
sS'BKL'
p2125
F0.005560586009147686
sS'RMNP'
p2126
F0.0
sS'BKN'
p2127
F0.027199275614682734
sS'BKO'
p2128
F0.003401360544217687
sS'BKH'
p2129
F0.004573843189152794
sS'SALE'
p2130
F0.009310208725128277
sS'BKJ'
p2131
F0.012386524575700587
sS'HMH'
p2132
F0.002182442943047526
sS'BKP'
p2133
F0.009948689373360266
sS'JSP'
p2134
F0.00679111234937661
sS'BUDI'
p2135
F0.0625478860486174
sS'BUDM'
p2136
F0.13064474936732373
sS'BSI'
p2137
F0.00679111234937661
sS'BURN'
p2138
F0.13352371665389706
sS'JSR'
p2139
F0.03139003041489633
sS'SJP'
p2140
F0.009194121334540643
sS'DHRR'
p2141
F0.002182442943047526
sS'SJT'
p2142
F0.003401360544217687
sS'AADR'
p2143
F0.006802721088435374
sS'KNLS'
p2144
F0.00679111234937661
sS'KUTI'
p2145
F0.0
sS'MDP'
p2146
F0.01743632606626268
sS'CRLM'
p2147
F0.003401360544217687
sS'LGO'
p2148
F0.0032388381973949987
sS'JRG'
p2149
F0.00679111234937661
sS'MED'
p2150
F0.040758282835318425
sS'GDR'
p2151
F0.08481344756332568
sS'GADH'
p2152
F0.00010447865152887093
sS'JRA'
p2153
F0.03417612778899956
sS'GDX'
p2154
F0.0003482621717629031
sS'GDZ'
p2155
F0.00679111234937661
sS'JRK'
p2156
F0.13511411390494765
sS'FLK'
p2157
F0.0003482621717629031
sS'MEJ'
p2158
F0.04223259269578138
sS'KDHA'
p2159
F0.00679111234937661
sS'MET'
p2160
F0.005363237445148708
sS'GDB'
p2161
F0.007313505607020965
sS'JRR'
p2162
F0.0031459682849248913
sS'GDG'
p2163
F0.021766385735181446
sS'VDE'
p2164
F0.08281674444521836
sS'MDU'
p2165
F0.00705811334772817
sS'GDL'
p2166
F0.020025074876366927
sS'MEX'
p2167
F0.02016437974507209
sS'VDD'
p2168
F0.02367021894081865
sS'DHNE'
p2169
F0.02725731930997655
sS'LWR'
p2170
F0.01742471732720392
sS'MGE'
p2171
F0.013535789742518168
sS'YNK'
p2172
F0.1094704093241392
sS'CPP'
p2173
F0.004028232453390913
sS'BHLK'
p2174
F0.10479208748345754
sS'TU'
p2175
F0.0
sS'TR'
p2176
F0.00037147964988043
sS'TP'
p2177
F0.0572775185159388
sS'LKS'
p2178
F0.002182442943047526
sS'TN'
p2179
F0.006802721088435374
sS'TL'
p2180
F0.013918878131457361
sS'TJ'
p2181
F0.010354995240416985
sS'TK'
p2182
F0.02488913654198881
sS'MFKA'
p2183
F0.0162870608994451
sS'TA'
p2184
F0.000847437951289731
sS'AB'
p2185
F0.01996703118107311
sS'GVN'
p2186
F0.10018341807712847
sS'AD'
p2187
F0.12140419307654803
sS'GVL'
p2188
F0.00679111234937661
sS'TNR'
p2189
F0.08281674444521836
sS'AI'
p2190
F0.00679111234937661
sS'AH'
p2191
F0.0035522741519816116
sS'AK'
p2192
F0.22941190127928304
sS'AL'
p2193
F0.004132711104919784
sS'AO'
p2194
F0.0
sS'AN'
p2195
F0.059320656590281164
sS'TNA'
p2196
F0.020280467135659723
sS'AY'
p2197
F0.00939146989853962
sS'TNL'
p2198
F0.00679111234937661
sS'SME'
p2199
F0.013535789742518168
sS'AZ'
p2200
F0.015811102598035802
sS'KGQ'
p2201
F0.00594367439808688
sS'KGP'
p2202
F0.040479673097908106
sS'KGS'
p2203
F0.02209143042882682
sS'NKD'
p2204
F0.005804369529381718
sS'NKE'
p2205
F0.056058600914768636
sS'KGX'
p2206
F0.005340019967031181
sS'NKJ'
p2207
F0.0
sS'NKM'
p2208
F0.008184161036428224
sS'BVRM'
p2209
F0.00679111234937661
sS'NKP'
p2210
F0.004028232453390913
sS'KGB'
p2211
F0.02209143042882682
sS'BVRT'
p2212
F0.008834250423718975
sS'NKW'
p2213
F0.00010447865152887093
sS'KGI'
p2214
F0.0008706554294072578
sS'KGM'
p2215
F0.006802721088435374
sS'KGL'
p2216
F0.12140419307654803
sS'CPH'
p2217
F0.05681316895358826
sS'CPJ'
p2218
F0.056058600914768636
sS'CPK'
p2219
F0.046701957233405304
sS'CPN'
p2220
F0.00037147964988043
sS'CKD'
p2221
F0.011539086624410857
sS'CPA'
p2222
F0.017993545541083327
sS'DOE'
p2223
F0.008961946553365373
sS'SKLR'
p2224
F0.008927120336189084
sS'RAJP'
p2225
F0.029532632165494184
sS'CPR'
p2226
F0.011898957535232523
sS'CPS'
p2227
F5.8043695293817184e-05
sS'CPT'
p2228
F0.0008706554294072578
sS'CPU'
p2229
F0.11568108472057766
sS'MRBL'
p2230
F0.056964082561352186
sS'MANU'
p2231
F0.00679111234937661
sS'BGPL'
p2232
F0.00010447865152887093
sS'KTSH'
p2233
F0.05288941515172622
sS'PAW'
p2234
F0.0
sS'NILE'
p2235
F0.009913863156183976
sS'MONR'
p2236
F0.054282463838777835
sS'MANG'
p2237
F0.00679111234937661
sS'UAA'
p2238
F0.00594367439808688
sS'GLPT'
p2239
F0.07214831325021476
sS'SHTT'
p2240
F0.006802721088435374
sS'SBP'
p2241
F0.138236864711755
sS'WRR'
p2242
F0.011097954540177845
sS'WRS'
p2243
F0.042766594692484505
sS'HZR'
p2244
F8.126117341134406e-05
sS'KTES'
p2245
F0.0
sS'CKU'
p2246
F0.0168907153305008
sS'ADI'
p2247
F0.08367579113556685
sS'MMZ'
p2248
F0.0072438531726683845
sS'RMRB'
p2249
F0.00679111234937661
sS'BGSF'
p2250
F0.004213972278331128
sS'CHP'
p2251
F0.009612035940656126
sS'LAU'
p2252
F0.0
sS'LAV'
p2253
F0.010726474890297415
sS'LAR'
p2254
F0.04448468807318149
sS'SNKL'
p2255
F0.00679111234937661
sS'SGUJ'
p2256
F0.10309721158087809
sS'DTO'
p2257
F0.076455155441016
sS'TNKU'
p2258
F0.004132711104919784
sS'DTC'
p2259
F0.013535789742518168
sS'PNVL'
p2260
F0.029811241902904507
sS'MMM'
p2261
F0.00679111234937661
sS'SBC'
p2262
F0.10516356713333798
sS'CHR'
p2263
F0.004132711104919784
sS'PUX'
p2264
F0.00679111234937661
sS'SBG'
p2265
F0.01418587912980892
sS'STBJ'
p2266
F0.00010447865152887093
sS'FTS'
p2267
F0.0
sS'BDN'
p2268
F0.00042952334517424716
sS'SBD'
p2269
F0.008961946553365373
sS'IGP'
p2270
F0.054967379443244875
sS'JJG'
p2271
F0.00679111234937661
sS'FTG'
p2272
F0.0
sS'BDU'
p2273
F0.00037147964988043
sS'CBF'
p2274
F0.056046992175709874
sS'CBE'
p2275
F0.056453298042766595
sS'CBJ'
p2276
F0.006767894871259084
sS'CBK'
p2277
F0.010354995240416985
sS'MXT'
p2278
F0.006582155046318869
sS'MXR'
p2279
F0.013535789742518168
sS'CBM'
p2280
F0.021569037171182467
sS'MXN'
p2281
F0.013535789742518168
sS'SKZR'
p2282
F0.012688351791228437
sS'MXK'
p2283
F0.04903531378421676
sS'MXH'
p2284
F0.000557219474820645
sS'CBZ'
p2285
F0.00679111234937661
sS'MRPR'
p2286
F0.026630447400803326
sS'MXA'
p2287
F0.00679111234937661
sS'BZU'
p2288
F0.18486916951080773
sS'BZR'
p2289
F0.09916184903995728
sS'SANR'
p2290
F0.0035406654129228484
sS'SMT'
p2291
F0.22619628056000557
sS'SMR'
p2292
F0.03177311880383553
sS'BZY'
p2293
F0.04448468807318149
sS'AWR'
p2294
F0.040862761486847296
sS'BZG'
p2295
F0.0
sS'FA'
p2296
F0.0
sS'SML'
p2297
F0.006802721088435374
sS'SMK'
p2298
F0.0
sS'MQO'
p2299
F0.0
sS'SMI'
p2300
F0.01692554154767709
sS'BZO'
p2301
F0.0004991757795268278
sS'BZN'
p2302
F0.025945531796336282
sS'BZM'
p2303
F0.04677160966775789
sS'FK'
p2304
F0.000847437951289731
sS'SMC'
p2305
F0.00679111234937661
sS'FM'
p2306
F0.006582155046318869
sS'CROA'
p2307
F0.07842864108100578
sS'MDJ'
p2308
F0.0176220658912029
sS'JSG'
p2309
F0.14730328991664926
sS'MDN'
p2310
F0.0031111420677486013
sS'KOO'
p2311
F0.0032504469364537623
sS'RCTC'
p2312
F0.00679111234937661
sS'GGR'
p2313
F0.0
sS'MDB'
p2314
F0.0
sS'JSM'
p2315
F0.006802721088435374
sS'BRYA'
p2316
F0.03206333728030461
sS'KON'
p2317
F0.006744677393141557
sS'MDE'
p2318
F0.02005990109354322
sS'JSV'
p2319
F0.0
sS'GGA'
p2320
F0.00749924543196118
sS'MDVL'
p2321
F0.006744677393141557
sS'GGC'
p2322
F0.0
sS'AMLA'
p2323
F0.18870005340019966
sS'MDR'
p2324
F0.005560586009147686
sS'MDS'
p2325
F0.005107845185855912
sS'BONA'
p2326
F0.034628868612291336
sS'GGN'
p2327
F0.005839195746558009
sS'KZTW'
p2328
F0.0
sS'MDW'
p2329
F6.965243435258063e-05
sS'GGJ'
p2330
F0.006152631701144622
sS'JER'
p2331
F0.03316616749088714
sS'JES'
p2332
F0.0
sS'LUSA'
p2333
F0.03541826286828725
sS'THUR'
p2334
F0.0
sS'BPHB'
p2335
F0.09507557289127255
sS'MVI'
p2336
F0.04656265236470015
sS'MVJ'
p2337
F0.0517517587239674
sS'MVN'
p2338
F0.00679111234937661
sS'MVO'
p2339
F0.00037147964988043
sS'ALJ'
p2340
F0.006744677393141557
sS'ALD'
p2341
F0.06173527431450396
sS'ALB'
p2342
F0.020025074876366927
sS'NTV'
p2343
F0.006802721088435374
sS'ALY'
p2344
F0.006802721088435374
sS'SHNG'
p2345
F0.0162870608994451
sS'ALU'
p2346
F0.03286434027535929
sS'GQL'
p2347
F0.003610317847275429
sS'YL'
p2348
F0.043254161732952566
sS'YA'
p2349
F0.0
sS'KCI'
p2350
F0.03093728959160456
sS'YG'
p2351
F0.12140419307654803
sS'KSWR'
p2352
F0.1028998630168791
sS'BAO'
p2353
F0.18006315154047967
sS'YP'
p2354
F0.005560586009147686
sS'BAL'
p2355
F0.00787072508184161
sS'BVN'
p2356
F0.06560098442107218
sS'HIP'
p2357
F0.031831162499129345
sS'HIR'
p2358
F0.056058600914768636
sS'NHN'
p2359
F0.00024378352023403217
sS'NHH'
p2360
F0.0162870608994451
sS'NHK'
p2361
F0.0
sS'NHT'
p2362
F0.10420004179146061
sS'ATNR'
p2363
F0.006582155046318869
sS'HIJ'
p2364
F0.018748113579902952
sS'KOV'
p2365
F0.0
sS'HIL'
p2366
F0.00679111234937661
sS'KRPU'
p2367
F0.013570615959694459
sS'RGDA'
p2368
F0.11862970444150356
sS'ABD'
p2369
F0.054839683313598474
sS'NZT'
p2370
F0.00679111234937661
sS'KTU'
p2371
F0.000847437951289731
sS'KTV'
p2372
F0.1069977479046226
sS'KTW'
p2373
F0.006802721088435374
sS'KTQ'
p2374
F0.04253441991130923
sS'BANE'
p2375
F0.008961946553365373
sS'KTM'
p2376
F0.0
sS'HGL'
p2377
F0.048988878827981704
sS'ABS'
p2378
F0.007313505607020965
sS'KTH'
p2379
F0.0035754916300991387
sS'HGH'
p2380
F0.0162870608994451
sS'NZD'
p2381
F0.09605070697220867
sS'JGNR'
p2382
F0.00679111234937661
sS'BANO'
p2383
F0.005351628706089944
sS'BANI'
p2384
F0.0
sS'NZM'
p2385
F0.006802721088435374
sS'JIND'
p2386
F0.0004991757795268278
sS'BSGN'
p2387
F0.07214831325021476
sS'BHL'
p2388
F0.01519583942792134
sS'BHC'
p2389
F0.031831162499129345
sS'BHB'
p2390
F0.00679111234937661
sS'BHD'
p2391
F0.0
sS'BHZ'
p2392
F0.013535789742518168
sS'CAF'
p2393
F0.0085092057300736
sS'BHP'
p2394
F0.007104548303963223
sS'BHS'
p2395
F0.22619628056000557
sS'BHT'
p2396
F8.126117341134406e-05
sS'BHW'
p2397
F0.014058183000162523
sS'GNGD'
p2398
F0.004028232453390913
sS'KKPM'
p2399
F0.03286434027535929
sS'MKRN'
p2400
F0.13511411390494765
sS'DURE'
p2401
F0.0035754916300991387
sS'MKRH'
p2402
F0.00679111234937661
sS'MLNH'
p2403
F0.00679111234937661
sS'VPZ'
p2404
F0.00679111234937661
sS'RAG'
p2405
F0.004910496621856934
sS'RAA'
p2406
F0.022973694597292843
sS'FGR'
p2407
F0.012456177010053167
sS'LBA'
p2408
F0.003087924589631074
sS'SBM'
p2409
F0.00679111234937661
sS'HTC'
p2410
F0.011306911843235588
sS'LLGM'
p2411
F0.0
sS'RAY'
p2412
F0.07554967379443245
sS'MURI'
p2413
F0.19877643890320634
sS'BFD'
p2414
F0.0
sS'BFJ'
p2415
F0.0034129692832764505
sS'KFA'
p2416
F0.00679111234937661
sS'MURD'
p2417
F0.0024030089851640314
sS'BFM'
p2418
F0.008787815467483922
sS'BFR'
p2419
F0.00594367439808688
sS'LPJ'
p2420
F0.00020895730305774186
sS'LPI'
p2421
F0.005119453924914676
sS'LTHR'
p2422
F0.07554967379443245
sS'PHN'
p2423
F0.0431148568642474
sS'MDJN'
p2424
F0.013918878131457361
sS'VID'
p2425
F0.029532632165494184
sS'MZS'
p2426
F0.0034129692832764505
sS'GHGL'
p2427
F0.013535789742518168
sS'SDNR'
p2428
F0.00679111234937661
sS'STD'
p2429
F0.005792760790322955
sS'FUT'
p2430
F0.009043207726776718
sS'CLKA'
p2431
F0.004028232453390913
sS'LHLL'
p2432
F0.0003018272155278494
sS'URPR'
p2433
F5.8043695293817184e-05
sS'BNGN'
p2434
F0.0
sS'KTX'
p2435
F0.00679111234937661
sS'BLGT'
p2436
F0.006802721088435374
sS'BLGR'
p2437
F0.13287362726660631
sS'PKR'
p2438
F0.0986162383041954
sS'PKQ'
p2439
F0.00679111234937661
sS'KHBJ'
p2440
F0.0
sS'PKU'
p2441
F0.03465208609040886
sS'MMB'
p2442
F0.06560098442107218
sS'RUSD'
p2443
F0.004399712103271343
sS'DUMK'
p2444
F0.006802721088435374
sS'RNGG'
p2445
F0.0
sS'PKF'
p2446
F0.005351628706089944
sS'JAMA'
p2447
F0.00679111234937661
sS'PKD'
p2448
F0.1094704093241392
sS'ABI'
p2449
F0.006744677393141557
sS'CHSM'
p2450
F0.0013233962526990317
sS'PKO'
p2451
F0.00679111234937661
sS'CSN'
p2452
F0.09808223630749228
sS'CSA'
p2453
F0.0035754916300991387
sS'CSB'
p2454
F0.005746325834087901
sS'BKSL'
p2455
F0.00749924543196118
sS'CSZ'
p2456
F0.00679111234937661
sS'PMP'
p2457
F0.00046434956235053747
sS'LUNI'
p2458
F0.03713635624898424
sS'BKSC'
p2459
F0.026026792969747626
sS'TLWA'
p2460
F0.006872373522787955
sS'BAND'
p2461
F0.003981797497155859
sS'AKVD'
p2462
F0.006744677393141557
sS'KTRH'
p2463
F0.05402707157948504
sS'ABR'
p2464
F0.0
sS'SGDP'
p2465
F0.00010447865152887093
sS'KTRR'
p2466
F0.0036567528035104826
sS'KTO'
p2467
F0.00679111234937661
sS'NNGE'
p2468
F0.04656265236470015
sS'MUT'
p2469
F0.0005223932576443546
sS'MUW'
p2470
F0.011063128323001556
sS'MUV'
p2471
F0.006825938566552901
sS'KTJ'
p2472
F0.0993475888648975
sS'JBP'
p2473
F0.013570615959694459
sS'NNGL'
p2474
F0.013535789742518168
sS'KLPM'
p2475
F0.00679111234937661
sS'KUDA'
p2476
F0.012386524575700587
sS'MUE'
p2477
F0.04569199693529289
sS'MUD'
p2478
F0.0
sS'KAPG'
p2479
F0.004028232453390913
sS'KTE'
p2480
F0.029846068120080796
sS'JBN'
p2481
F0.006802721088435374
sS'JL'
p2482
F0.12175245524831092
sS'ASR'
p2483
F0.006802721088435374
sS'SNDD'
p2484
F0.029532632165494184
sS'ASV'
p2485
F0.04436860068259386
sS'AST'
p2486
F0.0
sS'GBA'
p2487
F0.0031111420677486013
sS'NUR'
p2488
F0.0
sS'DGO'
p2489
F0.04253441991130923
sS'NUQ'
p2490
F0.09370574168233846
sS'DGR'
p2491
F0.13496320029718373
sS'RPAR'
p2492
F0.020234032179424672
sS'SLGR'
p2493
F0.013535789742518168
sS'DGU'
p2494
F0.0
sS'ASK'
p2495
F0.028894151517262195
sS'ORAI'
p2496
F0.0431148568642474
sS'NUD'
p2497
F0.020025074876366927
sS'ASH'
p2498
F0.006802721088435374
sS'ASN'
p2499
F0.15187713310580206
sS'KPGM'
p2500
F0.03704348633651413
sS'DUI'
p2501
F0.01972324766083908
sS'DUJ'
p2502
F0.0
sS'CSTM'
p2503
F0.006802721088435374
sS'DUA'
p2504
F0.04316129182048246
sS'DUB'
p2505
F0.0
sS'DUD'
p2506
F0.02957906712172924
sS'PML'
p2507
F0.0
sS'R'
p2508
F0.10359638736040491
sS'NR'
p2509
F0.054967379443244875
sS'THDR'
p2510
F0.00037147964988043
sS'MLPR'
p2511
F0.006152631701144622
sS'NS'
p2512
F0.006802721088435374
sS'KK'
p2513
F0.00046434956235053747
sS'KJ'
p2514
F0.09715353718279121
sS'KI'
p2515
F0.005560586009147686
sS'KH'
p2516
F0.0
sS'KO'
p2517
F0.12140419307654803
sS'KN'
p2518
F0.0
sS'OML'
p2519
F0.10322490771052448
sS'KS'
p2520
F0.0001509136077639247
sS'MHJ'
p2521
F0.002182442943047526
sS'KP'
p2522
F0.09280026003575492
sS'MNGD'
p2523
F0.11393977386176314
sS'KT'
p2524
F0.012386524575700587
sS'SKA'
p2525
F0.011306911843235588
sS'KY'
p2526
F0.004573843189152794
sS'ODG'
p2527
F0.23274360938914815
sS'ITR'
p2528
F0.09280026003575492
sS'DMV'
p2529
F0.02029207587471849
sS'AAM'
p2530
F0.00679111234937661
sS'AAL'
p2531
F0.027210884353741496
sS'ANGL'
p2532
F0.034628868612291336
sS'AAY'
p2533
F0.013535789742518168
sS'BHRL'
p2534
F0.013535789742518168
sS'NCH'
p2535
F0.013535789742518168
sS'BIM'
p2536
F0.00749924543196118
sS'KWE'
p2537
F0.0
sS'BIK'
p2538
F0.0017645283369320424
sS'BIH'
p2539
F0.009194121334540643
sS'BIG'
p2540
F0.02209143042882682
sS'BID'
p2541
F0.0008706554294072578
sS'KWM'
p2542
F0.040050149752733855
sS'BIC'
p2543
F0.0017645283369320424
sS'KWO'
p2544
F0.0032504469364537623
sS'GOM'
p2545
F0.00679111234937661
sS'CKDL'
p2546
F0.013535789742518168
sS'KWP'
p2547
F0.002426226463281558
sS'KWR'
p2548
F0.0035754916300991387
sS'BIX'
p2549
F0.006802721088435374
sS'BIY'
p2550
F0.059320656590281164
sS'SLY'
p2551
F0.01915441944695967
sS'BDTS'
p2552
F0.006802721088435374
sS'SLT'
p2553
F0.03704348633651413
sS'CTND'
p2554
F0.06668059715353718
sS'SLR'
p2555
F0.00679111234937661
sS'SLN'
p2556
F0.03525574052146456
sS'SLO'
p2557
F0.10888997237120104
sS'KLNK'
p2558
F0.0003018272155278494
sS'SLI'
p2559
F0.0
sS'SLJ'
p2560
F0.014058183000162523
sS'DJHR'
p2561
F0.00010447865152887093
sS'SLF'
p2562
F0.008184161036428224
sS'TRVL'
p2563
F0.0
sS'NCB'
p2564
F0.0911866453065868
sS'SLB'
p2565
F0.0031111420677486013
sS'MCN'
p2566
F0.0
sS'JPL'
p2567
F0.0176220658912029
sS'MCI'
p2568
F0.0072438531726683845
sS'JPE'
p2569
F0.0003482621717629031
sS'JPD'
p2570
F0.004747974275034246
sS'JPG'
p2571
F0.00679111234937661
sS'BYNR'
p2572
F0.012386524575700587
sS'JPZ'
p2573
F0.07214831325021476
sS'MCU'
p2574
F0.03093728959160456
sS'MCS'
p2575
F0.0
sS'MCQ'
p2576
F0.10223816489052959
sS'SVPR'
p2577
F0.00679111234937661
sS'BGH'
p2578
F0.0
sS'MFL'
p2579
F0.0
sS'BGK'
p2580
F0.022950477119175316
sS'SHDM'
p2581
F0.0
sS'BGM'
p2582
F0.014743098604629565
sS'BGP'
p2583
F0.014267140303220264
sS'BGQ'
p2584
F0.0034826217176290313
sS'BGS'
p2585
F0.0222887789928258
sS'PYOL'
p2586
F0.000847437951289731
sS'BSTP'
p2587
F0.00010447865152887093
sS'BGY'
p2588
F0.006802721088435374
sS'SVPI'
p2589
F0.17389891110027628
sS'YLM'
p2590
F0.0
sS'TCN'
p2591
F0.006802721088435374
sS'VNE'
p2592
F0.00679111234937661
sS'VNB'
p2593
F0.00679111234937661
sS'VNA'
p2594
F0.08954981309930116
sS'PRNA'
p2595
F0.00679111234937661
sS'SDMD'
p2596
F0.00013930486870516125
sS'WENA'
p2597
F0.00679111234937661
sS'DURG'
p2598
F0.10356156114322862
sS'SBBJ'
p2599
F0.006582155046318869
sS'PRLI'
p2600
F0.14726846369947297
sS'DDA'
p2601
F4.643495623505375e-05
sS'DLPH'
p2602
F0.00679111234937661
sS'GPH'
p2603
F0.13733138306517145
sS'GPD'
p2604
F0.05144993150843955
sS'THV'
p2605
F0.11393977386176314
sS'GPB'
p2606
F0.014743098604629565
sS'GPZ'
p2607
F0.00679111234937661
sS'THB'
p2608
F0.05402707157948504
sS'THA'
p2609
F0.02005990109354322
sS'HLAR'
p2610
F0.0176220658912029
sS'HJP'
p2611
F0.013686703350282093
sS'NIL'
p2612
F0.006802721088435374
sS'KIS'
p2613
F0.006582155046318869
sS'KIR'
p2614
F0.06170044809732767
sS'KIP'
p2615
F0.005839195746558009
sS'KIT'
p2616
F0.004028232453390913
sS'KIK'
p2617
F0.006802721088435374
sS'KIN'
p2618
F0.050683754730561165
sS'KIM'
p2619
F0.04699217570987439
sS'NIR'
p2620
F0.00679111234937661
sS'HJO'
p2621
F0.013535789742518168
sS'NIQ'
p2622
F0.02209143042882682
sS'HJI'
p2623
F0.040050149752733855
sS'NIU'
p2624
F0.04699217570987439
sS'CRR'
p2625
F0.05402707157948504
sS'CRP'
p2626
F0.026026792969747626
sS'FDB'
p2627
F0.0
sS'ABLE'
p2628
F0.0
sS'FDK'
p2629
F0.00709293956490446
sS'CRY'
p2630
F0.0038308838893919344
sS'BIDR'
p2631
F0.10620835364862669
sS'BKRO'
p2632
F0.0
sS'CRJ'
p2633
F0.0170184114601472
sS'CTYL'
p2634
F0.025852661883866174
sS'CRN'
p2635
F0.00679111234937661
sS'BPC'
p2636
F0.00679111234937661
sS'BKRD'
p2637
F0.09268417264516728
sS'PS'
p2638
F0.03836688258921316
sS'PP'
p2639
F0.013535789742518168
sS'JGN'
p2640
F0.012235610967936662
sS'KRMR'
p2641
F0.006802721088435374
sS'PB'
p2642
F0.04499547259176708
sS'PC'
p2643
F0.09715353718279121
sS'MALM'
p2644
F0.12140419307654803
sS'DDR'
p2645
F0.013547398481576932
sS'MALB'
p2646
F0.05796243412040584
sS'SMLA'
p2647
F0.00037147964988043
sS'SRTL'
p2648
F0.011237259408883007
sS'WTR'
p2649
F0.0
sS'S'
p2650
F0.0008706554294072578
sS'MKSR'
p2651
F0.02692066587727241
sS'SKN'
p2652
F0.003087924589631074
sS'KTCH'
p2653
F0.0
sS'KMBL'
p2654
F0.00679111234937661
sS'DOTL'
p2655
F0.00679111234937661
sS'RNH'
p2656
F0.008660119337837524
sS'RNO'
p2657
F0.04802535348610434
sS'RNC'
p2658
F0.01087738849806134
sS'RNG'
p2659
F0.13466137308165588
sS'RNY'
p2660
F0.013570615959694459
sS'NMH'
p2661
F0.00374962271598059
sS'OPL'
p2662
F0.004213972278331128
sS'RNR'
p2663
F0.02165029834459381
sS'RNQ'
p2664
F0.09370574168233846
sS'SPRD'
p2665
F0.11393977386176314
sS'RNV'
p2666
F0.02692066587727241
sS'KPRR'
p2667
F0.00679111234937661
sS'DVL'
p2668
F0.054967379443244875
sS'NDLS'
p2669
F0.011399781755705695
sS'UMR'
p2670
F0.027210884353741496
sS'DVD'
p2671
F0.10406073692275546
sS'DVG'
p2672
F0.02165029834459381
sS'BMLL'
p2673
F0.0003018272155278494
sS'MABD'
p2674
F0.005804369529381718
sS'MHV'
p2675
F0.006802721088435374
sS'MABA'
p2676
F0.22619628056000557
sS'UMB'
p2677
F0.12272758932924706
sS'SWPR'
p2678
F0.0
sS'JGR'
p2679
F0.00042952334517424716
sS'IKR'
p2680
F0.00679111234937661
sS'ANDN'
p2681
F0.00679111234937661
sS'ANDI'
p2682
F0.006802721088435374
sS'MSMD'
p2683
F0.056964082561352186
sS'DAKE'
p2684
F0.011434607972881986
sS'IKK'
p2685
F0.0
sS'MBA'
p2686
F0.029497805948317895
sS'MZM'
p2687
F5.8043695293817184e-05
sS'BLDI'
p2688
F0.02692066587727241
sS'ANVR'
p2689
F0.0011260476887000534
sS'FZR'
p2690
F0.013350049917577952
sS'BLDA'
p2691
F0.04507673376517843
sS'KURJ'
p2692
F0.006802721088435374
sS'OBR'
p2693
F0.10223816489052959
sS'WTJ'
p2694
F0.020025074876366927
sS'FZD'
p2695
F0.003912145062803278
sS'CDG'
p2696
F0.08588145155673191
sS'PLS'
p2697
F0.006744677393141557
sS'SUJH'
p2698
F0.0
sS'PLP'
p2699
F5.8043695293817184e-05
sS'CDM'
p2700
F0.025620487102690905
sS'PLY'
p2701
F0.00679111234937661
sS'PLG'
p2702
F0.0029137935037496228
sS'BRVR'
p2703
F0.0034129692832764505
sS'MRND'
p2704
F0.020234032179424672
sS'RURA'
p2705
F0.00042952334517424716
sS'PLO'
p2706
F0.003633535325392956
sS'PLK'
p2707
F0.0017645283369320424
sS'PLJ'
p2708
F0.04699217570987439
sS'PLI'
p2709
F0.0572775185159388
sS'BXY'
p2710
F0.00679111234937661
sS'MOP'
p2711
F0.00679111234937661
sS'BXP'
p2712
F0.013535789742518168
sS'BXR'
p2713
F0.0035754916300991387
sS'BPK'
p2714
F0.0
sS'TLGP'
p2715
F0.006802721088435374
sS'BXK'
p2716
F0.013535789742518168
sS'BXJ'
p2717
F0.013535789742518168
sS'BXM'
p2718
F0.0017645283369320424
sS'MOU'
p2719
F0.13333797682895684
sS'BXN'
p2720
F0.0
sS'BXA'
p2721
F0.00679111234937661
sS'IPM'
p2722
F0.004028232453390913
sS'MNTT'
p2723
F0.0
sS'SOA'
p2724
F0.00679111234937661
sS'MBM'
p2725
F0.047839613661164127
sS'MBI'
p2726
F0.00679111234937661
sS'SOG'
p2727
F0.002182442943047526
sS'PPD'
p2728
F0.00037147964988043
sS'SOH'
p2729
F0.0
sS'MBF'
p2730
F0.0034129692832764505
sS'MBG'
p2731
F0.013535789742518168
sS'PPO'
p2732
F0.13733138306517145
sS'PPN'
p2733
F0.02005990109354322
sS'MBB'
p2734
F0.00679111234937661
sS'GAP'
p2735
F0.0422906363910752
sS'SOP'
p2736
F0.003087924589631074
sS'GAM'
p2737
F0.004028232453390913
sS'SOR'
p2738
F0.028824499082909613
sS'GAGA'
p2739
F0.0
sS'MBY'
p2740
F0.0003830883889391934
sS'SOW'
p2741
F0.00679111234937661
sS'PPT'
p2742
F0.00749924543196118
sS'PPZ'
p2743
F0.0072438531726683845
sS'GAD'
p2744
F0.003401360544217687
sS'PNU'
p2745
F0.009612035940656126
sS'MBS'
p2746
F4.643495623505375e-05
sS'MTY'
p2747
F0.185739824940215
sS'ANR'
p2748
F0.13475424299412597
sS'MTR'
p2749
F0.04044484688073181
sS'MTP'
p2750
F0.006802721088435374
sS'MTPR'
p2751
F0.013535789742518168
sS'MTU'
p2752
F0.12140419307654803
sS'HLZ'
p2753
F0.006802721088435374
sS'SJN'
p2754
F0.0029137935037496228
sS'MTM'
p2755
F0.006802721088435374
sS'JCL'
p2756
F0.006582155046318869
sS'MTC'
p2757
F0.0068143298274941375
sS'HRR'
p2758
F0.02165029834459381
sS'MTD'
p2759
F0.00013930486870516125
sS'ARQ'
p2760
F0.00679111234937661
sS'JRNA'
p2761
F0.00679111234937661
sS'JNRD'
p2762
F0.006802721088435374
sS'GMAN'
p2763
F0.010575561282533492
sS'ARA'
p2764
F0.0035754916300991387
sS'SNGP'
p2765
F0.027210884353741496
sS'ARD'
p2766
F0.03316616749088714
sS'WZJ'
p2767
F0.042766594692484505
sS'ARJ'
p2768
F0.02262543242552994
sS'TNGL'
p2769
F0.005340019967031181
sS'BD'
p2770
F0.22260918019084766
sS'GSP'
p2771
F6.965243435258063e-05
sS'BF'
p2772
F0.013535789742518168
sS'BG'
p2773
F0.004910496621856934
sS'BPO'
p2774
F0.00679111234937661
sS'GWD'
p2775
F0.006582155046318869
sS'BL'
p2776
F0.00861368438160247
sS'TIU'
p2777
F0.004028232453390913
sS'BN'
p2778
F0.004910496621856934
sS'TIW'
p2779
F0.01719254254602865
sS'BH'
p2780
F0.04699217570987439
sS'BCN'
p2781
F0.00024378352023403217
sS'BJ'
p2782
F0.057556128253349124
sS'TIS'
p2783
F0.008184161036428224
sS'BU'
p2784
F2.3217478117526874e-05
sS'BV'
p2785
F0.06224605883308955
sS'VYA'
p2786
F0.059320656590281164
sS'BP'
p2787
F0.0007661767778783868
sS'KMC'
p2788
F0.040758282835318425
sS'TIG'
p2789
F0.15606788790601564
sS'VYN'
p2790
F0.0376239232894523
sS'TIA'
p2791
F0.042766594692484505
sS'BORA'
p2792
F0.0
sS'NNO'
p2793
F0.005990109354321933
sS'NNN'
p2794
F0.013535789742518168
sS'NNL'
p2795
F0.01358222469875322
sS'TMV'
p2796
F0.047839613661164127
sS'BSPN'
p2797
F0.0
sS'KHT'
p2798
F0.02367021894081865
sS'KHU'
p2799
F0.028348540781500314
sS'NNA'
p2800
F0.05402707157948504
sS'KHM'
p2801
F0.0035406654129228484
sS'BDBA'
p2802
F0.00679111234937661
sS'NNW'
p2803
F0.0
sS'NNR'
p2804
F0.05402707157948504
sS'TDPR'
p2805
F0.025620487102690905
sS'NNP'
p2806
F0.0017645283369320424
sS'NAVI'
p2807
F0.21843003412969283
sS'GTJT'
p2808
F0.002426226463281558
sS'HNL'
p2809
F0.19363376750017414
sS'CKNI'
p2810
F0.011097954540177845
sS'NXN'
p2811
F0.005351628706089944
sS'BPP'
p2812
F0.08281674444521836
sS'KVG'
p2813
F0.00024378352023403217
sS'BVQ'
p2814
F0.0
sS'BVP'
p2815
F0.00679111234937661
sS'SQR'
p2816
F0.000557219474820645
sS'KVM'
p2817
F0.00679111234937661
sS'KMU'
p2818
F0.0
sS'BVC'
p2819
F0.006802721088435374
sS'KVU'
p2820
F0.0038308838893919344
sS'KVR'
p2821
F0.10018341807712847
sS'SQN'
p2822
F0.0
sS'SQL'
p2823
F0.004573843189152794
sS'BVI'
p2824
F0.020234032179424672
sS'BVH'
p2825
F0.0
sS'KVZ'
p2826
F0.08281674444521836
sS'SQF'
p2827
F0.013535789742518168
sS'BVL'
p2828
F0.10018341807712847
sS'JUJA'
p2829
F0.0
sS'MJZ'
p2830
F0.00679111234937661
sS'JTTN'
p2831
F0.0
sS'KAL'
p2832
F0.06049313923521627
sS'ARGD'
p2833
F0.0
sS'CNS'
p2834
F0.0
sS'ROI'
p2835
F0.010354995240416985
sS'ROK'
p2836
F0.006802721088435374
sS'ROA'
p2837
F0.04391585985930208
sS'ICL'
p2838
F0.0036567528035104826
sS'LLJ'
p2839
F0.004747974275034246
sS'LLI'
p2840
F0.03286434027535929
sS'OSN'
p2841
F0.01719254254602865
sS'ROP'
p2842
F0.035894221169696545
sS'HTE'
p2843
F0.0094611223328922
sS'ROU'
p2844
F0.14141765921385618
sS'BDC'
p2845
F0.015811102598035802
sS'BDM'
p2846
F0.0176220658912029
sS'BDL'
p2847
F0.05721947482064498
sS'RHN'
p2848
F0.006744677393141557
sS'BDH'
p2849
F0.0006036544310556987
sS'BDJ'
p2850
F0.000847437951289731
sS'GSPR'
p2851
F0.008961946553365373
sS'BDW'
p2852
F0.01519583942792134
sS'BJUD'
p2853
F0.00679111234937661
sS'MUPA'
p2854
F0.013535789742518168
sS'BDY'
p2855
F0.01915441944695967
sS'MLDT'
p2856
F0.1006129414223027
sS'DKGS'
p2857
F0.0
sS'SDLP'
p2858
F0.025794618188572357
sS'LRJ'
p2859
F0.02596874927445381
sS'TVL'
p2860
F0.021464558519653596
sS'UR'
p2861
F0.006582155046318869
sS'CNE'
p2862
F0.013535789742518168
sS'UJ'
p2863
F0.013535789742518168
sS'UD'
p2864
F0.012386524575700587
sS'UA'
p2865
F0.006860764783729191
sS'DBRG'
p2866
F0.013570615959694459
sS'MMY'
p2867
F0.01719254254602865
sS'IDR'
p2868
F0.021464558519653596
sS'IDH'
p2869
F0.006431241438554944
sS'IDG'
p2870
F0.003610317847275429
sS'PMT'
p2871
F0.0
sS'PMU'
p2872
F0.006582155046318869
sS'ERS'
p2873
F0.01773815328179053
sS'CGL'
p2874
F0.047839613661164127
sS'PMR'
p2875
F0.0
sS'CGN'
p2876
F0.0431148568642474
sS'PMY'
p2877
F0.021093078869773164
sS'DWO'
p2878
F0.00679111234937661
sS'CGY'
p2879
F0.0
sS'GOK'
p2880
F0.012386524575700587
sS'UDGR'
p2881
F0.10479208748345754
sS'KPZ'
p2882
F0.003610317847275429
sS'TVI'
p2883
F0.00679111234937661
sS'CGS'
p2884
F0.013535789742518168
sS'CGR'
p2885
F0.0
sS'PMK'
p2886
F0.00679111234937661
sS'VHGN'
p2887
F0.011318520582294352
sS'MINJ'
p2888
F0.0
sS'CUR'
p2889
F0.02567853079798472
sS'MINA'
p2890
F0.05399224536230875
sS'CUX'
p2891
F0.008787815467483922
sS'KESR'
p2892
F0.0
sS'KDU'
p2893
F0.04202363539272364
sS'CUK'
p2894
F0.03541826286828725
sS'KDRP'
p2895
F0.00679111234937661
sS'NOMD'
p2896
F0.00679111234937661
sS'KRLR'
p2897
F0.10661465951568341
sS'TATA'
p2898
F0.023391609203408326
sS'KRLI'
p2899
F0.020234032179424672
sS'PNGM'
p2900
F0.00679111234937661
sS'MRHT'
p2901
F0.013535789742518168
sS'AIT'
p2902
F0.0431148568642474
sS'NSU'
p2903
F0.0
sS'MSZ'
p2904
F0.0004063058670567203
sS'KART'
p2905
F0.020234032179424672
sS'SRC'
p2906
F0.030275591465255044
sS'MSW'
p2907
F0.06224605883308955
sS'MST'
p2908
F0.0
sS'MSR'
p2909
F0.0
sS'CIL'
p2910
F0.0
sS'ASAF'
p2911
F0.0072438531726683845
sS'KRY'
p2912
F0.03093728959160456
sS'MSK'
p2913
F0.05402707157948504
sS'MSH'
p2914
F0.009612035940656126
sS'DAA'
p2915
F0.028824499082909613
sS'DAB'
p2916
F0.04353277147036289
sS'DAL'
p2917
F0.011771261405586125
sS'SRJ'
p2918
F0.03880801467344617
sS'AQG'
p2919
F0.00679111234937661
sS'BCA'
p2920
F0.0
sS'DAS'
p2921
F0.00679111234937661
sS'BTJL'
p2922
F0.012386524575700587
sS'BCRD'
p2923
F0.00679111234937661
sS'DWR'
p2924
F0.018957070882960694
sS'DWP'
p2925
F0.10018341807712847
sS'SRI'
p2926
F0.045041907548002136
sS'DWX'
p2927
F0.00679111234937661
sS'ULT'
p2928
F0.03060063615890042
sS'TUVR'
p2929
F0.011237259408883007
sS'SNTD'
p2930
F0.0061061967449095676
sS'ULL'
p2931
F0.00594367439808688
sS'ULB'
p2932
F0.025945531796336282
sS'DWK'
p2933
F0.00679111234937661
sS'ULG'
p2934
F0.00679111234937661
sS'ULD'
p2935
F0.00042952334517424716
sS'PKW'
p2936
F0.004097884887743494
sS'IJK'
p2937
F0.01742471732720392
sS'ABKP'
p2938
F0.006802721088435374
sS'PTRU'
p2939
F0.07554967379443245
sS'SELU'
p2940
F0.00037147964988043
sS'PTRD'
p2941
F0.005839195746558009
sS'PTRE'
p2942
F0.0036567528035104826
s.