(dp0
S'SSPN'
p1
I32
sS'AGN'
p2
I20
sS'NYY'
p3
I24
sS'AGI'
p4
I16
sS'NYP'
p5
I40
sS'AGC'
p6
I248
sS'NYN'
p7
I48
sS'NYO'
p8
I12
sS'AGY'
p9
I10
sS'NYG'
p10
I4
sS'KOTA'
p11
I194
sS'SPX'
p12
I4
sS'KYJ'
p13
I154
sS'BWR'
p14
I12
sS'SRY'
p15
I4
sS'BWT'
p16
I130
sS'KYN'
p17
I390
sS'KYM'
p18
I2
sS'SPP'
p19
I20
sS'SPT'
p20
I56
sS'KYF'
p21
I12
sS'KYE'
p22
I42
sS'NDT'
p23
I2
sS'NGA'
p24
I4
sS'SPJ'
p25
I173
sS'SPK'
p26
I4
sS'NDW'
p27
I4
sS'SPN'
p28
I168
sS'BWH'
p29
I20
sS'BWI'
p30
I8
sS'KYQ'
p31
I123
sS'SPC'
p32
I4
sS'BWL'
p33
I6
sS'BWM'
p34
I56
sS'BWN'
p35
I282
sS'KYT'
p36
I2
sS'UMRI'
p37
I18
sS'GR'
p38
I110
sS'GP'
p39
I50
sS'TLHD'
p40
I60
sS'BYT'
p41
I102
sS'TRTR'
p42
I28
sS'GY'
p43
I106
sS'BYN'
p44
I16
sS'BYL'
p45
I24
sS'GD'
p46
I146
sS'GB'
p47
I22
sS'BYD'
p48
I4
sS'GK'
p49
I6
sS'TLHR'
p50
I22
sS'GH'
p51
I4
sS'SNF'
p52
I12
sS'MAP'
p53
I28
sS'MAS'
p54
I170
sS'MAU'
p55
I90
sS'PQE'
p56
I14
sS'JNU'
p57
I62
sS'MAY'
p58
I10
sS'SNL'
p59
I2
sS'PQL'
p60
I4
sS'SNK'
p61
I4
sS'PQN'
p62
I24
sS'SNI'
p63
I18
sS'SNV'
p64
I8
sS'SNT'
p65
I70
sS'MAD'
p66
I30
sS'SNP'
p67
I70
sS'JND'
p68
I28
sS'MAI'
p69
I16
sS'JNH'
p70
I72
sS'JNO'
p71
I6
sS'MAO'
p72
I120
sS'JNL'
p73
I16
sS'BEH'
p74
I16
sS'TRAN'
p75
I4
sS'BEB'
p76
I12
sS'SVRP'
p77
I8
sS'BEA'
p78
I36
sS'BEG'
p79
I4
sS'BEY'
p80
I4
sS'BER'
p81
I56
sS'BSRX'
p82
I16
sS'MLGH'
p83
I10
sS'SQF'
p84
I4
sS'VLI'
p85
I14
sS'TTR'
p86
I54
sS'GMDN'
p87
I4
sS'LSI'
p88
I40
sS'VLY'
p89
I36
sS'MPLM'
p90
I4
sS'LSR'
p91
I30
sS'TTL'
p92
I4
sS'TTB'
p93
I8
sS'VLR'
p94
I24
sS'BIRD'
p95
I64
sS'LSX'
p96
I8
sS'ZN'
p97
I48
sS'KSRA'
p98
I38
sS'SPZ'
p99
I20
sS'GRX'
p100
I2
sS'GRY'
p101
I10
sS'GRD'
p102
I4
sS'MLJ'
p103
I2
sS'GRA'
p104
I16
sS'GRO'
p105
I4
sS'GRL'
p106
I16
sS'ZW'
p107
I4
sS'BSDP'
p108
I16
sS'NMM'
p109
I4
sS'NOI'
p110
I4
sS'NOK'
p111
I60
sS'KKU'
p112
I8
sS'KKW'
p113
I36
sS'KKP'
p114
I28
sS'KKM'
p115
I20
sS'HLN'
p116
I24
sS'KKN'
p117
I30
sS'KKI'
p118
I4
sS'TDU'
p119
I52
sS'KKJ'
p120
I8
sS'APDJ'
p121
I42
sS'KKA'
p122
I4
sS'NOQ'
p123
I102
sS'KKB'
p124
I4
sS'VAPM'
p125
I8
sS'STPD'
p126
I4
sS'VAPI'
p127
I198
sS'BZLE'
p128
I14
sS'VBL'
p129
I42
sS'VBW'
p130
I12
sS'PRNR'
p131
I4
sS'CTC'
p132
I222
sS'CTO'
p133
I70
sS'WHM'
p134
I40
sS'PNDM'
p135
I10
sS'ABSA'
p136
I4
sS'GKC'
p137
I6
sS'DBEC'
p138
I4
sS'RLO'
p139
I8
sS'LMP'
p140
I6
sS'LMT'
p141
I16
sS'SPE'
p142
I50
sS'LMK'
p143
I8
sS'LMN'
p144
I20
sS'LMO'
p145
I4
sS'LMG'
p146
I64
sS'DPU'
p147
I54
sS'MOTC'
p148
I6
sS'DPS'
p149
I8
sS'DPR'
p150
I30
sS'MOTH'
p151
I20
sS'MJF'
p152
I20
sS'MVLK'
p153
I66
sS'UKL'
p154
I6
sS'DPA'
p155
I52
sS'SDGM'
p156
I4
sS'DPL'
p157
I4
sS'DPJ'
p158
I38
sS'UKA'
p159
I4
sS'LD'
p160
I85
sS'LC'
p161
I26
sS'LM'
p162
I10
sS'BNLW'
p163
I24
sS'SGDM'
p164
I4
sS'LS'
p165
I36
sS'BLPU'
p166
I10
sS'BLPR'
p167
I4
sS'ANTU'
p168
I16
sS'CLDR'
p169
I4
sS'RDHP'
p170
I12
sS'LRD'
p171
I22
sS'NLDA'
p172
I40
sS'KWAE'
p173
I34
sS'PNP'
p174
I128
sS'NLDM'
p175
I10
sS'BINA'
p176
I224
sS'PNW'
p177
I12
sS'PNK'
p178
I26
sS'BKNG'
p179
I28
sS'PNC'
p180
I132
sS'SRNR'
p181
I12
sS'PNE'
p182
I26
sS'PND'
p183
I52
sS'PNF'
p184
I4
sS'NNGE'
p185
I4
sS'CTKT'
p186
I12
sS'DJG'
p187
I8
sS'GSP'
p188
I14
sS'JOP'
p189
I44
sS'JOQ'
p190
I4
sS'PRG'
p191
I47
sS'PRF'
p192
I22
sS'SAN'
p193
I46
sS'PRB'
p194
I8
sS'SAC'
p195
I4
sS'PRL'
p196
I8
sS'SAA'
p197
I8
sS'JBP'
p198
I212
sS'SAG'
p199
I38
sS'PRH'
p200
I4
sS'PRT'
p201
I8
sS'JOB'
p202
I30
sS'JOC'
p203
I34
sS'PRP'
p204
I24
sS'PRR'
p205
I74
sS'SAP'
p206
I32
sS'SAW'
p207
I28
sS'SAV'
p208
I4
sS'SAU'
p209
I14
sS'NRKR'
p210
I50
sS'MAQ'
p211
I40
sS'GRRU'
p212
I24
sS'CHE'
p213
I132
sS'JNR'
p214
I12
sS'MRT'
p215
I2
sS'CHI'
p216
I52
sS'JAT'
p217
I74
sS'SKTN'
p218
I4
sS'MRR'
p219
I26
sS'KASR'
p220
I4
sS'MRL'
p221
I16
sS'JAO'
p222
I26
sS'CHR'
p223
I6
sS'JAM'
p224
I80
sS'JAJ'
p225
I174
sS'CHV'
p226
I32
sS'MRK'
p227
I20
sS'MRE'
p228
I2
sS'CHZ'
p229
I4
sS'MRG'
p230
I4
sS'MRA'
p231
I94
sS'MRB'
p232
I10
sS'JAA'
p233
I36
sS'BRKA'
p234
I46
sS'BTKP'
p235
I8
sS'DBA'
p236
I68
sS'VSKP'
p237
I226
sS'DBB'
p238
I2
sS'DBD'
p239
I46
sS'DBG'
p240
I60
sS'DBY'
p241
I4
sS'SNN'
p242
I2
sS'API'
p243
I4
sS'APN'
p244
I4
sS'DBR'
p245
I30
sS'DBU'
p246
I16
sS'ATP'
p247
I116
sS'VNUP'
p248
I16
sS'RPRD'
p249
I30
sS'TKG'
p250
I4
sS'TKD'
p251
I20
sS'TKE'
p252
I16
sS'HMY'
p253
I4
sS'NLV'
p254
I20
sS'TKN'
p255
I14
sS'TKJ'
p256
I6
sS'JNA'
p257
I14
sS'TKH'
p258
I4
sS'HML'
p259
I4
sS'DAL'
p260
I6
sS'NLE'
p261
I32
sS'NLD'
p262
I14
sS'TKQ'
p263
I8
sS'NLI'
p264
I4
sS'HMG'
p265
I4
sS'DLB'
p266
I2
sS'MAG'
p267
I20
sS'AFK'
p268
I72
sS'DLK'
p269
I56
sS'GCH'
p270
I4
sS'DLI'
p271
I165
sS'SNQ'
p272
I4
sS'DLO'
p273
I20
sS'DLN'
p274
I72
sS'DLR'
p275
I22
sS'DLQ'
p276
I4
sS'SNDD'
p277
I16
sS'HPU'
p278
I99
sS'AFR'
p279
I4
sS'ASV'
p280
I4
sS'KXH'
p281
I8
sS'BTT'
p282
I90
sS'BTW'
p283
I16
sS'BTV'
p284
I4
sS'BTQ'
p285
I4
sS'BTP'
p286
I24
sS'BTS'
p287
I16
sS'MAM'
p288
I2
sS'BTY'
p289
I12
sS'BTX'
p290
I8
sS'SSR'
p291
I4
sS'SSM'
p292
I104
sS'BTD'
p293
I23
sS'AJNI'
p294
I30
sS'BTA'
p295
I40
sS'SNX'
p296
I8
sS'BTC'
p297
I2
sS'BTO'
p298
I4
sS'MAN'
p299
I72
sS'BTI'
p300
I70
sS'BTH'
p301
I32
sS'BTK'
p302
I12
sS'SSB'
p303
I62
sS'KKLR'
p304
I40
sS'DGI'
p305
I4
sS'SLR'
p306
I8
sS'PGTN'
p307
I2
sS'KMME'
p308
I30
sS'RMR'
p309
I8
sS'RMP'
p310
I10
sS'RMT'
p311
I22
sS'RMU'
p312
I110
sS'LNT'
p313
I4
sS'GUD'
p314
I8
sS'SEE'
p315
I138
sS'LNR'
p316
I4
sS'RMB'
p317
I4
sS'LNL'
p318
I178
sS'RMA'
p319
I74
sS'RMF'
p320
I2
sS'BGVN'
p321
I16
sS'LNK'
p322
I12
sS'TETA'
p323
I12
sS'KGLE'
p324
I30
sS'RMN'
p325
I4
sS'RMM'
p326
I16
sS'BBN'
p327
I4
sS'BBM'
p328
I26
sS'GUH'
p329
I2
sS'BBK'
p330
I150
sS'KJG'
p331
I2
sS'KJH'
p332
I40
sS'KJI'
p333
I12
sS'KJN'
p334
I18
sS'BBA'
p335
I8
sS'KJM'
p336
I136
sS'KJT'
p337
I124
sS'BBU'
p338
I100
sS'KJY'
p339
I6
sS'BBS'
p340
I306
sS'BSQP'
p341
I18
sS'MDNR'
p342
I34
sS'TUP'
p343
I222
sS'VMD'
p344
I8
sS'MBNL'
p345
I8
sS'TUV'
p346
I4
sS'DNKL'
p347
I74
sS'GUP'
p348
I4
sS'TUL'
p349
I4
sS'MBNR'
p350
I68
sS'TUN'
p351
I30
sS'TUA'
p352
I8
sS'BWIP'
p353
I4
sS'KATL'
p354
I44
sS'KRND'
p355
I28
sS'DRLA'
p356
I2
sS'KPNA'
p357
I2
sS'KRNR'
p358
I24
sS'BEHS'
p359
I14
sS'BEHR'
p360
I16
sS'ANSB'
p361
I12
sS'POZ'
p362
I2
sS'CLJ'
p363
I28
sS'TKRI'
p364
I12
sS'POT'
p365
I4
sS'JAIS'
p366
I28
sS'BET'
p367
I4
sS'FYZ'
p368
I4
sS'CYN'
p369
I4
sS'CDG'
p370
I48
sS'SKGH'
p371
I10
sS'FKM'
p372
I42
sS'FKA'
p373
I2
sS'FKG'
p374
I38
sS'CWA'
p375
I3
sS'SMET'
p376
I14
sS'WKI'
p377
I52
sS'JNRD'
p378
I2
sS'QSR'
p379
I4
sS'WKR'
p380
I82
sS'PAP'
p381
I30
sS'KNPS'
p382
I4
sS'PAR'
p383
I106
sS'PAU'
p384
I84
sS'PAV'
p385
I8
sS'CKB'
p386
I12
sS'PAY'
p387
I84
sS'PAZ'
p388
I28
sS'CKI'
p389
I72
sS'CKK'
p390
I4
sS'CKU'
p391
I28
sS'KATI'
p392
I28
sS'DRZ'
p393
I2
sS'PAD'
p394
I8
sS'CKP'
p395
I96
sS'CKR'
p396
I4
sS'PAK'
p397
I44
sS'KHTU'
p398
I4
sS'PAN'
p399
I42
sS'PAO'
p400
I12
sS'AWY'
p401
I220
sS'BMCK'
p402
I8
sS'PNYA'
p403
I8
sS'AWR'
p404
I92
sS'AMSA'
p405
I6
sS'DCA'
p406
I4
sS'MQS'
p407
I4
sS'MQR'
p408
I24
sS'MQU'
p409
I4
sS'JWO'
p410
I12
sS'MQX'
p411
I6
sS'AWB'
p412
I54
sS'SGNR'
p413
I17
sS'BSYA'
p414
I4
sS'UJP'
p415
I10
sS'UJN'
p416
I155
sS'DQG'
p417
I62
sS'GRCP'
p418
I4
sS'DQN'
p419
I8
sS'UJA'
p420
I36
sS'ANAS'
p421
I4
sS'PLCJ'
p422
I22
sS'ALMR'
p423
I4
sS'BLQR'
p424
I16
sS'BGBR'
p425
I24
sS'HCR'
p426
I30
sS'GBD'
p427
I32
sS'DMC'
p428
I3
sS'OBVP'
p429
I12
sS'GBA'
p430
I12
sS'DMM'
p431
I136
sS'DMN'
p432
I46
sS'DMO'
p433
I82
sS'DMP'
p434
I8
sS'DMR'
p435
I4
sS'DMV'
p436
I52
sS'DMW'
p437
I4
sS'JEUR'
p438
I24
sS'KL'
p439
I22
sS'GBX'
p440
I10
sS'BUX'
p441
I8
sS'BUP'
p442
I56
sS'BUQ'
p443
I4
sS'BUW'
p444
I24
sS'BUT'
p445
I12
sS'DRD'
p446
I52
sS'BUH'
p447
I24
sS'PRLI'
p448
I28
sS'KPY'
p449
I56
sS'BUA'
p450
I8
sS'BUG'
p451
I32
sS'RNPR'
p452
I8
sS'RDUM'
p453
I6
sS'KPRD'
p454
I4
sS'JMKT'
p455
I26
sS'ZB'
p456
I24
sS'MOZ'
p457
I68
sS'JLW'
p458
I4
sS'KURJ'
p459
I6
sS'JLS'
p460
I10
sS'JLR'
p461
I24
sS'BRVR'
p462
I2
sS'MOR'
p463
I16
sS'ACND'
p464
I18
sS'PSA'
p465
I140
sS'MOU'
p466
I24
sS'MOT'
p467
I18
sS'JLD'
p468
I32
sS'MOI'
p469
I4
sS'MOO'
p470
I20
sS'MON'
p471
I8
sS'MOM'
p472
I2
sS'MOL'
p473
I4
sS'PSR'
p474
I8
sS'JLL'
p475
I28
sS'NRLR'
p476
I30
sS'JLN'
p477
I16
sS'MOG'
p478
I12
sS'MOF'
p479
I12
sS'HNA'
p480
I24
sS'ETP'
p481
I4
sS'KMD'
p482
I12
sS'BCH'
p483
I52
sS'ETW'
p484
I110
sS'OMLF'
p485
I4
sS'MULK'
p486
I8
sS'KML'
p487
I12
sS'DL'
p488
I4
sS'BSPX'
p489
I4
sS'KMU'
p490
I44
sS'KMT'
p491
I126
sS'KMS'
p492
I18
sS'BCY'
p493
I50
sS'KMQ'
p494
I16
sS'BLD'
p495
I12
sS'BCT'
p496
I25
sS'BCU'
p497
I8
sS'BSPR'
p498
I4
sS'KMZ'
p499
I48
sS'ETM'
p500
I8
sS'VRR'
p501
I20
sS'TORI'
p502
I38
sS'TVP'
p503
I32
sS'TVR'
p504
I22
sS'TVL'
p505
I2
sS'VRG'
p506
I6
sS'BPH'
p507
I16
sS'GAR'
p508
I46
sS'VRI'
p509
I100
sS'VRH'
p510
I4
sS'DD'
p511
I173
sS'TVC'
p512
I96
sS'VRL'
p513
I20
sS'SRC'
p514
I119
sS'CI'
p515
I8
sS'CH'
p516
I40
sS'SRF'
p517
I12
sS'SRE'
p518
I153
sS'CC'
p519
I24
sS'RDDE'
p520
I2
sS'SRO'
p521
I18
sS'CE'
p522
I4
sS'CD'
p523
I126
sS'SRR'
p524
I182
sS'PIP'
p525
I16
sS'SRP'
p526
I18
sS'SRW'
p527
I4
sS'SRT'
p528
I86
sS'SRU'
p529
I26
sS'NGAN'
p530
I4
sS'ADIJ'
p531
I1
sS'SORO'
p532
I28
sS'CW'
p533
I6
sS'CT'
p534
I32
sS'MGLP'
p535
I2
sS'NMT'
p536
I8
sS'TDO'
p537
I36
sS'TDN'
p538
I4
sS'TDL'
p539
I174
sS'HLX'
p540
I4
sS'NMZ'
p541
I24
sS'NMX'
p542
I12
sS'TDD'
p543
I86
sS'BTTR'
p544
I44
sS'MYG'
p545
I32
sS'GADH'
p546
I4
sS'TDP'
p547
I4
sS'NMJ'
p548
I16
sS'NMK'
p549
I12
sS'NMH'
p550
I44
sS'PBKS'
p551
I4
sS'BGUA'
p552
I4
sS'CVR'
p553
I8
sS'CVP'
p554
I94
sS'PDKN'
p555
I8
sS'VARD'
p556
I4
sS'PDKT'
p557
I32
sS'FHT'
p558
I4
sS'SDGH'
p559
I12
sS'SWR'
p560
I12
sS'KKAH'
p561
I2
sS'QRP'
p562
I14
sS'KTMA'
p563
I4
sS'WJR'
p564
I36
sS'VG'
p565
I174
sS'KMNR'
p566
I4
sS'HPP'
p567
I30
sS'VM'
p568
I170
sS'VN'
p569
I36
sS'HPT'
p570
I36
sS'VR'
p571
I16
sS'VS'
p572
I10
sS'VV'
p573
I18
sS'KMNC'
p574
I32
sS'RJT'
p575
I137
sS'RJR'
p576
I12
sS'RJP'
p577
I40
sS'RJY'
p578
I258
sS'RJG'
p579
I12
sS'CNDB'
p580
I8
sS'RJA'
p581
I16
sS'RJO'
p582
I4
sS'RJN'
p583
I86
sS'CNDM'
p584
I14
sS'RJK'
p585
I12
sS'WDA'
p586
I4
sS'SIHO'
p587
I4
sS'MWX'
p588
I8
sS'DRU'
p589
I30
sS'WDM'
p590
I18
sS'DRI'
p591
I4
sS'DRH'
p592
I28
sS'WDR'
p593
I4
sS'DRL'
p594
I20
sS'KRSL'
p595
I8
sS'KRSA'
p596
I4
sS'THAN'
p597
I34
sS'SIOB'
p598
I60
sS'CTR'
p599
I2
sS'BLND'
p600
I4
sS'AYRN'
p601
I8
sS'ALLP'
p602
I75
sS'HFG'
p603
I8
sS'RXL'
p604
I12
sS'BGKT'
p605
I19
sS'BIY'
p606
I4
sS'SVHE'
p607
I4
sS'BAND'
p608
I38
sS'KRAR'
p609
I44
sS'SMPA'
p610
I2
sS'MMVR'
p611
I4
sS'SMPR'
p612
I8
sS'STLR'
p613
I8
sS'REN'
p614
I8
sS'KHED'
p615
I22
sS'SRPJ'
p616
I4
sS'MLB'
p617
I4
sS'HX'
p618
I50
sS'URGA'
p619
I2
sS'PAIL'
p620
I2
sS'GOL'
p621
I18
sS'RDRA'
p622
I18
sS'HP'
p623
I4
sS'HW'
p624
I92
sS'SURI'
p625
I32
sS'HN'
p626
I4
sS'DPUR'
p627
I4
sS'HG'
p628
I20
sS'HD'
p629
I82
sS'MLG'
p630
I8
sS'SCM'
p631
I38
sS'SCL'
p632
I4
sS'SCI'
p633
I10
sS'GOK'
p634
I16
sS'PTH'
p635
I4
sS'MNP'
p636
I32
sS'MNQ'
p637
I4
sS'JMP'
p638
I86
sS'JMV'
p639
I2
sS'PTB'
p640
I48
sS'MNV'
p641
I34
sS'JMU'
p642
I68
sS'JMK'
p643
I8
sS'MNJ'
p644
I6
sS'MNM'
p645
I38
sS'MNO'
p646
I8
sS'SCT'
p647
I2
sS'PTU'
p648
I34
sS'MND'
p649
I4
sS'MNE'
p650
I62
sS'MNF'
p651
I16
sS'CTND'
p652
I12
sS'CJN'
p653
I4
sS'PBP'
p654
I4
sS'PBR'
p655
I14
sS'GOA'
p656
I4
sS'SRBA'
p657
I2
sS'LFG'
p658
I12
sS'AJU'
p659
I4
sS'PBE'
p660
I11
sS'SUNR'
p661
I136
sS'GOC'
p662
I6
sS'PBM'
p663
I4
sS'CAPE'
p664
I18
sS'PBN'
p665
I70
sS'PBH'
p666
I73
sS'RWTB'
p667
I4
sS'MPA'
p668
I12
sS'CDMR'
p669
I14
sS'MPL'
p670
I16
sS'AMPA'
p671
I40
sS'AJJ'
p672
I172
sS'BPRD'
p673
I56
sS'AVN'
p674
I4
sS'MPU'
p675
I2
sS'AVD'
p676
I6
sS'GOY'
p677
I20
sS'BTIC'
p678
I6
sS'BPRH'
p679
I2
sS'MPY'
p680
I2
sS'SUD'
p681
I12
sS'SUA'
p682
I4
sS'DHW'
p683
I14
sS'SUR'
p684
I126
sS'DEEG'
p685
I4
sS'MLY'
p686
I12
sS'TEL'
p687
I138
sS'TEN'
p688
I73
sS'TEA'
p689
I24
sS'NBQ'
p690
I154
sS'GOP'
p691
I4
sS'NBI'
p692
I22
sS'NBH'
p693
I18
sS'NBL'
p694
I4
sS'NBA'
p695
I26
sS'TET'
p696
I8
sS'NBD'
p697
I78
sS'BRWD'
p698
I41
sS'ADT'
p699
I12
sS'GMH'
p700
I4
sS'DNA'
p701
I76
sS'ADQ'
p702
I4
sS'DNM'
p703
I8
sS'DNN'
p704
I6
sS'GMD'
p705
I4
sS'ADF'
p706
I4
sS'DNT'
p707
I4
sS'ADB'
p708
I18
sS'DNR'
p709
I118
sS'GMS'
p710
I22
sS'GMR'
p711
I32
sS'GLG'
p712
I8
sS'ADH'
p713
I40
sS'NAZJ'
p714
I8
sS'BRZ'
p715
I12
sS'KZT'
p716
I28
sS'BRW'
p717
I4
sS'BRU'
p718
I4
sS'KZY'
p719
I4
sS'BRS'
p720
I28
sS'BRR'
p721
I40
sS'KZB'
p722
I4
sS'GTNR'
p723
I14
sS'KZA'
p724
I8
sS'BRK'
p725
I4
sS'KZE'
p726
I76
sS'BRG'
p727
I8
sS'KZK'
p728
I20
sS'BRE'
p729
I18
sS'BRD'
p730
I70
sS'BRC'
p731
I460
sS'TWB'
p732
I4
sS'TWG'
p733
I8
sS'DISA'
p734
I8
sS'SEB'
p735
I28
sS'IPM'
p736
I44
sS'GJD'
p737
I10
sS'CNGR'
p738
I106
sS'BHKD'
p739
I4
sS'VEER'
p740
I8
sS'CHA'
p741
I2
sS'TLKH'
p742
I2
sS'RKD'
p743
I18
sS'WIRR'
p744
I4
sS'ODM'
p745
I4
sS'RKB'
p746
I32
sS'RKM'
p747
I104
sS'KLD'
p748
I92
sS'KLG'
p749
I4
sS'KLB'
p750
I8
sS'NWU'
p751
I12
sS'KLL'
p752
I12
sS'HOJ'
p753
I4
sS'KLJ'
p754
I4
sS'KLK'
p755
I15
sS'KLT'
p756
I12
sS'KLU'
p757
I4
sS'KLP'
p758
I4
sS'GOGH'
p759
I20
sS'PTK'
p760
I22
sS'DND'
p761
I14
sS'PTJ'
p762
I48
sS'VST'
p763
I4
sS'VSU'
p764
I40
sS'DSPN'
p765
I4
sS'SCE'
p766
I4
sS'VSG'
p767
I15
sS'BLAX'
p768
I6
sS'ORGA'
p769
I8
sS'SVKS'
p770
I4
sS'BVNR'
p771
I6
sS'HCNR'
p772
I4
sS'OYR'
p773
I14
sS'SHSK'
p774
I12
sS'LTRR'
p775
I32
sS'SVKD'
p776
I4
sS'PTA'
p777
I26
sS'GZH'
p778
I20
sS'RYS'
p779
I4
sS'RYP'
p780
I4
sS'RBGJ'
p781
I24
sS'MNI'
p782
I22
sS'BWSN'
p783
I2
sS'HTZU'
p784
I8
sS'SMQL'
p785
I4
sS'STKT'
p786
I20
sS'KHDB'
p787
I4
sS'NLKR'
p788
I8
sS'BGTA'
p789
I12
sS'VAK'
p790
I80
sS'JPH'
p791
I4
sS'GMIA'
p792
I12
sS'VAA'
p793
I4
sS'MWRN'
p794
I2
sS'LHU'
p795
I16
sS'ADTP'
p796
I12
sS'RSR'
p797
I26
sS'DLGN'
p798
I4
sS'YLG'
p799
I4
sS'SCQ'
p800
I4
sS'TAPA'
p801
I24
sS'JJKR'
p802
I156
sS'JMD'
p803
I2
sS'RASP'
p804
I4
sS'BSTP'
p805
I4
sS'PCZ'
p806
I4
sS'RLA'
p807
I4
sS'PCV'
p808
I4
sS'CMA'
p809
I4
sS'TDLE'
p810
I4
sS'PCH'
p811
I4
sS'PCN'
p812
I4
sS'KCVL'
p813
I19
sS'CMU'
p814
I28
sS'GUNA'
p815
I76
sS'SVPI'
p816
I24
sS'LHA'
p817
I14
sS'MAUR'
p818
I20
sS'CJM'
p819
I22
sS'SGRL'
p820
I27
sS'SGRM'
p821
I4
sS'UVD'
p822
I12
sS'SGRA'
p823
I16
sS'MKDD'
p824
I2
sS'ABFC'
p825
I4
sS'DSS'
p826
I56
sS'DSO'
p827
I28
sS'MAGH'
p828
I8
sS'DSJ'
p829
I8
sS'GRMT'
p830
I2
sS'GRMP'
p831
I8
sS'GRMR'
p832
I20
sS'DSA'
p833
I44
sS'NDAE'
p834
I34
sS'MA'
p835
I8
sS'MB'
p836
I281
sS'RWH'
p837
I4
sS'ML'
p838
I2
sS'MO'
p839
I12
sS'PLMD'
p840
I4
sS'RWL'
p841
I28
sS'MK'
p842
I4
sS'MJ'
p843
I126
sS'OKA'
p844
I14
sS'MW'
p845
I32
sS'MV'
p846
I56
sS'UHR'
p847
I24
sS'MS'
p848
I97
sS'ABP'
p849
I78
sS'GLH'
p850
I4
sS'DOL'
p851
I32
sS'GLA'
p852
I8
sS'AKP'
p853
I78
sS'BRPL'
p854
I26
sS'AKV'
p855
I134
sS'DOD'
p856
I8
sS'DOE'
p857
I8
sS'AKJ'
p858
I12
sS'BRPT'
p859
I2
sS'AKN'
p860
I24
sS'PBL'
p861
I12
sS'GLP'
p862
I10
sS'DOS'
p863
I110
sS'AKE'
p864
I12
sS'AKD'
p865
I24
sS'PVRD'
p866
I24
sS'MHAD'
p867
I2
sS'BSZ'
p868
I4
sS'BST'
p869
I124
sS'BHTR'
p870
I28
sS'HSP'
p871
I4
sS'BSR'
p872
I140
sS'BSL'
p873
I356
sS'ZRDE'
p874
I12
sS'BSI'
p875
I4
sS'BSE'
p876
I22
sS'BSB'
p877
I286
sS'BSC'
p878
I7
sS'AUB'
p879
I44
sS'SBR'
p880
I20
sS'SBP'
p881
I93
sS'SBV'
p882
I22
sS'SBT'
p883
I24
sS'PUK'
p884
I16
sS'SBZ'
p885
I24
sS'JJR'
p886
I14
sS'MMS'
p887
I8
sS'MMR'
p888
I279
sS'SBB'
p889
I36
sS'MML'
p890
I42
sS'JJK'
p891
I30
sS'SBG'
p892
I46
sS'MMK'
p893
I8
sS'SBE'
p894
I8
sS'MME'
p895
I4
sS'MMD'
p896
I6
sS'SBI'
p897
I46
sS'MMA'
p898
I36
sS'SBO'
p899
I12
sS'MMB'
p900
I4
sS'KOI'
p901
I4
sS'SHNR'
p902
I20
sS'BAT'
p903
I14
sS'BAU'
p904
I108
sS'KOO'
p905
I60
sS'ERS'
p906
I126
sS'BAZ'
p907
I18
sS'BAY'
p908
I36
sS'SJNP'
p909
I12
sS'BAB'
p910
I46
sS'WADI'
p911
I110
sS'ERL'
p912
I20
sS'KOP'
p913
I25
sS'ERN'
p914
I132
sS'BAM'
p915
I208
sS'KOU'
p916
I36
sS'KOV'
p917
I18
sS'VPT'
p918
I102
sS'BJRI'
p919
I4
sS'YFP'
p920
I28
sS'THV'
p921
I30
sS'VPO'
p922
I2
sS'CPDR'
p923
I8
sS'JSME'
p924
I196
sS'YPR'
p925
I133
sS'BIO'
p926
I4
sS'KNE'
p927
I188
sS'STA'
p928
I212
sS'STL'
p929
I22
sS'BNW'
p930
I18
sS'STN'
p931
I20
sS'SADP'
p932
I28
sS'STW'
p933
I16
sS'STP'
p934
I6
sS'GANG'
p935
I2
sS'STR'
p936
I78
sS'GANL'
p937
I4
sS'BTRA'
p938
I4
sS'NCR'
p939
I10
sS'KDNL'
p940
I4
sS'QLN'
p941
I178
sS'NCJ'
p942
I64
sS'QLM'
p943
I30
sS'QLD'
p944
I60
sS'MWH'
p945
I4
sS'MNDR'
p946
I14
sS'PGK'
p947
I24
sS'ROZA'
p948
I34
sS'SPTR'
p949
I2
sS'HAR'
p950
I4
sS'RU'
p951
I190
sS'WTR'
p952
I14
sS'RS'
p953
I4
sS'HDA'
p954
I4
sS'RE'
p955
I108
sS'RG'
p956
I4
sS'KTKL'
p957
I4
sS'KNP'
p958
I8
sS'RC'
p959
I94
sS'RM'
p960
I2
sS'RN'
p961
I88
sS'KUU'
p962
I16
sS'RK'
p963
I120
sS'TPF'
p964
I4
sS'KOLR'
p965
I4
sS'AVRD'
p966
I4
sS'HRT'
p967
I10
sS'HRW'
p968
I4
sS'TPK'
p969
I4
sS'TPJ'
p970
I150
sS'HRS'
p971
I48
sS'TPH'
p972
I24
sS'TPU'
p973
I2
sS'TPT'
p974
I46
sS'HRI'
p975
I120
sS'HRG'
p976
I2
sS'TPZ'
p977
I20
sS'TPY'
p978
I4
sS'HRB'
p979
I4
sS'KAD'
p980
I22
sS'KAJ'
p981
I8
sS'KAH'
p982
I4
sS'KAN'
p983
I4
sS'RTGH'
p984
I24
sS'KAR'
p985
I4
sS'KAP'
p986
I2
sS'NIRA'
p987
I14
sS'KAT'
p988
I20
sS'RHA'
p989
I12
sS'RHE'
p990
I12
sS'RHG'
p991
I34
sS'DING'
p992
I4
sS'KIP'
p993
I2
sS'WFD'
p994
I18
sS'SCH'
p995
I8
sS'MRHT'
p996
I12
sS'KUF'
p997
I4
sS'KTYM'
p998
I110
sS'MTDM'
p999
I2
sS'PLNI'
p1000
I2
sS'RTA'
p1001
I48
sS'RTM'
p1002
I182
sS'DMNJ'
p1003
I12
sS'RTI'
p1004
I4
sS'SNSI'
p1005
I18
sS'RTP'
p1006
I8
sS'UGR'
p1007
I8
sS'ANND'
p1008
I282
sS'SVJR'
p1009
I32
sS'HDL'
p1010
I4
sS'G'
p1011
I157
sS'KRCD'
p1012
I4
sS'KIUL'
p1013
I224
sS'RFJ'
p1014
I32
sS'ROHA'
p1015
I20
sS'RAIR'
p1016
I50
sS'ANPR'
p1017
I6
sS'STJT'
p1018
I2
sS'CLDY'
p1019
I8
sS'TLMR'
p1020
I4
sS'ATE'
p1021
I36
sS'ATL'
p1022
I22
sS'UREN'
p1023
I8
sS'ATH'
p1024
I8
sS'SALE'
p1025
I26
sS'DDCE'
p1026
I4
sS'ATT'
p1027
I2
sS'ATU'
p1028
I12
sS'ATS'
p1029
I10
sS'ISM'
p1030
I2
sS'ISA'
p1031
I8
sS'JKPR'
p1032
I4
sS'KRBP'
p1033
I32
sS'PVP'
p1034
I34
sS'SEU'
p1035
I6
sS'PVR'
p1036
I8
sS'PVU'
p1037
I40
sS'SEG'
p1038
I58
sS'JKN'
p1039
I18
sS'SED'
p1040
I4
sS'PVD'
p1041
I4
sS'SEO'
p1042
I22
sS'JKE'
p1043
I12
sS'SEM'
p1044
I40
sS'SASN'
p1045
I12
sS'JKA'
p1046
I4
sS'JKB'
p1047
I4
sS'SEH'
p1048
I64
sS'PDY'
p1049
I16
sS'PDW'
p1050
I12
sS'PDU'
p1051
I12
sS'CLG'
p1052
I40
sS'PDR'
p1053
I4
sS'PDL'
p1054
I4
sS'CLX'
p1055
I112
sS'VJPJ'
p1056
I22
sS'PDH'
p1057
I16
sS'CLT'
p1058
I152
sS'CLU'
p1059
I8
sS'PDE'
p1060
I4
sS'PDD'
p1061
I4
sS'CLR'
p1062
I30
sS'SKPI'
p1063
I4
sS'RHMA'
p1064
I4
sS'BRGT'
p1065
I4
sS'BRGW'
p1066
I4
sS'BIA'
p1067
I8
sS'NBG'
p1068
I18
sS'PNQ'
p1069
I12
sS'KAWR'
p1070
I68
sS'BRGA'
p1071
I66
sS'CHPT'
p1072
I4
sS'BRGM'
p1073
I4
sS'RGD'
p1074
I7
sS'BPA'
p1075
I72
sS'DO'
p1076
I78
sS'BPC'
p1077
I12
sS'BPB'
p1078
I12
sS'SWM'
p1079
I160
sS'JYP'
p1080
I12
sS'BPF'
p1081
I26
sS'SWA'
p1082
I22
sS'DG'
p1083
I134
sS'SWC'
p1084
I4
sS'NGNT'
p1085
I16
sS'SWE'
p1086
I2
sS'BPL'
p1087
I352
sS'JHS'
p1088
I342
sS'BPQ'
p1089
I185
sS'JYG'
p1090
I14
sS'BPR'
p1091
I8
sS'AUBR'
p1092
I62
sS'GMO'
p1093
I85
sS'JYM'
p1094
I4
sS'DR'
p1095
I164
sS'SWV'
p1096
I22
sS'TGP'
p1097
I4
sS'TGQ'
p1098
I4
sS'TGU'
p1099
I6
sS'NANA'
p1100
I4
sS'GYN'
p1101
I52
sS'GYM'
p1102
I22
sS'MDPB'
p1103
I8
sS'KDMR'
p1104
I2
sS'NMKL'
p1105
I4
sS'TGA'
p1106
I8
sS'KUTI'
p1107
I4
sS'BDHY'
p1108
I4
sS'NANR'
p1109
I4
sS'TGN'
p1110
I12
sS'DHO'
p1111
I70
sS'DHN'
p1112
I166
sS'GOH'
p1113
I16
sS'DHI'
p1114
I1
sS'DHG'
p1115
I36
sS'LMNR'
p1116
I4
sS'DHD'
p1117
I108
sS'MLN'
p1118
I10
sS'MLO'
p1119
I16
sS'DHA'
p1120
I4
sS'AJI'
p1121
I28
sS'MLP'
p1122
I4
sS'MLV'
p1123
I14
sS'LKMR'
p1124
I12
sS'MLZ'
p1125
I10
sS'DHT'
p1126
I8
sS'AJE'
p1127
I20
sS'PTKP'
p1128
I4
sS'NRI'
p1129
I16
sS'OML'
p1130
I8
sS'NRO'
p1131
I4
sS'NRM'
p1132
I4
sS'NRL'
p1133
I6
sS'NRG'
p1134
I4
sS'NRE'
p1135
I24
sS'SRNT'
p1136
I6
sS'PTKC'
p1137
I122
sS'BHUJ'
p1138
I16
sS'PTKD'
p1139
I4
sS'NRS'
p1140
I8
sS'NRR'
p1141
I8
sS'NRP'
p1142
I18
sS'NRW'
p1143
I46
sS'CKHS'
p1144
I4
sS'NRT'
p1145
I20
sS'RGPM'
p1146
I4
sS'WC'
p1147
I6
sS'TQA'
p1148
I4
sS'TQM'
p1149
I2
sS'TQN'
p1150
I4
sS'WL'
p1151
I212
sS'DKT'
p1152
I2
sS'WR'
p1153
I111
sS'BARH'
p1154
I110
sS'BARL'
p1155
I6
sS'MIL'
p1156
I12
sS'HSA'
p1157
I18
sS'HSD'
p1158
I4
sS'KRMI'
p1159
I20
sS'HSK'
p1160
I16
sS'HSI'
p1161
I4
sS'HSR'
p1162
I18
sS'KKHT'
p1163
I8
sS'RIG'
p1164
I74
sS'HSX'
p1165
I4
sS'BJMD'
p1166
I8
sS'KNN'
p1167
I60
sS'BNZ'
p1168
I48
sS'KNL'
p1169
I8
sS'KNJ'
p1170
I12
sS'PASA'
p1171
I16
sS'HAN'
p1172
I44
sS'BNR'
p1173
I20
sS'KND'
p1174
I18
sS'BNP'
p1175
I4
sS'HAD'
p1176
I40
sS'BNV'
p1177
I16
sS'BNU'
p1178
I12
sS'BNT'
p1179
I32
sS'BNI'
p1180
I4
sS'BNN'
p1181
I30
sS'BNC'
p1182
I114
sS'KNW'
p1183
I196
sS'KNT'
p1184
I16
sS'HAS'
p1185
I32
sS'BNE'
p1186
I4
sS'MJBT'
p1187
I4
sS'SYC'
p1188
I6
sS'SYA'
p1189
I4
sS'GDV'
p1190
I51
sS'SYJ'
p1191
I14
sS'GAYA'
p1192
I152
sS'MLTR'
p1193
I4
sS'SYN'
p1194
I8
sS'MEM'
p1195
I2
sS'LXA'
p1196
I4
sS'DNWH'
p1197
I4
sS'RGP'
p1198
I8
sS'RGS'
p1199
I12
sS'RGU'
p1200
I8
sS'BELA'
p1201
I10
sS'CGN'
p1202
I20
sS'KRBA'
p1203
I8
sS'RGH'
p1204
I8
sS'RGJ'
p1205
I8
sS'RGL'
p1206
I30
sS'RGO'
p1207
I30
sS'MET'
p1208
I26
sS'DKJ'
p1209
I52
sS'SRUR'
p1210
I4
sS'LDH'
p1211
I250
sS'PDPL'
p1212
I30
sS'GDB'
p1213
I26
sS'JRR'
p1214
I2
sS'VGN'
p1215
I4
sS'ADVI'
p1216
I8
sS'LJN'
p1217
I84
sS'VGE'
p1218
I4
sS'BRH'
p1219
I4
sS'DNEA'
p1220
I4
sS'JOR'
p1221
I8
sS'KZJ'
p1222
I151
sS'SAH'
p1223
I8
sS'SCKR'
p1224
I12
sS'LJR'
p1225
I8
sS'HLZ'
p1226
I4
sS'MOGA'
p1227
I4
sS'SBHR'
p1228
I12
sS'SRGT'
p1229
I4
sS'COR'
p1230
I85
sS'PRI'
p1231
I2
sS'PEP'
p1232
I10
sS'PER'
p1233
I72
sS'PES'
p1234
I4
sS'COA'
p1235
I4
sS'PEM'
p1236
I12
sS'PEH'
p1237
I4
sS'COI'
p1238
I54
sS'DAVM'
p1239
I2
sS'SRGM'
p1240
I40
sS'PEC'
p1241
I4
sS'ZBD'
p1242
I34
sS'JOA'
p1243
I4
sS'OKHA'
p1244
I26
sS'SNLR'
p1245
I8
sS'MRGA'
p1246
I36
sS'DRTP'
p1247
I6
sS'BRUD'
p1248
I4
sS'SGBJ'
p1249
I4
sS'RUM'
p1250
I2
sS'RUB'
p1251
I4
sS'JOL'
p1252
I4
sS'BLMR'
p1253
I4
sS'SNRR'
p1254
I4
sS'BLMK'
p1255
I4
sS'RUR'
p1256
I4
sS'OEA'
p1257
I8
sS'SAT'
p1258
I8
sS'TELO'
p1259
I2
sS'DIL'
p1260
I8
sS'GNS'
p1261
I4
sS'GNP'
p1262
I20
sS'MKC'
p1263
I92
sS'MKB'
p1264
I14
sS'GNT'
p1265
I64
sS'KUGT'
p1266
I4
sS'MKO'
p1267
I8
sS'BRRG'
p1268
I44
sS'BTBR'
p1269
I4
sS'KSNG'
p1270
I58
sS'JHL'
p1271
I62
sS'JHN'
p1272
I14
sS'GNC'
p1273
I6
sS'MKU'
p1274
I90
sS'GNA'
p1275
I12
sS'AII'
p1276
I144
sS'GNG'
p1277
I46
sS'JHW'
p1278
I16
sS'MKP'
p1279
I114
sS'CHD'
p1280
I12
sS'GNH'
p1281
I20
sS'DAKE'
p1282
I22
sS'GTST'
p1283
I2
sS'NSL'
p1284
I32
sS'NSD'
p1285
I32
sS'MNSR'
p1286
I8
sS'CHH'
p1287
I8
sS'JRA'
p1288
I2
sS'PVPT'
p1289
I42
sS'KCKI'
p1290
I4
sS'RKSH'
p1291
I4
sS'UTA'
p1292
I4
sS'CHL'
p1293
I8
sS'UTL'
p1294
I4
sS'UTR'
p1295
I2
sS'VPDA'
p1296
I4
sS'SDT'
p1297
I8
sS'JAN'
p1298
I4
sS'BNSA'
p1299
I4
sS'PWS'
p1300
I24
sS'SDS'
p1301
I4
sS'JAL'
p1302
I4
sS'SDE'
p1303
I12
sS'SDF'
p1304
I8
sS'SDB'
p1305
I60
sS'SDL'
p1306
I64
sS'PWL'
p1307
I34
sS'SDI'
p1308
I8
sS'DGHA'
p1309
I14
sS'NAB'
p1310
I8
sS'KQR'
p1311
I110
sS'MRJ'
p1312
I104
sS'KQU'
p1313
I16
sS'KQT'
p1314
I12
sS'HBD'
p1315
I82
sS'HBG'
p1316
I4
sS'NAN'
p1317
I4
sS'NAM'
p1318
I8
sS'NAS'
p1319
I4
sS'BOJ'
p1320
I12
sS'NAW'
p1321
I8
sS'NAT'
p1322
I8
sS'KQK'
p1323
I12
sS'KQI'
p1324
I4
sS'BOD'
p1325
I4
sS'KQN'
p1326
I50
sS'BOF'
p1327
I8
sS'BOG'
p1328
I4
sS'YDM'
p1329
I6
sS'HRPG'
p1330
I8
sS'DEHR'
p1331
I4
sS'MLMR'
p1332
I80
sS'SXT'
p1333
I8
sS'HPLE'
p1334
I4
sS'RMJK'
p1335
I4
sS'BSPN'
p1336
I4
sS'BQG'
p1337
I8
sS'SVM'
p1338
I28
sS'GOTN'
p1339
I46
sS'MGME'
p1340
I8
sS'BQA'
p1341
I56
sS'BQI'
p1342
I18
sS'AMRO'
p1343
I72
sS'TIHU'
p1344
I8
sS'JVN'
p1345
I18
sS'SVX'
p1346
I4
sS'SVV'
p1347
I4
sS'FSP'
p1348
I8
sS'BOKR'
p1349
I8
sS'APR'
p1350
I64
sS'BTPD'
p1351
I4
sS'LKN'
p1352
I24
sS'LKO'
p1353
I345
sS'VDS'
p1354
I40
sS'SMBX'
p1355
I48
sS'LKE'
p1356
I26
sS'LKA'
p1357
I38
sS'VDA'
p1358
I12
sS'FLK'
p1359
I20
sS'GVI'
p1360
I4
sS'VDE'
p1361
I8
sS'APT'
p1362
I30
sS'LKW'
p1363
I4
sS'LKU'
p1364
I20
sS'LKR'
p1365
I82
sS'LKS'
p1366
I24
sS'JMT'
p1367
I38
sS'GVL'
p1368
I8
sS'APK'
p1369
I4
sS'TNR'
p1370
I12
sS'TRK'
p1371
I12
sS'TRL'
p1372
I36
sS'TRO'
p1373
I26
sS'MCA'
p1374
I38
sS'TRB'
p1375
I4
sS'HBLN'
p1376
I2
sS'AL'
p1377
I20
sS'GVD'
p1378
I4
sS'TRS'
p1379
I8
sS'TRR'
p1380
I12
sS'TRT'
p1381
I32
sS'KCD'
p1382
I4
sS'KCG'
p1383
I62
sS'HTC'
p1384
I14
sS'KCC'
p1385
I6
sS'BJNR'
p1386
I40
sS'HTL'
p1387
I4
sS'KCI'
p1388
I8
sS'KCJ'
p1389
I6
sS'KCV'
p1390
I4
sS'HLKT'
p1391
I6
sS'HTZ'
p1392
I68
sS'KDPR'
p1393
I18
sS'RANI'
p1394
I24
sS'TNM'
p1395
I20
sS'SAI'
p1396
I4
sS'TNL'
p1397
I4
sS'ABKA'
p1398
I26
sS'SILO'
p1399
I6
sS'NH'
p1400
I74
sS'MAJN'
p1401
I90
sS'NK'
p1402
I206
sS'NN'
p1403
I34
sS'NB'
p1404
I4
sS'ND'
p1405
I230
sS'RRB'
p1406
I82
sS'NG'
p1407
I4
sS'MLHA'
p1408
I20
sS'NR'
p1409
I20
sS'ODC'
p1410
I4
sS'RRS'
p1411
I4
sS'NU'
p1412
I88
sS'ODG'
p1413
I20
sS'PUS'
p1414
I16
sS'RDP'
p1415
I4
sS'BCOB'
p1416
I44
sS'ELM'
p1417
I4
sS'J'
p1418
I54
sS'KGS'
p1419
I4
sS'KSX'
p1420
I16
sS'AKOR'
p1421
I8
sS'KMDR'
p1422
I2
sS'RDM'
p1423
I110
sS'RDL'
p1424
I52
sS'HDE'
p1425
I4
sS'FBG'
p1426
I8
sS'SRTN'
p1427
I12
sS'BBMN'
p1428
I16
sS'SRTL'
p1429
I54
sS'KSC'
p1430
I4
sS'USL'
p1431
I8
sS'BLDI'
p1432
I16
sS'DMBR'
p1433
I2
sS'MHPE'
p1434
I4
sS'AZR'
p1435
I28
sS'NKP'
p1436
I20
sS'SGZ'
p1437
I58
sS'SGP'
p1438
I30
sS'SGS'
p1439
I6
sS'SGR'
p1440
I12
sS'BNTL'
p1441
I12
sS'BZG'
p1442
I2
sS'SGJ'
p1443
I10
sS'SGL'
p1444
I40
sS'SGO'
p1445
I96
sS'SGE'
p1446
I12
sS'SGD'
p1447
I12
sS'SGG'
p1448
I68
sS'SGF'
p1449
I8
sS'BVRT'
p1450
I40
sS'NLP'
p1451
I4
sS'NKW'
p1452
I4
sS'CND'
p1453
I22
sS'NLR'
p1454
I246
sS'CNB'
p1455
I404
sS'CNC'
p1456
I8
sS'CNA'
p1457
I16
sS'CNO'
p1458
I12
sS'CNK'
p1459
I8
sS'CNI'
p1460
I38
sS'BMD'
p1461
I8
sS'MTHP'
p1462
I8
sS'MRTL'
p1463
I2
sS'BME'
p1464
I8
sS'PFM'
p1465
I40
sS'VDD'
p1466
I22
sS'DXN'
p1467
I18
sS'PFR'
p1468
I16
sS'BRAG'
p1469
I8
sS'INDB'
p1470
I53
sS'DXG'
p1471
I4
sS'KAYR'
p1472
I4
sS'SIR'
p1473
I84
sS'SIQ'
p1474
I2
sS'SIP'
p1475
I56
sS'SIW'
p1476
I2
sS'JWP'
p1477
I24
sS'BMO'
p1478
I16
sS'CPK'
p1479
I44
sS'SID'
p1480
I32
sS'JWB'
p1481
I28
sS'SAGR'
p1482
I2
sS'SIL'
p1483
I60
sS'BDVT'
p1484
I16
sS'SLKR'
p1485
I4
sS'PRDP'
p1486
I2
sS'TAZ'
p1487
I10
sS'TAE'
p1488
I2
sS'MKH'
p1489
I8
sS'BDVL'
p1490
I2
sS'TKR'
p1491
I22
sS'TAN'
p1492
I20
sS'JID'
p1493
I44
sS'MJG'
p1494
I16
sS'MJA'
p1495
I26
sS'MJL'
p1496
I4
sS'DJX'
p1497
I4
sS'MJN'
p1498
I4
sS'DJA'
p1499
I4
sS'GID'
p1500
I20
sS'SIPR'
p1501
I2
sS'MJS'
p1502
I14
sS'BBTR'
p1503
I4
sS'AHA'
p1504
I84
sS'RUL'
p1505
I4
sS'NPK'
p1506
I4
sS'NPD'
p1507
I16
sS'AHH'
p1508
I14
sS'AGR'
p1509
I4
sS'MJRI'
p1510
I24
sS'JRLI'
p1511
I4
sS'CDGR'
p1512
I16
sS'JRLE'
p1513
I22
sS'NPS'
p1514
I12
sS'GUG'
p1515
I4
sS'TSK'
p1516
I4
sS'NMGT'
p1517
I2
sS'TSI'
p1518
I4
sS'TSF'
p1519
I4
sS'NMGY'
p1520
I4
sS'DHPR'
p1521
I6
sS'TSA'
p1522
I4
sS'BDDR'
p1523
I4
sS'GUR'
p1524
I24
sS'MDDP'
p1525
I12
sS'GUV'
p1526
I4
sS'DWLE'
p1527
I4
sS'TSR'
p1528
I6
sS'KBJ'
p1529
I48
sS'KBN'
p1530
I4
sS'KBL'
p1531
I32
sS'KBM'
p1532
I12
sS'HLDD'
p1533
I8
sS'DLD'
p1534
I8
sS'PGRL'
p1535
I32
sS'KBY'
p1536
I4
sS'HUP'
p1537
I88
sS'DLJ'
p1538
I18
sS'SHZ'
p1539
I8
sS'HLDR'
p1540
I14
sS'KPP'
p1541
I24
sS'KPQ'
p1542
I36
sS'HCP'
p1543
I26
sS'KPV'
p1544
I20
sS'BLZ'
p1545
I16
sS'BLU'
p1546
I4
sS'BLT'
p1547
I16
sS'BLW'
p1548
I4
sS'NFK'
p1549
I124
sS'CKDL'
p1550
I12
sS'BLM'
p1551
I48
sS'KPD'
p1552
I296
sS'BLK'
p1553
I10
sS'KPG'
p1554
I102
sS'KPI'
p1555
I24
sS'BLG'
p1556
I2
sS'KPN'
p1557
I42
sS'DEOR'
p1558
I8
sS'DEOS'
p1559
I122
sS'GCT'
p1560
I44
sS'EKM'
p1561
I16
sS'KTHD'
p1562
I2
sS'EKI'
p1563
I12
sS'SHG'
p1564
I92
sS'EKC'
p1565
I12
sS'RECH'
p1566
I4
sS'REJ'
p1567
I4
sS'REI'
p1568
I4
sS'KTHU'
p1569
I104
sS'CLF'
p1570
I4
sS'SVGA'
p1571
I28
sS'EKR'
p1572
I4
sS'JHD'
p1573
I24
sS'KEPR'
p1574
I14
sS'MKA'
p1575
I176
sS'PDRD'
p1576
I4
sS'GNU'
p1577
I32
sS'DJHR'
p1578
I4
sS'MKN'
p1579
I60
sS'MONR'
p1580
I4
sS'LTR'
p1581
I10
sS'DIG'
p1582
I12
sS'LTT'
p1583
I89
sS'KXJ'
p1584
I4
sS'DIA'
p1585
I12
sS'LTA'
p1586
I4
sS'SDBH'
p1587
I4
sS'LTD'
p1588
I2
sS'KXL'
p1589
I4
sS'RPAR'
p1590
I12
sS'BTU'
p1591
I4
sS'RJPM'
p1592
I4
sS'SY'
p1593
I50
sS'KXN'
p1594
I8
sS'SV'
p1595
I98
sS'ST'
p1596
I379
sS'SI'
p1597
I6
sS'RPAN'
p1598
I4
sS'SM'
p1599
I30
sS'SL'
p1600
I28
sS'SC'
p1601
I170
sS'MKS'
p1602
I4
sS'SA'
p1603
I267
sS'KKTA'
p1604
I4
sS'JUDW'
p1605
I40
sS'MKR'
p1606
I8
sS'KNVT'
p1607
I20
sS'TBR'
p1608
I4
sS'GLPT'
p1609
I48
sS'CAR'
p1610
I70
sS'CAP'
p1611
I60
sS'ANKL'
p1612
I12
sS'TBT'
p1613
I20
sS'BNCE'
p1614
I28
sS'PUL'
p1615
I26
sS'CAI'
p1616
I8
sS'HAPA'
p1617
I89
sS'CAN'
p1618
I146
sS'KHNM'
p1619
I28
sS'SRID'
p1620
I42
sS'CAA'
p1621
I28
sS'CAG'
p1622
I8
sS'AIG'
p1623
I4
sS'DUSI'
p1624
I4
sS'BTE'
p1625
I106
sS'MRN'
p1626
I2
sS'BAKA'
p1627
I2
sS'CHOK'
p1628
I4
sS'NRPA'
p1629
I4
sS'PGI'
p1630
I64
sS'PGW'
p1631
I122
sS'PGT'
p1632
I192
sS'PGR'
p1633
I24
sS'RKSN'
p1634
I24
sS'DYD'
p1635
I38
sS'KUPR'
p1636
I4
sS'MKX'
p1637
I12
sS'PNSA'
p1638
I4
sS'SOA'
p1639
I4
sS'FGSB'
p1640
I4
sS'ADTL'
p1641
I4
sS'CNPR'
p1642
I8
sS'TUNI'
p1643
I66
sS'MBI'
p1644
I28
sS'UDR'
p1645
I4
sS'TGRL'
p1646
I4
sS'MAKM'
p1647
I12
sS'BDWL'
p1648
I4
sS'PNME'
p1649
I86
sS'RSI'
p1650
I8
sS'UDZ'
p1651
I24
sS'SSA'
p1652
I8
sS'RSA'
p1653
I4
sS'OGL'
p1654
I246
sS'BTJ'
p1655
I2
sS'UDN'
p1656
I42
sS'MAKR'
p1657
I26
sS'UDL'
p1658
I64
sS'UDM'
p1659
I6
sS'MIH'
p1660
I4
sS'ZNA'
p1661
I44
sS'GHQ'
p1662
I22
sS'GHR'
p1663
I32
sS'MIN'
p1664
I4
sS'DKZ'
p1665
I36
sS'MID'
p1666
I4
sS'SOL'
p1667
I8
sS'GHD'
p1668
I54
sS'DKD'
p1669
I16
sS'DKE'
p1670
I4
sS'DKO'
p1671
I28
sS'GHH'
p1672
I22
sS'GHJ'
p1673
I4
sS'PPR'
p1674
I4
sS'GAM'
p1675
I16
sS'CTYL'
p1676
I8
sS'JRMG'
p1677
I2
sS'KBPR'
p1678
I12
sS'MBY'
p1679
I16
sS'URD'
p1680
I18
sS'NDKD'
p1681
I32
sS'URL'
p1682
I4
sS'URI'
p1683
I20
sS'KPTN'
p1684
I8
sS'DABN'
p1685
I8
sS'SFY'
p1686
I40
sS'SFW'
p1687
I16
sS'IPL'
p1688
I14
sS'KLTR'
p1689
I4
sS'IPR'
p1690
I2
sS'SFM'
p1691
I26
sS'SFH'
p1692
I2
sS'SFG'
p1693
I6
sS'PYD'
p1694
I2
sS'SFC'
p1695
I12
sS'HDW'
p1696
I16
sS'KSV'
p1697
I46
sS'KSP'
p1698
I4
sS'NGB'
p1699
I4
sS'NGN'
p1700
I34
sS'NGO'
p1701
I64
sS'NGI'
p1702
I2
sS'NGT'
p1703
I18
sS'KSD'
p1704
I28
sS'KSG'
p1705
I94
sS'KSF'
p1706
I16
sS'NGP'
p1707
I338
sS'HDB'
p1708
I6
sS'NGR'
p1709
I22
sS'KSB'
p1710
I40
sS'HDN'
p1711
I18
sS'KSN'
p1712
I28
sS'HDK'
p1713
I4
sS'KSH'
p1714
I16
sS'BAMR'
p1715
I4
sS'KSJ'
p1716
I18
sS'BMB'
p1717
I42
sS'MGAE'
p1718
I8
sS'VLNK'
p1719
I4
sS'BMF'
p1720
I16
sS'HRNR'
p1721
I26
sS'SZM'
p1722
I68
sS'DNRP'
p1723
I4
sS'BMH'
p1724
I16
sS'BMI'
p1725
I20
sS'TPTY'
p1726
I123
sS'BMR'
p1727
I4
sS'SOJN'
p1728
I12
sS'BMT'
p1729
I60
sS'BMU'
p1730
I2
sS'SZR'
p1731
I16
sS'TPTN'
p1732
I4
sS'DNRE'
p1733
I4
sS'SHR'
p1734
I56
sS'SHU'
p1735
I18
sS'EE'
p1736
I166
sS'ED'
p1737
I288
sS'JTW'
p1738
I26
sS'JTO'
p1739
I8
sS'SHC'
p1740
I11
sS'JTI'
p1741
I4
sS'SHE'
p1742
I16
sS'SHF'
p1743
I2
sS'JTJ'
p1744
I242
sS'ET'
p1745
I424
sS'JTG'
p1746
I10
sS'SHK'
p1747
I8
sS'SHM'
p1748
I24
sS'JTB'
p1749
I6
sS'GZN'
p1750
I14
sS'GZO'
p1751
I8
sS'NASP'
p1752
I4
sS'RPUR'
p1753
I8
sS'BDWS'
p1754
I6
sS'MGF'
p1755
I8
sS'MGE'
p1756
I4
sS'BSKH'
p1757
I4
sS'RJPB'
p1758
I97
sS'BBGN'
p1759
I4
sS'GZB'
p1760
I258
sS'MGN'
p1761
I78
sS'REWA'
p1762
I8
sS'MGS'
p1763
I354
sS'TBH'
p1764
I4
sS'BDWD'
p1765
I14
sS'TBM'
p1766
I106
sS'TBN'
p1767
I26
sS'KDJR'
p1768
I4
sS'MGX'
p1769
I4
sS'GHX'
p1770
I4
sS'LUR'
p1771
I18
sS'SNC'
p1772
I4
sS'VJP'
p1773
I8
sS'RVKH'
p1774
I8
sS'WPR'
p1775
I12
sS'MLAR'
p1776
I4
sS'GHY'
p1777
I100
sS'NRGR'
p1778
I6
sS'RMC'
p1779
I10
sS'SDAH'
p1780
I42
sS'DTC'
p1781
I4
sS'LNN'
p1782
I14
sS'DKNT'
p1783
I16
sS'RMD'
p1784
I32
sS'TLU'
p1785
I4
sS'TLY'
p1786
I108
sS'GTK'
p1787
I4
sS'GTL'
p1788
I142
sS'GTM'
p1789
I8
sS'TLC'
p1790
I4
sS'GTS'
p1791
I32
sS'GTT'
p1792
I4
sS'TLD'
p1793
I48
sS'TLJ'
p1794
I4
sS'TLH'
p1795
I24
sS'KEM'
p1796
I10
sS'KEK'
p1797
I2
sS'KEJ'
p1798
I2
sS'BHLP'
p1799
I24
sS'KEH'
p1800
I10
sS'KEG'
p1801
I4
sS'HVD'
p1802
I12
sS'KEA'
p1803
I8
sS'BHLE'
p1804
I4
sS'BTG'
p1805
I4
sS'HVR'
p1806
I66
sS'KMTI'
p1807
I6
sS'MRDW'
p1808
I24
sS'SKND'
p1809
I4
sS'DGHR'
p1810
I4
sS'CMW'
p1811
I4
sS'SINI'
p1812
I24
sS'MRDL'
p1813
I8
sS'TLV'
p1814
I12
sS'RPR'
p1815
I28
sS'UCR'
p1816
I28
sS'PNBE'
p1817
I271
sS'RPZ'
p1818
I44
sS'MAHE'
p1819
I48
sS'RPD'
p1820
I4
sS'UCA'
p1821
I14
sS'SGAM'
p1822
I8
sS'RPH'
p1823
I138
sS'RPJ'
p1824
I98
sS'KRIH'
p1825
I4
sS'ALJN'
p1826
I113
sS'VTJ'
p1827
I4
sS'RBZ'
p1828
I8
sS'VTM'
p1829
I16
sS'RBS'
p1830
I8
sS'KTGA'
p1831
I4
sS'BEAS'
p1832
I116
sS'RBL'
p1833
I94
sS'RBK'
p1834
I4
sS'RBG'
p1835
I20
sS'RBD'
p1836
I8
sS'SDN'
p1837
I20
sS'RBA'
p1838
I8
sS'LGH'
p1839
I26
sS'RMPB'
p1840
I4
sS'LGL'
p1841
I6
sS'KAJG'
p1842
I2
sS'ATMO'
p1843
I4
sS'OTP'
p1844
I76
sS'SMNH'
p1845
I6
sS'LGT'
p1846
I8
sS'DZA'
p1847
I50
sS'NAC'
p1848
I26
sS'JU'
p1849
I95
sS'JP'
p1850
I207
sS'SEGM'
p1851
I126
sS'JM'
p1852
I22
sS'MHRG'
p1853
I20
sS'NAD'
p1854
I162
sS'BNVD'
p1855
I12
sS'HBJ'
p1856
I122
sS'SCC'
p1857
I12
sS'NAK'
p1858
I4
sS'BOR'
p1859
I50
sS'BNDP'
p1860
I8
sS'IAA'
p1861
I38
sS'KKGM'
p1862
I4
sS'BNDA'
p1863
I36
sS'BJ'
p1864
I2
sS'BNDM'
p1865
I22
sS'PHK'
p1866
I26
sS'MZP'
p1867
I126
sS'KEI'
p1868
I46
sS'MZR'
p1869
I46
sS'KHMA'
p1870
I4
sS'PHA'
p1871
I36
sS'PHD'
p1872
I48
sS'CHNR'
p1873
I8
sS'MBF'
p1874
I1
sS'MXR'
p1875
I8
sS'MZC'
p1876
I12
sS'MZL'
p1877
I12
sS'PHR'
p1878
I64
sS'SKT'
p1879
I24
sS'MSDN'
p1880
I4
sS'RMGM'
p1881
I36
sS'KLAR'
p1882
I22
sS'SKP'
p1883
I24
sS'SKS'
p1884
I8
sS'STBJ'
p1885
I4
sS'SKY'
p1886
I4
sS'BOY'
p1887
I68
sS'BNXR'
p1888
I22
sS'SKB'
p1889
I80
sS'SKM'
p1890
I46
sS'VMA'
p1891
I40
sS'SKI'
p1892
I28
sS'SKJ'
p1893
I16
sS'BDTS'
p1894
I59
sS'JUD'
p1895
I96
sS'DMG'
p1896
I4
sS'TCR'
p1897
I256
sS'BOE'
p1898
I120
sS'MFP'
p1899
I152
sS'MFQ'
p1900
I4
sS'AONI'
p1901
I4
sS'GED'
p1902
I8
sS'JGJ'
p1903
I2
sS'KAMG'
p1904
I12
sS'JGM'
p1905
I28
sS'MHH'
p1906
I16
sS'GKP'
p1907
I169
sS'MHD'
p1908
I48
sS'DDP'
p1909
I4
sS'JGD'
p1910
I6
sS'MKDI'
p1911
I4
sS'GKH'
p1912
I36
sS'GKK'
p1913
I4
sS'GKJ'
p1914
I4
sS'DDN'
p1915
I32
sS'DDL'
p1916
I8
sS'BRMO'
p1917
I8
sS'JGR'
p1918
I6
sS'DDE'
p1919
I16
sS'MHQ'
p1920
I4
sS'SSIA'
p1921
I4
sS'ANF'
p1922
I12
sS'ANG'
p1923
I78
sS'NVS'
p1924
I116
sS'SUJH'
p1925
I12
sS'ANH'
p1926
I18
sS'ANK'
p1927
I2
sS'NVG'
p1928
I6
sS'ANV'
p1929
I58
sS'CKTD'
p1930
I36
sS'GDYA'
p1931
I78
sS'ANY'
p1932
I4
sS'GWD'
p1933
I52
sS'TMR'
p1934
I54
sS'GWA'
p1935
I4
sS'TMV'
p1936
I60
sS'TMX'
p1937
I8
sS'GWL'
p1938
I228
sS'TMZ'
p1939
I36
sS'TMKA'
p1940
I4
sS'GWV'
p1941
I4
sS'TME'
p1942
I12
sS'GWS'
p1943
I4
sS'NNR'
p1944
I24
sS'KDM'
p1945
I36
sS'KKDI'
p1946
I30
sS'KOAA'
p1947
I49
sS'HWH'
p1948
I205
sS'KDG'
p1949
I10
sS'VVM'
p1950
I12
sS'KKDE'
p1951
I78
sS'NJP'
p1952
I184
sS'BHME'
p1953
I8
sS'KDZ'
p1954
I8
sS'NJT'
p1955
I12
sS'ADR'
p1956
I4
sS'KDU'
p1957
I16
sS'KDP'
p1958
I28
sS'KRY'
p1959
I16
sS'NDL'
p1960
I20
sS'NDO'
p1961
I46
sS'KRR'
p1962
I88
sS'KRS'
p1963
I4
sS'NDB'
p1964
I78
sS'NDD'
p1965
I70
sS'KRJ'
p1966
I55
sS'KRH'
p1967
I48
sS'HEM'
p1968
I16
sS'BALU'
p1969
I112
sS'KRA'
p1970
I4
sS'NDU'
p1971
I4
sS'KRG'
p1972
I14
sS'KRD'
p1973
I66
sS'KRE'
p1974
I20
sS'BJF'
p1975
I12
sS'BJE'
p1976
I14
sS'BJD'
p1977
I14
sS'SKLR'
p1978
I12
sS'BJO'
p1979
I14
sS'SGLA'
p1980
I8
sS'VVB'
p1981
I2
sS'BJW'
p1982
I4
sS'BJU'
p1983
I207
sS'BJR'
p1984
I4
sS'BJP'
p1985
I24
sS'NNP'
p1986
I4
sS'UHL'
p1987
I6
sS'KRNT'
p1988
I68
sS'WSA'
p1989
I8
sS'HYB'
p1990
I32
sS'CBN'
p1991
I4
sS'WSJ'
p1992
I20
sS'HYT'
p1993
I20
sS'ARCL'
p1994
I8
sS'RWO'
p1995
I4
sS'FAN'
p1996
I20
sS'MQ'
p1997
I6
sS'LEDO'
p1998
I2
sS'UHP'
p1999
I8
sS'GJUT'
p2000
I24
sS'LLR'
p2001
I8
sS'VKR'
p2002
I4
sS'HMT'
p2003
I4
sS'ADRA'
p2004
I60
sS'VKI'
p2005
I30
sS'DMRT'
p2006
I4
sS'VKN'
p2007
I12
sS'VKA'
p2008
I4
sS'VKB'
p2009
I62
sS'SVA'
p2010
I28
sS'SBLT'
p2011
I14
sS'MKPR'
p2012
I2
sS'BQR'
p2013
I4
sS'PURI'
p2014
I69
sS'AGTL'
p2015
I2
sS'KNPR'
p2016
I2
sS'PANP'
p2017
I24
sS'BQP'
p2018
I4
sS'CCT'
p2019
I16
sS'CCH'
p2020
I16
sS'DARA'
p2021
I4
sS'DMRX'
p2022
I10
sS'BZR'
p2023
I6
sS'MYY'
p2024
I12
sS'PUNE'
p2025
I236
sS'SBPD'
p2026
I48
sS'PIL'
p2027
I16
sS'PIA'
p2028
I8
sS'MYS'
p2029
I48
sS'MYR'
p2030
I66
sS'BMKI'
p2031
I36
sS'MYA'
p2032
I64
sS'ASKN'
p2033
I48
sS'MYD'
p2034
I4
sS'SBPY'
p2035
I16
sS'POK'
p2036
I8
sS'CAER'
p2037
I20
sS'DOA'
p2038
I14
sS'CQA'
p2039
I4
sS'SMR'
p2040
I24
sS'GRKN'
p2041
I4
sS'DUBH'
p2042
I4
sS'AKT'
p2043
I38
sS'ON'
p2044
I118
sS'PLJE'
p2045
I8
sS'UBR'
p2046
I12
sS'ALER'
p2047
I28
sS'SML'
p2048
I4
sS'GLGT'
p2049
I4
sS'UBC'
p2050
I80
sS'UBL'
p2051
I108
sS'SMK'
p2052
I28
sS'RQJ'
p2053
I11
sS'KANO'
p2054
I2
sS'CUPJ'
p2055
I36
sS'SMI'
p2056
I18
sS'DGLE'
p2057
I18
sS'MWT'
p2058
I4
sS'DER'
p2059
I2
sS'DES'
p2060
I16
sS'GJS'
p2061
I4
sS'JDB'
p2062
I6
sS'NRDP'
p2063
I4
sS'GJL'
p2064
I36
sS'GJH'
p2065
I4
sS'MWK'
p2066
I2
sS'MWJ'
p2067
I8
sS'DEB'
p2068
I4
sS'DEC'
p2069
I106
sS'DEE'
p2070
I64
sS'MWM'
p2071
I14
sS'DEG'
p2072
I4
sS'AMI'
p2073
I8
sS'AMH'
p2074
I46
sS'KBRV'
p2075
I16
sS'NWP'
p2076
I32
sS'AML'
p2077
I16
sS'NWR'
p2078
I4
sS'SMC'
p2079
I4
sS'AMB'
p2080
I34
sS'AME'
p2081
I70
sS'AMG'
p2082
I26
sS'NWD'
p2083
I8
sS'NWA'
p2084
I4
sS'NWB'
p2085
I4
sS'AMP'
p2086
I38
sS'KLNK'
p2087
I8
sS'DMGN'
p2088
I4
sS'BSX'
p2089
I32
sS'CBSA'
p2090
I4
sS'RCTC'
p2091
I4
sS'ANGL'
p2092
I78
sS'BNWC'
p2093
I4
sS'MNAE'
p2094
I12
sS'KHRK'
p2095
I4
sS'KHRJ'
p2096
I14
sS'KLRE'
p2097
I26
sS'NEO'
p2098
I8
sS'KUX'
p2099
I2
sS'GNW'
p2100
I2
sS'BSP'
p2101
I181
sS'NED'
p2102
I76
sS'KUR'
p2103
I332
sS'KUN'
p2104
I88
sS'KUH'
p2105
I48
sS'NEW'
p2106
I16
sS'KUE'
p2107
I28
sS'KUD'
p2108
I32
sS'HSRA'
p2109
I38
sS'KUA'
p2110
I10
sS'BHTN'
p2111
I4
sS'BKG'
p2112
I14
sS'MUGR'
p2113
I2
sS'CGS'
p2114
I4
sS'BKL'
p2115
I8
sS'RMNP'
p2116
I8
sS'BKN'
p2117
I50
sS'BKO'
p2118
I8
sS'BKH'
p2119
I12
sS'BKI'
p2120
I94
sS'BKJ'
p2121
I8
sS'HMH'
p2122
I24
sS'BKP'
p2123
I168
sS'GGA'
p2124
I16
sS'BUDI'
p2125
I22
sS'BUDM'
p2126
I22
sS'BHTK'
p2127
I4
sS'KTE'
p2128
I216
sS'BURN'
p2129
I34
sS'GGC'
p2130
I68
sS'SJP'
p2131
I92
sS'BUPH'
p2132
I2
sS'DHRR'
p2133
I8
sS'SJT'
p2134
I6
sS'AADR'
p2135
I2
sS'KNLS'
p2136
I4
sS'MGG'
p2137
I6
sS'BONA'
p2138
I46
sS'CRLM'
p2139
I16
sS'LGO'
p2140
I20
sS'JRG'
p2141
I4
sS'MED'
p2142
I16
sS'GDR'
p2143
I246
sS'JRC'
p2144
I172
sS'GADJ'
p2145
I78
sS'GDX'
p2146
I4
sS'GDZ'
p2147
I4
sS'JRK'
p2148
I4
sS'SMBL'
p2149
I4
sS'MEJ'
p2150
I74
sS'KDHA'
p2151
I6
sS'GDA'
p2152
I92
sS'JRU'
p2153
I12
sS'MEP'
p2154
I20
sS'GDG'
p2155
I52
sS'SMBJ'
p2156
I34
sS'GGJ'
p2157
I42
sS'GDL'
p2158
I32
sS'MEX'
p2159
I46
sS'GDO'
p2160
I4
sS'DHNE'
p2161
I68
sS'LWR'
p2162
I44
sS'YNK'
p2163
I62
sS'BHLK'
p2164
I20
sS'HLAR'
p2165
I12
sS'TU'
p2166
I42
sS'TR'
p2167
I2
sS'TP'
p2168
I12
sS'VDL'
p2169
I12
sS'TN'
p2170
I10
sS'TL'
p2171
I4
sS'TJ'
p2172
I54
sS'TK'
p2173
I70
sS'MFKA'
p2174
I42
sS'TA'
p2175
I36
sS'AB'
p2176
I46
sS'CHJ'
p2177
I16
sS'AD'
p2178
I86
sS'VZM'
p2179
I230
sS'AF'
p2180
I84
sS'AI'
p2181
I24
sS'AH'
p2182
I50
sS'AK'
p2183
I172
sS'GVG'
p2184
I20
sS'AO'
p2185
I28
sS'AN'
p2186
I40
sS'TNA'
p2187
I208
sS'AY'
p2188
I78
sS'BDCR'
p2189
I4
sS'SME'
p2190
I12
sS'AZ'
p2191
I38
sS'KGQ'
p2192
I132
sS'KGP'
p2193
I278
sS'RRME'
p2194
I8
sS'NKD'
p2195
I18
sS'NKE'
p2196
I32
sS'KGX'
p2197
I4
sS'NKJ'
p2198
I4
sS'NKM'
p2199
I16
sS'BVRM'
p2200
I8
sS'KGA'
p2201
I18
sS'KGB'
p2202
I16
sS'KGG'
p2203
I108
sS'BHBK'
p2204
I4
sS'KGI'
p2205
I52
sS'KGM'
p2206
I8
sS'KGL'
p2207
I8
sS'CPH'
p2208
I84
sS'CPJ'
p2209
I24
sS'GNVR'
p2210
I2
sS'CPN'
p2211
I4
sS'CKD'
p2212
I8
sS'CPA'
p2213
I24
sS'CPP'
p2214
I32
sS'RAJP'
p2215
I12
sS'CPR'
p2216
I180
sS'CPS'
p2217
I14
sS'CPT'
p2218
I34
sS'CPU'
p2219
I51
sS'MRBL'
p2220
I4
sS'MANU'
p2221
I4
sS'BGPL'
p2222
I4
sS'KTSH'
p2223
I2
sS'PAW'
p2224
I8
sS'NILE'
p2225
I18
sS'NTSK'
p2226
I36
sS'MANG'
p2227
I4
sS'UAA'
p2228
I4
sS'HZD'
p2229
I48
sS'SHTT'
p2230
I2
sS'HNS'
p2231
I4
sS'PUN'
p2232
I4
sS'WRR'
p2233
I28
sS'WRS'
p2234
I8
sS'HZR'
p2235
I4
sS'KTES'
p2236
I24
sS'KYOP'
p2237
I4
sS'ADI'
p2238
I347
sS'KESR'
p2239
I4
sS'RMRB'
p2240
I8
sS'BGSF'
p2241
I4
sS'CHP'
p2242
I8
sS'LAU'
p2243
I12
sS'LAV'
p2244
I16
sS'LAR'
p2245
I122
sS'SNKL'
p2246
I4
sS'SGUJ'
p2247
I32
sS'DTO'
p2248
I52
sS'TNKU'
p2249
I28
sS'BLTR'
p2250
I38
sS'PNVL'
p2251
I108
sS'MMM'
p2252
I20
sS'SBC'
p2253
I125
sS'PUX'
p2254
I6
sS'GVN'
p2255
I6
sS'MMH'
p2256
I2
sS'FTP'
p2257
I62
sS'FTS'
p2258
I8
sS'BDN'
p2259
I4
sS'SBD'
p2260
I8
sS'IGP'
p2261
I172
sS'PUT'
p2262
I28
sS'FTG'
p2263
I8
sS'BDU'
p2264
I2
sS'CBF'
p2265
I14
sS'CBE'
p2266
I190
sS'CBJ'
p2267
I4
sS'CBK'
p2268
I22
sS'MXT'
p2269
I4
sS'RUPC'
p2270
I20
sS'CBM'
p2271
I16
sS'MXN'
p2272
I48
sS'SKZR'
p2273
I136
sS'MXK'
p2274
I2
sS'MXH'
p2275
I12
sS'CBZ'
p2276
I4
sS'MRPR'
p2277
I30
sS'MHV'
p2278
I2
sS'MXA'
p2279
I4
sS'BZU'
p2280
I146
sS'SMZ'
p2281
I18
sS'SANR'
p2282
I2
sS'SMT'
p2283
I4
sS'GIMB'
p2284
I46
sS'BZY'
p2285
I8
sS'PERN'
p2286
I12
sS'SMO'
p2287
I24
sS'FA'
p2288
I112
sS'KOJ'
p2289
I90
sS'FD'
p2290
I104
sS'MQO'
p2291
I4
sS'BZA'
p2292
I462
sS'BZO'
p2293
I6
sS'BZN'
p2294
I8
sS'BZM'
p2295
I20
sS'FK'
p2296
I52
sS'FL'
p2297
I114
sS'FM'
p2298
I8
sS'CROA'
p2299
I4
sS'MDJ'
p2300
I18
sS'JSG'
p2301
I162
sS'MDN'
p2302
I52
sS'NPNR'
p2303
I34
sS'MDL'
p2304
I4
sS'GGR'
p2305
I4
sS'MDB'
p2306
I6
sS'JSM'
p2307
I9
sS'BRYA'
p2308
I88
sS'KON'
p2309
I4
sS'MDE'
p2310
I12
sS'JSV'
p2311
I6
sS'JSP'
p2312
I18
sS'MDVL'
p2313
I4
sS'JSR'
p2314
I6
sS'AMLA'
p2315
I75
sS'MDR'
p2316
I56
sS'MDS'
p2317
I43
sS'MDP'
p2318
I185
sS'GGN'
p2319
I96
sS'KZTW'
p2320
I2
sS'MDW'
p2321
I12
sS'MDU'
p2322
I121
sS'JER'
p2323
I56
sS'JES'
p2324
I4
sS'LUSA'
p2325
I14
sS'THUR'
p2326
I4
sS'BPHB'
p2327
I50
sS'MVI'
p2328
I8
sS'MVJ'
p2329
I48
sS'MVN'
p2330
I16
sS'MVO'
p2331
I30
sS'ALJ'
p2332
I2
sS'ALD'
p2333
I306
sS'ALB'
p2334
I4
sS'NTV'
p2335
I4
sS'ALY'
p2336
I38
sS'SHNG'
p2337
I2
sS'ALU'
p2338
I52
sS'GQL'
p2339
I6
sS'YL'
p2340
I8
sS'HNL'
p2341
I40
sS'YA'
p2342
I46
sS'HTK'
p2343
I28
sS'YG'
p2344
I66
sS'SYWN'
p2345
I2
sS'KSWR'
p2346
I4
sS'BAO'
p2347
I4
sS'YP'
p2348
I8
sS'BAL'
p2349
I16
sS'HIP'
p2350
I4
sS'HIR'
p2351
I20
sS'NHN'
p2352
I16
sS'NHH'
p2353
I70
sS'NHK'
p2354
I12
sS'NHT'
p2355
I30
sS'KFA'
p2356
I12
sS'HIJ'
p2357
I44
sS'BAI'
p2358
I4
sS'HIL'
p2359
I4
sS'KRPU'
p2360
I14
sS'RGDA'
p2361
I64
sS'KTX'
p2362
I8
sS'NZT'
p2363
I4
sS'KTU'
p2364
I68
sS'HGT'
p2365
I64
sS'KTW'
p2366
I6
sS'KTQ'
p2367
I34
sS'BANE'
p2368
I4
sS'NZB'
p2369
I52
sS'ABR'
p2370
I140
sS'KTO'
p2371
I4
sS'KTH'
p2372
I28
sS'HGH'
p2373
I16
sS'NZD'
p2374
I12
sS'JGNR'
p2375
I4
sS'BANO'
p2376
I16
sS'BANI'
p2377
I2
sS'NZM'
p2378
I197
sS'JIND'
p2379
I48
sS'BSGN'
p2380
I4
sS'BHL'
p2381
I60
sS'BHC'
p2382
I164
sS'BHB'
p2383
I8
sS'BHD'
p2384
I4
sS'BHZ'
p2385
I8
sS'BAGL'
p2386
I4
sS'CAF'
p2387
I4
sS'HTE'
p2388
I34
sS'BHS'
p2389
I98
sS'BHT'
p2390
I4
sS'BHW'
p2391
I44
sS'GNGD'
p2392
I8
sS'KKPM'
p2393
I4
sS'BAP'
p2394
I64
sS'MKRN'
p2395
I8
sS'DURE'
p2396
I52
sS'MKRH'
p2397
I4
sS'MLNH'
p2398
I4
sS'VPZ'
p2399
I4
sS'RAG'
p2400
I4
sS'BAQ'
p2401
I82
sS'RAA'
p2402
I20
sS'FGR'
p2403
I8
sS'LBA'
p2404
I24
sS'SBM'
p2405
I4
sS'LLGM'
p2406
I4
sS'RAY'
p2407
I14
sS'MURI'
p2408
I111
sS'BFD'
p2409
I4
sS'BFJ'
p2410
I2
sS'ATNR'
p2411
I4
sS'MURD'
p2412
I18
sS'BFM'
p2413
I8
sS'GMAN'
p2414
I4
sS'LPJ'
p2415
I12
sS'LPI'
p2416
I36
sS'LTHR'
p2417
I38
sS'PHN'
p2418
I48
sS'MDJN'
p2419
I4
sS'VID'
p2420
I8
sS'MZS'
p2421
I1
sS'BIDR'
p2422
I22
sS'GHGL'
p2423
I12
sS'SDNR'
p2424
I4
sS'STD'
p2425
I4
sS'FUT'
p2426
I108
sS'CLKA'
p2427
I20
sS'LHLL'
p2428
I4
sS'URPR'
p2429
I14
sS'BNGN'
p2430
I12
sS'ABD'
p2431
I4
sS'BLGT'
p2432
I4
sS'BLGR'
p2433
I64
sS'PKR'
p2434
I88
sS'PKQ'
p2435
I4
sS'KHBJ'
p2436
I8
sS'PKU'
p2437
I42
sS'RUSD'
p2438
I12
sS'DUMK'
p2439
I2
sS'RNGG'
p2440
I4
sS'PKF'
p2441
I12
sS'JAMA'
p2442
I4
sS'PKD'
p2443
I20
sS'ABI'
p2444
I4
sS'CHSM'
p2445
I12
sS'PKO'
p2446
I12
sS'CSN'
p2447
I67
sS'CSA'
p2448
I22
sS'CSB'
p2449
I4
sS'NBR'
p2450
I8
sS'BKSL'
p2451
I2
sS'CSZ'
p2452
I4
sS'LUNI'
p2453
I72
sS'BKSC'
p2454
I84
sS'TLWA'
p2455
I2
sS'KTM'
p2456
I8
sS'AKVD'
p2457
I40
sS'KTRH'
p2458
I8
sS'THA'
p2459
I4
sS'HGL'
p2460
I4
sS'SGDP'
p2461
I4
sS'BGK'
p2462
I22
sS'KTRR'
p2463
I4
sS'ABS'
p2464
I26
sS'KUDL'
p2465
I32
sS'MUT'
p2466
I32
sS'MUW'
p2467
I8
sS'MUV'
p2468
I24
sS'KTJ'
p2469
I4
sS'MUR'
p2470
I96
sS'NNGL'
p2471
I4
sS'KLPM'
p2472
I4
sS'KUDA'
p2473
I44
sS'MUE'
p2474
I58
sS'MUD'
p2475
I12
sS'KAPG'
p2476
I24
sS'THVM'
p2477
I44
sS'JBN'
p2478
I4
sS'JL'
p2479
I210
sS'ASR'
p2480
I67
sS'DGA'
p2481
I48
sS'DGG'
p2482
I52
sS'AST'
p2483
I8
sS'SKR'
p2484
I4
sS'NUR'
p2485
I28
sS'DGO'
p2486
I22
sS'NUQ'
p2487
I22
sS'DGR'
p2488
I220
sS'NUJ'
p2489
I4
sS'SLGR'
p2490
I40
sS'DGU'
p2491
I8
sS'ASK'
p2492
I90
sS'ORAI'
p2493
I90
sS'NUD'
p2494
I16
sS'ASH'
p2495
I3
sS'ASN'
p2496
I318
sS'KPGM'
p2497
I16
sS'DUI'
p2498
I68
sS'DUJ'
p2499
I4
sS'CSTM'
p2500
I80
sS'DUA'
p2501
I20
sS'DUB'
p2502
I6
sS'DUD'
p2503
I20
sS'BHTA'
p2504
I8
sS'PML'
p2505
I20
sS'R'
p2506
I210
sS'BFR'
p2507
I6
sS'MCRD'
p2508
I4
sS'THDR'
p2509
I12
sS'MLPR'
p2510
I38
sS'NS'
p2511
I6
sS'KK'
p2512
I22
sS'KJ'
p2513
I4
sS'KI'
p2514
I12
sS'KH'
p2515
I4
sS'KO'
p2516
I12
sS'KN'
p2517
I4
sS'ITA'
p2518
I4
sS'KS'
p2519
I16
sS'KP'
p2520
I26
sS'MNGD'
p2521
I54
sS'KT'
p2522
I36
sS'SKA'
p2523
I4
sS'KY'
p2524
I42
sS'NW'
p2525
I28
sS'ITR'
p2526
I14
sS'GBP'
p2527
I4
sS'AAM'
p2528
I4
sS'AAL'
p2529
I16
sS'AAY'
p2530
I8
sS'BHRL'
p2531
I4
sS'NCH'
p2532
I8
sS'BIM'
p2533
I34
sS'KWE'
p2534
I8
sS'BIK'
p2535
I4
sS'BIH'
p2536
I60
sS'BIG'
p2537
I16
sS'BID'
p2538
I24
sS'KWM'
p2539
I20
sS'BIC'
p2540
I4
sS'KWO'
p2541
I12
sS'GOM'
p2542
I4
sS'KWP'
p2543
I4
sS'KWR'
p2544
I12
sS'BIX'
p2545
I2
sS'KWV'
p2546
I88
sS'SLY'
p2547
I8
sS'JUC'
p2548
I138
sS'SLT'
p2549
I4
sS'SLW'
p2550
I18
sS'IZN'
p2551
I4
sS'SLN'
p2552
I81
sS'SLO'
p2553
I154
sS'SLH'
p2554
I4
sS'SLI'
p2555
I70
sS'SLJ'
p2556
I2
sS'BHP'
p2557
I110
sS'SLD'
p2558
I8
sS'SLF'
p2559
I4
sS'TRVL'
p2560
I92
sS'NCB'
p2561
I114
sS'SLB'
p2562
I12
sS'MCN'
p2563
I8
sS'JPL'
p2564
I18
sS'MCI'
p2565
I98
sS'JPE'
p2566
I34
sS'JPD'
p2567
I4
sS'JPG'
p2568
I12
sS'BYNR'
p2569
I40
sS'JPZ'
p2570
I4
sS'MCU'
p2571
I8
sS'MCS'
p2572
I20
sS'MCQ'
p2573
I8
sS'SVPR'
p2574
I4
sS'KLRS'
p2575
I6
sS'BGH'
p2576
I10
sS'MFL'
p2577
I4
sS'WANI'
p2578
I4
sS'SHDM'
p2579
I20
sS'BGM'
p2580
I68
sS'BGP'
p2581
I70
sS'BGQ'
p2582
I4
sS'BGS'
p2583
I84
sS'PYOL'
p2584
I8
sS'BGU'
p2585
I12
sS'BGY'
p2586
I2
sS'BGZ'
p2587
I62
sS'YLM'
p2588
I34
sS'TCN'
p2589
I2
sS'VNE'
p2590
I4
sS'VNB'
p2591
I4
sS'VNA'
p2592
I8
sS'PRNA'
p2593
I8
sS'SDMD'
p2594
I4
sS'WENA'
p2595
I10
sS'DURG'
p2596
I172
sS'BUI'
p2597
I92
sS'DDA'
p2598
I16
sS'DLPH'
p2599
I4
sS'GPH'
p2600
I16
sS'GPD'
p2601
I4
sS'SONI'
p2602
I4
sS'GPB'
p2603
I44
sS'GPZ'
p2604
I4
sS'THB'
p2605
I38
sS'GPR'
p2606
I12
sS'JJG'
p2607
I12
sS'HJP'
p2608
I168
sS'NIL'
p2609
I2
sS'KIS'
p2610
I4
sS'KIR'
p2611
I115
sS'NIA'
p2612
I26
sS'KIT'
p2613
I28
sS'KIK'
p2614
I5
sS'KIN'
p2615
I20
sS'KIM'
p2616
I24
sS'NIR'
p2617
I4
sS'HJO'
p2618
I10
sS'NIQ'
p2619
I4
sS'HJI'
p2620
I44
sS'NIU'
p2621
I12
sS'CRR'
p2622
I32
sS'CRP'
p2623
I58
sS'FDB'
p2624
I116
sS'ABLE'
p2625
I2
sS'FDK'
p2626
I28
sS'CRY'
p2627
I28
sS'FDN'
p2628
I6
sS'SMLA'
p2629
I8
sS'BKRO'
p2630
I8
sS'CRJ'
p2631
I158
sS'MHJ'
p2632
I20
sS'CRN'
p2633
I4
sS'BKRD'
p2634
I14
sS'PS'
p2635
I4
sS'PP'
p2636
I10
sS'JGN'
p2637
I4
sS'KRMR'
p2638
I2
sS'PB'
p2639
I28
sS'PC'
p2640
I42
sS'MALM'
p2641
I68
sS'DDR'
p2642
I32
sS'MALB'
p2643
I24
sS'PM'
p2644
I18
sS'BLS'
p2645
I200
sS'FBD'
p2646
I24
sS'RV'
p2647
I24
sS'S'
p2648
I8
sS'MKSR'
p2649
I8
sS'SKN'
p2650
I16
sS'KTCH'
p2651
I4
sS'KMBL'
p2652
I52
sS'DOTL'
p2653
I4
sS'RNH'
p2654
I4
sS'RNO'
p2655
I2
sS'RNC'
p2656
I74
sS'RNG'
p2657
I82
sS'RNY'
p2658
I100
sS'OPL'
p2659
I4
sS'RNR'
p2660
I62
sS'RNQ'
p2661
I30
sS'SPRD'
p2662
I30
sS'RNV'
p2663
I8
sS'KPRR'
p2664
I4
sS'DVL'
p2665
I68
sS'NDLS'
p2666
I196
sS'UMR'
p2667
I48
sS'DVD'
p2668
I108
sS'DVG'
p2669
I74
sS'BMLL'
p2670
I4
sS'MABD'
p2671
I80
sS'UMD'
p2672
I20
sS'MABA'
p2673
I26
sS'UMB'
p2674
I291
sS'SWPR'
p2675
I22
sS'MHT'
p2676
I4
sS'IKR'
p2677
I2
sS'ANDN'
p2678
I8
sS'ANDI'
p2679
I10
sS'MSMD'
p2680
I40
sS'IKK'
p2681
I2
sS'MBA'
p2682
I35
sS'MZM'
p2683
I18
sS'ANVT'
p2684
I22
sS'ANVR'
p2685
I4
sS'KER'
p2686
I4
sS'FZR'
p2687
I24
sS'BLDA'
p2688
I24
sS'PMKT'
p2689
I4
sS'OBR'
p2690
I24
sS'WTJ'
p2691
I4
sS'FZD'
p2692
I80
sS'BILD'
p2693
I2
sS'PLS'
p2694
I8
sS'ANB'
p2695
I12
sS'PLP'
p2696
I30
sS'CDM'
p2697
I50
sS'PLY'
p2698
I12
sS'PLG'
p2699
I42
sS'PSB'
p2700
I18
sS'MRND'
p2701
I8
sS'RURA'
p2702
I30
sS'PLO'
p2703
I42
sS'PLK'
p2704
I4
sS'PLJ'
p2705
I22
sS'PLI'
p2706
I2
sS'BXY'
p2707
I2
sS'MOP'
p2708
I4
sS'BXP'
p2709
I12
sS'BXR'
p2710
I148
sS'BPK'
p2711
I2
sS'TLGP'
p2712
I6
sS'BXK'
p2713
I4
sS'BXJ'
p2714
I24
sS'BXM'
p2715
I4
sS'PSD'
p2716
I2
sS'BXN'
p2717
I60
sS'BXA'
p2718
I4
sS'PSE'
p2719
I4
sS'MNTT'
p2720
I4
sS'PPC'
p2721
I10
sS'MBM'
p2722
I38
sS'SOD'
p2723
I20
sS'SOG'
p2724
I28
sS'PPD'
p2725
I8
sS'SOH'
p2726
I40
sS'PPI'
p2727
I106
sS'MBG'
p2728
I12
sS'PPO'
p2729
I4
sS'PPN'
p2730
I8
sS'MBB'
p2731
I12
sS'GAP'
p2732
I4
sS'SOP'
p2733
I2
sS'SOS'
p2734
I8
sS'SOR'
p2735
I8
sS'GAGA'
p2736
I4
sS'GAJ'
p2737
I8
sS'SOW'
p2738
I2
sS'PPT'
p2739
I28
sS'PPZ'
p2740
I4
sS'GAD'
p2741
I1
sS'PNU'
p2742
I136
sS'MBS'
p2743
I6
sS'MTY'
p2744
I42
sS'ANR'
p2745
I26
sS'MTR'
p2746
I20
sS'MTP'
p2747
I2
sS'MTPR'
p2748
I4
sS'MTU'
p2749
I8
sS'MTJ'
p2750
I254
sS'SJN'
p2751
I8
sS'MTM'
p2752
I6
sS'JCL'
p2753
I24
sS'MTC'
p2754
I83
sS'HRR'
p2755
I62
sS'MTD'
p2756
I99
sS'ARQ'
p2757
I8
sS'JRNA'
p2758
I4
sS'ARV'
p2759
I16
sS'ARW'
p2760
I4
sS'ARA'
p2761
I136
sS'SNGP'
p2762
I2
sS'MLD'
p2763
I14
sS'ARD'
p2764
I4
sS'WZJ'
p2765
I4
sS'ARJ'
p2766
I58
sS'TNGL'
p2767
I24
sS'BD'
p2768
I140
sS'BE'
p2769
I212
sS'BF'
p2770
I4
sS'BG'
p2771
I30
sS'BPO'
p2772
I4
sS'TMQ'
p2773
I12
sS'BL'
p2774
I194
sS'TIU'
p2775
I12
sS'BN'
p2776
I12
sS'TIW'
p2777
I10
sS'BH'
p2778
I178
sS'BCN'
p2779
I48
sS'TIR'
p2780
I120
sS'TIS'
p2781
I12
sS'BU'
p2782
I16
sS'BV'
p2783
I36
sS'VYA'
p2784
I20
sS'BP'
p2785
I12
sS'KMC'
p2786
I48
sS'TIG'
p2787
I84
sS'VYN'
p2788
I2
sS'TIA'
p2789
I4
sS'BORA'
p2790
I4
sS'NNO'
p2791
I24
sS'NNN'
p2792
I16
sS'NNL'
p2793
I12
sS'EKMA'
p2794
I16
sS'KHS'
p2795
I28
sS'KHT'
p2796
I42
sS'KHU'
p2797
I12
sS'NNA'
p2798
I86
sS'KHM'
p2799
I2
sS'BDBA'
p2800
I4
sS'NNW'
p2801
I14
sS'HKG'
p2802
I20
sS'TDPR'
p2803
I38
sS'RSNR'
p2804
I4
sS'NAVI'
p2805
I8
sS'GTJT'
p2806
I16
sS'KMJ'
p2807
I4
sS'CKNI'
p2808
I2
sS'NXN'
p2809
I12
sS'BPP'
p2810
I80
sS'KVG'
p2811
I2
sS'BVQ'
p2812
I14
sS'BVP'
p2813
I8
sS'SQR'
p2814
I8
sS'KVM'
p2815
I8
sS'KVK'
p2816
I4
sS'BVC'
p2817
I10
sS'KVU'
p2818
I28
sS'KVR'
p2819
I30
sS'SQN'
p2820
I14
sS'SQL'
p2821
I4
sS'BVI'
p2822
I178
sS'BVH'
p2823
I46
sS'KVZ'
p2824
I64
sS'BVN'
p2825
I4
sS'BVL'
p2826
I2
sS'JUJA'
p2827
I4
sS'MJZ'
p2828
I4
sS'JTTN'
p2829
I4
sS'KAL'
p2830
I4
sS'ARGD'
p2831
I2
sS'CNS'
p2832
I4
sS'ROI'
p2833
I4
sS'ROK'
p2834
I72
sS'ROA'
p2835
I4
sS'ICL'
p2836
I4
sS'LLJ'
p2837
I4
sS'LLI'
p2838
I8
sS'OSN'
p2839
I14
sS'ROP'
p2840
I12
sS'ROU'
p2841
I139
sS'BDC'
p2842
I134
sS'BDM'
p2843
I16
sS'BDL'
p2844
I74
sS'RHN'
p2845
I4
sS'BDH'
p2846
I4
sS'BDJ'
p2847
I92
sS'GSPR'
p2848
I12
sS'BDW'
p2849
I4
sS'BJUD'
p2850
I2
sS'MUPA'
p2851
I4
sS'BDY'
p2852
I4
sS'MLDT'
p2853
I157
sS'DKGS'
p2854
I12
sS'SDLP'
p2855
I24
sS'LRJ'
p2856
I104
sS'UR'
p2857
I12
sS'CNE'
p2858
I4
sS'UJ'
p2859
I4
sS'UD'
p2860
I92
sS'UA'
p2861
I4
sS'DBRG'
p2862
I22
sS'NRZB'
p2863
I8
sS'MMY'
p2864
I8
sS'IDR'
p2865
I12
sS'IDH'
p2866
I32
sS'IDG'
p2867
I34
sS'PMT'
p2868
I8
sS'PMU'
p2869
I4
sS'PMP'
p2870
I8
sS'CGL'
p2871
I130
sS'PMR'
p2872
I24
sS'VRB'
p2873
I2
sS'PMY'
p2874
I58
sS'ULG'
p2875
I4
sS'CGY'
p2876
I54
sS'UDGR'
p2877
I20
sS'KCA'
p2878
I4
sS'KPZ'
p2879
I4
sS'TVI'
p2880
I8
sS'PMN'
p2881
I4
sS'CGR'
p2882
I16
sS'PMK'
p2883
I32
sS'VHGN'
p2884
I4
sS'MINJ'
p2885
I2
sS'CUR'
p2886
I24
sS'MINA'
p2887
I4
sS'CUX'
p2888
I4
sS'SBBJ'
p2889
I8
sS'CUK'
p2890
I20
sS'MMZ'
p2891
I4
sS'KDRP'
p2892
I4
sS'NOMD'
p2893
I4
sS'KRLR'
p2894
I12
sS'TATA'
p2895
I135
sS'KRLI'
p2896
I4
sS'PNGM'
p2897
I8
sS'DINR'
p2898
I16
sS'AIT'
p2899
I20
sS'NSU'
p2900
I2
sS'MSZ'
p2901
I24
sS'KART'
p2902
I4
sS'CJ'
p2903
I8
sS'MSW'
p2904
I28
sS'MST'
p2905
I4
sS'BPZ'
p2906
I4
sS'MSR'
p2907
I10
sS'CIL'
p2908
I8
sS'ASAF'
p2909
I4
sS'NDJ'
p2910
I2
sS'MSK'
p2911
I24
sS'MSH'
p2912
I128
sS'DAA'
p2913
I64
sS'DAB'
p2914
I21
sS'BRJN'
p2915
I32
sS'SRJ'
p2916
I38
sS'AQG'
p2917
I14
sS'BCA'
p2918
I28
sS'DAS'
p2919
I4
sS'BTJL'
p2920
I44
sS'BCRD'
p2921
I2
sS'DWR'
p2922
I90
sS'DWP'
p2923
I34
sS'SRI'
p2924
I6
sS'DWX'
p2925
I106
sS'ULT'
p2926
I24
sS'TUVR'
p2927
I26
sS'SNTD'
p2928
I8
sS'ULL'
p2929
I4
sS'ULB'
p2930
I20
sS'DWK'
p2931
I52
sS'DWO'
p2932
I20
sS'ULD'
p2933
I8
sS'PKW'
p2934
I54
sS'PTRE'
p2935
I4
sS'ABKP'
p2936
I2
sS'PTRU'
p2937
I30
sS'NGG'
p2938
I30
sS'SELU'
p2939
I34
sS'PTRD'
p2940
I38
sS'IJK'
p2941
I68
sS'KTV'
p2942
I22
s.