(dp0
S'SSPN'
p1
F0.09879551516753737
sS'AGN'
p2
F0.0867768422911462
sS'NYY'
p3
F0.0027470718537896855
sS'AGI'
p4
F0.01284166845929123
sS'NYP'
p5
F0.03252950594407388
sS'AGC'
p6
F0.17993316001404636
sS'NYN'
p7
F0.026876351070239567
sS'NYO'
p8
F0.010473839698129471
sS'AGY'
p9
F0.051221579482234394
sS'NYG'
p10
F0.005549284124288502
sS'KOTA'
p11
F0.0800719339735995
sS'SPX'
p12
F0.003395577884332924
sS'KYJ'
p13
F0.0029432685084309906
sS'BWR'
p14
F0.025447362391305368
sS'SRY'
p15
F0.05278684075129679
sS'BWT'
p16
F0.003009038754672182
sS'KYN'
p17
F0.03340191419501437
sS'KYM'
p18
F0.0838770764984348
sS'SPP'
p19
F0.012105407398533514
sS'SPT'
p20
F0.00792459777909313
sS'KYF'
p21
F0.024682934179322737
sS'KYE'
p22
F0.16631874560942916
sS'NDT'
p23
F0.0
sS'NGA'
p24
F0.010825139304276624
sS'SPJ'
p25
F0.041441429334413964
sS'SPK'
p26
F0.002033645828273506
sS'NDW'
p27
F0.012603185365048586
sS'SPN'
p28
F0.0029589676957121063
sS'BWH'
p29
F0.008549073053309944
sS'BWI'
p30
F0.007662198197672778
sS'KYQ'
p31
F0.07782222715675866
sS'SPC'
p32
F0.002975754144781483
sS'BWL'
p33
F0.036472717864991525
sS'BWM'
p34
F0.0022714416530902667
sS'BWN'
p35
F0.02162603714138359
sS'KYT'
p36
F0.015698592741507405
sS'UMRI'
p37
F0.05289487212344325
sS'GR'
p38
F0.023464171800058123
sS'GP'
p39
F0.11951689853205608
sS'TLHD'
p40
F0.03404572887556668
sS'BYT'
p41
F0.03008221288291739
sS'TRTR'
p42
F0.001329071127487604
sS'GY'
p43
F0.13347487888380122
sS'BYN'
p44
F0.005527543271249646
sS'BYL'
p45
F0.030263865505430736
sS'GD'
p46
F0.06857756878437916
sS'GB'
p47
F0.004591051369375443
sS'BYD'
p48
F0.017543542020073785
sS'GK'
p49
F0.008257289302062711
sS'TLHR'
p50
F0.016542457943595594
sS'GH'
p51
F0.0530031983034105
sS'SNF'
p52
F0.007631677999628638
sS'MAP'
p53
F0.006417857208951149
sS'MAS'
p54
F0.002263523471480644
sS'MAU'
p55
F0.018350407645553787
sS'PQE'
p56
F0.0020387345689720977
sS'JNU'
p57
F0.002271767618206771
sS'MAY'
p58
F0.0019380490743776016
sS'SNL'
p59
F0.0007052860983876629
sS'PQL'
p60
F0.009258452736683215
sS'SNK'
p61
F0.04752405955543486
sS'PQN'
p62
F0.008107132690595471
sS'SNI'
p63
F0.00023374282275530619
sS'SNV'
p64
F0.014057937932023661
sS'SNT'
p65
F0.09641116708300529
sS'MAD'
p66
F0.0012613678290006628
sS'SNP'
p67
F0.002195043170034321
sS'JND'
p68
F0.004073305622827166
sS'MAI'
p69
F0.041006240810145
sS'JNH'
p70
F0.004997896490948703
sS'JNO'
p71
F0.003395577884332924
sS'MAO'
p72
F0.023865845404241172
sS'JNL'
p73
F0.003037399931070694
sS'BEH'
p74
F0.11993194591627258
sS'TRAN'
p75
F0.002012402106961377
sS'BEB'
p76
F0.004073305622827166
sS'SVRP'
p77
F0.005614810993428036
sS'BEA'
p78
F0.0052250075394423
sS'BEG'
p79
F0.0011592846398792136
sS'BEY'
p80
F0.030695337900347733
sS'BER'
p81
F0.02251378215157354
sS'BSRX'
p82
F0.02198825932403375
sS'MLGH'
p83
F0.06275441279384258
sS'SQF'
p84
F0.012169954687077144
sS'VLI'
p85
F0.0016229813213823618
sS'TTR'
p86
F0.015879562910338662
sS'GMDN'
p87
F0.0006387658707430556
sS'LSI'
p88
F0.004168813336491954
sS'VLY'
p89
F0.004031593369525074
sS'MPLM'
p90
F0.0010175206884295144
sS'LSR'
p91
F0.0012127112506269955
sS'TTL'
p92
F0.0054273732614433055
sS'TTB'
p93
F0.017177275534491252
sS'VLR'
p94
F0.014762955238653884
sS'BIRD'
p95
F0.011228637248091297
sS'LSX'
p96
F0.061194338734210485
sS'ZN'
p97
F0.010043870479973068
sS'KSRA'
p98
F0.031873694869849666
sS'SPZ'
p99
F0.00525949596113499
sS'GRX'
p100
F0.002563477359014067
sS'GRY'
p101
F0.026034316286382482
sS'GRD'
p102
F0.0
sS'MLJ'
p103
F0.0032023484174893806
sS'GRA'
p104
F0.000762651881561873
sS'GRO'
p105
F0.015352431402785131
sS'GRL'
p106
F0.009089503063461504
sS'ZW'
p107
F0.03942084788981413
sS'BSDP'
p108
F0.01167681249867119
sS'NMM'
p109
F0.008129957185186214
sS'NOI'
p110
F0.14965321234330783
sS'NOK'
p111
F0.0006427740942587453
sS'KKU'
p112
F0.0054255301784913446
sS'KKW'
p113
F0.01478528588976432
sS'KKP'
p114
F0.0041404860436068955
sS'KKM'
p115
F0.0025385615297591644
sS'HLN'
p116
F0.0029110448740381715
sS'KKN'
p117
F0.04789774302148877
sS'KKI'
p118
F0.034693820396803875
sS'TDU'
p119
F0.0893562883243129
sS'KKJ'
p120
F0.0015525036929668146
sS'APDJ'
p121
F0.09280290150742378
sS'KKA'
p122
F0.1101638343198551
sS'NOQ'
p123
F0.09193457729912774
sS'KKB'
p124
F0.013246088319704067
sS'VAPM'
p125
F0.003129635766155693
sS'STPD'
p126
F0.00448838062549069
sS'VAPI'
p127
F0.004151797153396645
sS'BZLE'
p128
F0.00802046197981755
sS'VBL'
p129
F0.08517309585201915
sS'VBW'
p130
F0.015507564525046336
sS'PRNR'
p131
F0.0052868856433887805
sS'CTC'
p132
F0.023082290055032848
sS'CTO'
p133
F0.030388449378945442
sS'WHM'
p134
F0.208917505927358
sS'PNDM'
p135
F0.022984052231774143
sS'ABSA'
p136
F0.0027173875330479013
sS'GKC'
p137
F0.004655822717446162
sS'DBEC'
p138
F0.08486739172949506
sS'RLO'
p139
F0.005658622656329253
sS'LMP'
p140
F0.00892830915509063
sS'LMT'
p141
F0.021569517646245106
sS'SPE'
p142
F0.031998657766652575
sS'LMK'
p143
F0.0037751439689555797
sS'LMN'
p144
F0.005454160929486901
sS'LMO'
p145
F0.0020387345689720977
sS'LMG'
p146
F0.054615603466820255
sS'DPU'
p147
F0.02617879521750897
sS'MOTC'
p148
F0.004750570748530626
sS'DPS'
p149
F0.010622119303952605
sS'DPR'
p150
F0.005472487449874196
sS'MOTH'
p151
F0.05166777680538698
sS'MJF'
p152
F0.048379631216547356
sS'MVLK'
p153
F0.00018442829925804623
sS'UKL'
p154
F0.04168610203794463
sS'DPA'
p155
F0.005967970879311822
sS'SDGM'
p156
F0.038512742836617514
sS'DPL'
p157
F0.026216100866347142
sS'DPJ'
p158
F0.08105268213870201
sS'UKA'
p159
F0.0005970213323674951
sS'LD'
p160
F0.0210201833994893
sS'LC'
p161
F0.022234297447279002
sS'LM'
p162
F4.857434303201049e-06
sS'BNLW'
p163
F0.00631492674196597
sS'SGDM'
p164
F0.010900523546043796
sS'LS'
p165
F0.034928797450380744
sS'BLPU'
p166
F0.00027997702429903055
sS'BLPR'
p167
F0.0016851827436176782
sS'ANTU'
p168
F0.0028381463187582157
sS'CLDR'
p169
F0.0040330408629773076
sS'RDHP'
p170
F0.010023032976838736
sS'LRD'
p171
F0.00934233274255397
sS'NLDA'
p172
F0.03275796008936926
sS'KWAE'
p173
F0.008806504411332667
sS'PNP'
p174
F0.0018233921699701082
sS'NLDM'
p175
F0.0027173875330479013
sS'BINA'
p176
F0.27138831915496653
sS'PNW'
p177
F0.0297208931531802
sS'PNK'
p178
F0.004171455866044602
sS'BKNG'
p179
F0.011453598780552684
sS'PNC'
p180
F0.009156523708289677
sS'SRNR'
p181
F0.007270789241827895
sS'PNE'
p182
F0.001071224745007587
sS'PND'
p183
F0.027525912771325774
sS'PNF'
p184
F0.15125164909564992
sS'NNGE'
p185
F0.030940006060227558
sS'CTKT'
p186
F0.0006533327369638774
sS'DJG'
p187
F9.252255815621045e-06
sS'GSP'
p188
F2.47497843067863e-05
sS'JOP'
p189
F0.007815110453561553
sS'JOQ'
p190
F0.09070448988844093
sS'PRG'
p191
F0.03537487593520906
sS'PRF'
p192
F0.001579569921971491
sS'SAN'
p193
F0.00048599956960989244
sS'PRB'
p194
F0.014211344133639572
sS'SAC'
p195
F0.0027173875330479013
sS'PRL'
p196
F0.013560150968032958
sS'SAA'
p197
F0.006832928305228534
sS'JBP'
p198
F0.019553595265963435
sS'SAG'
p199
F0.009771334251173299
sS'PRH'
p200
F0.08208540126184927
sS'PRT'
p201
F0.011491969186630733
sS'JOB'
p202
F0.004979752147035288
sS'JOC'
p203
F0.054459814449830383
sS'PRP'
p204
F0.043894503778941454
sS'PRR'
p205
F0.11543576428932024
sS'SAP'
p206
F0.03221777217358375
sS'SAW'
p207
F0.0014231532523197369
sS'SAV'
p208
F0.0006931373959734436
sS'SAU'
p209
F0.040984013386986
sS'NRKR'
p210
F0.2570071178932935
sS'MAQ'
p211
F0.013129134602298998
sS'GRRU'
p212
F0.06812947026788534
sS'CHE'
p213
F0.009494803194474854
sS'JNR'
p214
F0.006407221273156116
sS'MRT'
p215
F0.01437676306959485
sS'CHI'
p216
F0.018895724633571306
sS'JAT'
p217
F0.0013596189921055127
sS'SKTN'
p218
F0.0
sS'MRR'
p219
F0.08721545017940713
sS'KASR'
p220
F0.0020387345689720977
sS'MRL'
p221
F0.008295859402573756
sS'JAO'
p222
F0.003265592750163866
sS'CHR'
p223
F0.004041026365598131
sS'JAM'
p224
F0.006104407080751375
sS'JAJ'
p225
F0.007445299676314393
sS'CHV'
p226
F0.006681276075458604
sS'MRK'
p227
F0.03219465053484282
sS'MRE'
p228
F0.004274610525124418
sS'CHZ'
p229
F1.1102706978745255e-05
sS'MRG'
p230
F0.0006800408024481469
sS'MRA'
p231
F0.16444943729638622
sS'MRB'
p232
F0.006057240926539405
sS'JAA'
p233
F0.1435647490506971
sS'BRKA'
p234
F0.0785856802787127
sS'BTKP'
p235
F0.013722030040104607
sS'DBA'
p236
F0.029128185658784975
sS'VSKP'
p237
F0.08676813768481409
sS'DBB'
p238
F0.0
sS'DBD'
p239
F0.0016140160214784926
sS'DBG'
p240
F0.007753449503097201
sS'DBY'
p241
F0.0013596189921055127
sS'SNN'
p242
F1.1919989575791782e-05
sS'API'
p243
F0.0020387345689720977
sS'APN'
p244
F0.0020911407878217722
sS'DBR'
p245
F0.04175360253700854
sS'DBU'
p246
F0.0966520373525192
sS'ATP'
p247
F0.12646860734132903
sS'VNUP'
p248
F0.03251652861532914
sS'RPRD'
p249
F0.0972191011520195
sS'TKG'
p250
F0.0009644320155807988
sS'TKD'
p251
F0.0007486573856994855
sS'TKE'
p252
F0.004073305622827166
sS'HMY'
p253
F0.004073305622827166
sS'NLV'
p254
F0.0004309238146125502
sS'TKN'
p255
F0.04413384036135861
sS'TKJ'
p256
F0.0021878093587442073
sS'JNA'
p257
F0.0020461668640130806
sS'TKH'
p258
F0.004073305622827166
sS'HML'
p259
F0.006103713161565204
sS'DAL'
p260
F0.010270348861146516
sS'NLE'
p261
F0.007320105788461338
sS'NLD'
p262
F0.0013596189921055127
sS'TKQ'
p263
F0.006045376243464146
sS'NLI'
p264
F0.0037957007471198746
sS'HMG'
p265
F4.144239584080261e-05
sS'DLB'
p266
F0.0017518593030809413
sS'MAG'
p267
F0.001120536295993762
sS'AFK'
p268
F0.01679956794502067
sS'DLK'
p269
F0.11076430572228892
sS'GCH'
p270
F0.003816198305890083
sS'DLI'
p271
F0.017204991486309437
sS'SNQ'
p272
F0.008710594137418983
sS'DLO'
p273
F0.09463207248217206
sS'DLN'
p274
F0.009179467793094127
sS'DLR'
p275
F0.012821950451123299
sS'DLQ'
p276
F0.0018419176593891563
sS'SNDD'
p277
F0.014437105512925085
sS'HPU'
p278
F0.00672043683798782
sS'AFR'
p279
F0.004789178631357114
sS'ASV'
p280
F0.03860347919538712
sS'KXH'
p281
F0.0007344005590124847
sS'BTT'
p282
F0.009191158225586875
sS'BTW'
p283
F0.060399178166305294
sS'BTV'
p284
F0.025932380677341424
sS'BTQ'
p285
F0.0020387345689720977
sS'BTP'
p286
F0.00958295416737663
sS'BTS'
p287
F0.027786884325330136
sS'MAM'
p288
F0.003978693596899249
sS'BTY'
p289
F0.006779590448896321
sS'BTX'
p290
F0.024612828410373187
sS'SSR'
p291
F0.017000362452103967
sS'SSM'
p292
F0.04644651651930722
sS'BTD'
p293
F0.01284536936161748
sS'AJNI'
p294
F0.0006843392462958207
sS'BTA'
p295
F0.003734551617750702
sS'SNX'
p296
F0.0006800408024481469
sS'BTC'
p297
F0.0
sS'BTO'
p298
F0.0008631589161951823
sS'MAN'
p299
F0.039806590740926025
sS'BTI'
p300
F0.016742085144560975
sS'BTH'
p301
F0.04989235033086071
sS'BTK'
p302
F0.003645281399099703
sS'SSB'
p303
F0.007911518654692515
sS'KKLR'
p304
F0.00499137636372272
sS'DGI'
p305
F0.005863125229906612
sS'SLR'
p306
F0.0054273732614433055
sS'PGTN'
p307
F0.0
sS'KMME'
p308
F0.0077356413524433286
sS'RMR'
p309
F0.0
sS'RMP'
p310
F0.0012655955138624504
sS'RMT'
p311
F0.07618836825164141
sS'RMU'
p312
F0.008470379618954504
sS'LNT'
p313
F0.004125712344577741
sS'GUD'
p314
F0.01237963640280595
sS'SEE'
p315
F0.010128131913226363
sS'LNR'
p316
F0.0026108812182548007
sS'RMB'
p317
F0.015378566756265255
sS'LNL'
p318
F0.0034838603618485594
sS'RMA'
p319
F0.002901520274134064
sS'RMF'
p320
F0.10340456941262996
sS'BGVN'
p321
F0.034995866764451794
sS'LNK'
p322
F0.0008486064395480176
sS'TETA'
p323
F0.11136431451193193
sS'KGLE'
p324
F0.00830247402530427
sS'RMN'
p325
F0.0014525943417095259
sS'RMM'
p326
F0.0
sS'BBN'
p327
F0.0
sS'BBM'
p328
F0.0015563558623325827
sS'GUH'
p329
F0.0009380283340618827
sS'BBK'
p330
F0.037334443796200684
sS'KJG'
p331
F0.01860530776683477
sS'KJH'
p332
F0.011416497680667116
sS'KJI'
p333
F0.0006800408024481469
sS'KJN'
p334
F0.01296196460322049
sS'BBA'
p335
F0.06354640850930109
sS'KJM'
p336
F0.005215498797839343
sS'KJT'
p337
F0.0047677496401031996
sS'BBU'
p338
F0.04726607968726639
sS'KJY'
p339
F0.002084632182995228
sS'BBS'
p340
F0.01459750550291204
sS'BSQP'
p341
F0.008402582540829994
sS'MDNR'
p342
F0.0003775013431939807
sS'TUP'
p343
F0.041043147360890875
sS'VMD'
p344
F0.0020387345689720977
sS'MBNL'
p345
F0.018681412930843886
sS'TUV'
p346
F0.0013596189921055127
sS'DNKL'
p347
F0.035160042416306714
sS'GUP'
p348
F0.0006800408024481469
sS'TUL'
p349
F0.0011501214207626873
sS'MBNR'
p350
F0.00764215853245682
sS'TUN'
p351
F0.0011420668660327528
sS'TUA'
p352
F0.006415037594518055
sS'BWIP'
p353
F0.0006800408024481469
sS'KATL'
p354
F0.09110451276822898
sS'KRND'
p355
F0.006921133077248992
sS'DRLA'
p356
F0.0008121534053293759
sS'KPNA'
p357
F0.03388737846825219
sS'KRNR'
p358
F0.0015749849890326897
sS'BEHS'
p359
F0.0027173875330479013
sS'BEHR'
p360
F0.12382729131540528
sS'ANSB'
p361
F0.003395577884332924
sS'POZ'
p362
F0.0012951822749892265
sS'CLJ'
p363
F0.06559516099648542
sS'TKRI'
p364
F0.007940459420762526
sS'POT'
p365
F0.0023034647384965546
sS'JAIS'
p366
F0.0013498514787643153
sS'BET'
p367
F0.22620459121899145
sS'FYZ'
p368
F0.004448025886314378
sS'CYN'
p369
F0.0008072593199129364
sS'CDG'
p370
F0.057776556810449915
sS'SKGH'
p371
F0.05049140418855612
sS'FKM'
p372
F0.0890376960032568
sS'FKA'
p373
F0.0
sS'FKG'
p374
F0.022883026042787056
sS'CWA'
p375
F0.0
sS'SMET'
p376
F0.0020387345689720977
sS'WKI'
p377
F0.02196556497967276
sS'JNRD'
p378
F0.0
sS'QSR'
p379
F0.0020387345689720977
sS'WKR'
p380
F0.022551911304938548
sS'PAP'
p381
F0.08418889789641325
sS'KNPS'
p382
F0.011225254585040007
sS'PAR'
p383
F0.2000333591117423
sS'PAU'
p384
F0.21056998550137612
sS'PAV'
p385
F0.0013596189921055127
sS'CKB'
p386
F0.007470128156415643
sS'PAY'
p387
F0.005432761255272338
sS'PAZ'
p388
F0.0042650880202750605
sS'CKI'
p389
F0.018082778724515528
sS'CKK'
p390
F0.0013596189921055127
sS'CKU'
p391
F0.011608133964197489
sS'KATI'
p392
F0.0013596189921055127
sS'DRZ'
p393
F0.0
sS'PAD'
p394
F0.004872917971666142
sS'CKP'
p395
F0.14326201585271398
sS'CKR'
p396
F0.018049800457799546
sS'PAK'
p397
F0.03415728980091768
sS'KHTU'
p398
F0.0005967857369574129
sS'PAN'
p399
F0.013548093328902073
sS'PAO'
p400
F0.039745437256528016
sS'AWY'
p401
F0.016159620251106857
sS'BMCK'
p402
F0.09356658812368686
sS'PNYA'
p403
F0.05173579869286438
sS'AWR'
p404
F0.03982684668675789
sS'AMSA'
p405
F0.015955418824692008
sS'DCA'
p406
F0.014854034099188809
sS'MQS'
p407
F0.0009660115078236077
sS'MQR'
p408
F0.08775555940075895
sS'MQU'
p409
F0.005186104936849251
sS'JWO'
p410
F0.004267916845985815
sS'MQX'
p411
F0.10311762611893488
sS'AWB'
p412
F0.002273123685519858
sS'SGNR'
p413
F0.005440472050650286
sS'BSYA'
p414
F0.02444343951926079
sS'UJP'
p415
F0.0032212935392303007
sS'UJN'
p416
F0.024196019788398113
sS'DQG'
p417
F0.0015592364113275368
sS'GRCP'
p418
F0.0020387345689720977
sS'DQN'
p419
F0.01822797529374666
sS'UJA'
p420
F0.012145288450940733
sS'ANAS'
p421
F0.004715284957913799
sS'PLCJ'
p422
F0.011775286423807676
sS'ALMR'
p423
F0.010152037693690193
sS'BLQR'
p424
F0.003391337267084098
sS'BGBR'
p425
F0.06848532644173268
sS'HCR'
p426
F0.08100230846694557
sS'GBD'
p427
F0.09716014040106043
sS'DMC'
p428
F0.0020387345689720977
sS'OBVP'
p429
F0.0012038272506910827
sS'GBA'
p430
F0.005881596920358152
sS'DMM'
p431
F0.12625241296377074
sS'DMN'
p432
F0.004494397165428867
sS'DMO'
p433
F0.1492957431147412
sS'DMP'
p434
F0.008129957185186214
sS'DMR'
p435
F0.0054273732614433055
sS'DMV'
p436
F0.0255163337011105
sS'DMW'
p437
F0.00872434121255831
sS'JEUR'
p438
F0.034959029009595036
sS'KL'
p439
F0.004483279402184519
sS'GBX'
p440
F0.0015794294596451295
sS'BUX'
p441
F0.0080994494142925
sS'BUP'
p442
F0.007113922860983948
sS'BUQ'
p443
F0.006103713161565204
sS'BUW'
p444
F0.0842168323122236
sS'BUT'
p445
F0.0013596189921055127
sS'DRD'
p446
F0.004568171795739123
sS'BUH'
p447
F0.032001144096996795
sS'PRLI'
p448
F0.15158900947332699
sS'KPY'
p449
F0.0025854705919101926
sS'BUA'
p450
F0.0317954040457807
sS'BUG'
p451
F0.051400853539465836
sS'RNPR'
p452
F0.006067316769699371
sS'RDUM'
p453
F0.033493234776827696
sS'KPRD'
p454
F0.0065947242649476755
sS'JMKT'
p455
F0.005379580960588438
sS'ZB'
p456
F0.09681128293382264
sS'MOZ'
p457
F0.0012795675766760347
sS'JLW'
p458
F0.0008758298042797852
sS'KURJ'
p459
F0.0
sS'JLS'
p460
F0.05756658760879288
sS'JLR'
p461
F0.00812833804041848
sS'BRVR'
p462
F0.0013596189921055127
sS'MOR'
p463
F0.008551908412150012
sS'ACND'
p464
F0.00828411663195825
sS'PSA'
p465
F0.00812682359659946
sS'MOU'
p466
F0.11959524769904668
sS'MOT'
p467
F0.006542074265992761
sS'JLD'
p468
F0.06584398343077698
sS'MOI'
p469
F0.003022527647464314
sS'MOO'
p470
F0.003710267206249414
sS'MON'
p471
F0.018923513624685983
sS'MOM'
p472
F0.0014106593183194913
sS'MOL'
p473
F0.0010949033251248927
sS'PSR'
p474
F0.05306521482386918
sS'JLL'
p475
F0.008518787578850013
sS'NRLR'
p476
F0.09680209427219628
sS'JLN'
p477
F0.01625285658888178
sS'MOG'
p478
F0.012222065723669639
sS'MOF'
p479
F0.0011989097213832968
sS'HNA'
p480
F0.015078966191455571
sS'ETP'
p481
F0.0016397906992873309
sS'KMD'
p482
F0.0016386169111189776
sS'BCH'
p483
F0.013490893877976329
sS'ETW'
p484
F0.0030717027567999256
sS'OMLF'
p485
F0.08461451717197788
sS'MULK'
p486
F0.005004473036817479
sS'KML'
p487
F0.005984089292661228
sS'DL'
p488
F0.00024129148861122546
sS'BSPX'
p489
F0.006684301402225328
sS'KMU'
p490
F0.0007133229890309601
sS'KMT'
p491
F0.005828585878044973
sS'KMS'
p492
F0.04786425014179559
sS'BCY'
p493
F0.029827451995178948
sS'KMQ'
p494
F0.010529944637295658
sS'BLD'
p495
F0.0038133496356612317
sS'BCT'
p496
F2.3130639539052615e-07
sS'BCU'
p497
F0.007777806721819848
sS'BSPR'
p498
F0.0006800408024481469
sS'KMZ'
p499
F0.15693323250544358
sS'ETM'
p500
F3.008525182712777e-05
sS'VRR'
p501
F0.00943915138309659
sS'TORI'
p502
F0.07671624448384047
sS'TVP'
p503
F0.0064714745760344064
sS'TVR'
p504
F0.004440860776898093
sS'TVL'
p505
F0.0238825970205767
sS'VRG'
p506
F0.0054273732614433055
sS'BPH'
p507
F0.0314940993785794
sS'GAR'
p508
F0.013211208783890968
sS'VRI'
p509
F0.02628557419347688
sS'VRH'
p510
F0.0006800408024481469
sS'DD'
p511
F0.041816604220270455
sS'TVC'
p512
F0.010413475268411345
sS'VRL'
p513
F0.0006800408024481469
sS'SRC'
p514
F0.01553299781397341
sS'CI'
p515
F0.01257102052843937
sS'CH'
p516
F0.08084366640665633
sS'SRF'
p517
F0.0006800408024481469
sS'SRE'
p518
F0.01315381395395632
sS'CC'
p519
F0.004417749458465194
sS'RDDE'
p520
F0.0005441785852794186
sS'SRO'
p521
F0.003912704500213344
sS'CE'
p522
F0.040390828136007
sS'CD'
p523
F0.007539815028873502
sS'SRR'
p524
F0.03585887712100332
sS'PIP'
p525
F0.0035474975815253367
sS'SRP'
p526
F0.0008129481722040131
sS'SRW'
p527
F0.0014385941549755422
sS'SRT'
p528
F0.026447788801145913
sS'SRU'
p529
F0.008830605893818379
sS'NGAN'
p530
F0.0020387345689720977
sS'ADIJ'
p531
F0.0
sS'SORO'
p532
F0.02612876442997315
sS'CW'
p533
F0.001283944718358949
sS'CT'
p534
F0.08747667768567274
sS'MGLP'
p535
F0.007067544806877501
sS'NMT'
p536
F0.012169954687077144
sS'TDO'
p537
F0.014490998711623378
sS'TDN'
p538
F0.0007515838705424366
sS'TDL'
p539
F0.0636779511545475
sS'HLX'
p540
F0.01284166845929123
sS'NMZ'
p541
F0.09585290763704325
sS'NMX'
p542
F0.0021696539887631353
sS'TDD'
p543
F0.08132704029749845
sS'BTTR'
p544
F0.047082767432762025
sS'MYG'
p545
F0.039907623787035405
sS'GADH'
p546
F0.005101967745593829
sS'TDP'
p547
F0.0009761150294868237
sS'NMJ'
p548
F0.0016047282506698863
sS'NMK'
p549
F0.018136483051221317
sS'NMH'
p550
F0.0039482971397029115
sS'PBKS'
p551
F0.0020387345689720977
sS'BGUA'
p552
F0.004073305622827166
sS'CVR'
p553
F0.0013596189921055127
sS'CVP'
p554
F0.025799745383393472
sS'PDKN'
p555
F0.0008537364849600735
sS'VARD'
p556
F0.004577337678809482
sS'PDKT'
p557
F0.041013183359740815
sS'FHT'
p558
F0.015703644815421663
sS'SDGH'
p559
F0.013312369128097988
sS'SWR'
p560
F0.11993338703502589
sS'KKAH'
p561
F0.002583870396281487
sS'QRP'
p562
F0.003950664798058822
sS'KTMA'
p563
F0.003395577884332924
sS'WJR'
p564
F0.0004348752988671383
sS'VG'
p565
F0.04143140236184377
sS'KMNR'
p566
F0.09804268108075005
sS'HPP'
p567
F0.02470649647179484
sS'VM'
p568
F0.03938277893161009
sS'VN'
p569
F0.00832517295494093
sS'HPT'
p570
F0.005929433106898646
sS'VR'
p571
F0.0072732461183390405
sS'VS'
p572
F0.04020363043632324
sS'VV'
p573
F0.0013596189921055127
sS'KMNC'
p574
F0.004887411266714421
sS'RJT'
p575
F0.02154572811783673
sS'RJR'
p576
F0.013878530081882192
sS'RJP'
p577
F0.0014499411104931922
sS'RJY'
p578
F0.08402414110462408
sS'RJG'
p579
F0.08671394707334772
sS'CNDB'
p580
F0.22221600111023457
sS'RJA'
p581
F0.0013596189921055127
sS'RJO'
p582
F0.0007799507854785184
sS'RJN'
p583
F0.08621751589061627
sS'CNDM'
p584
F0.00947847347031298
sS'RJK'
p585
F0.02396849548156406
sS'WDA'
p586
F0.022861861507608824
sS'SIHO'
p587
F0.03655499263607816
sS'MWX'
p588
F0.0012122597456268517
sS'DRU'
p589
F0.012518689749392372
sS'WDM'
p590
F0.10400699920921137
sS'DRI'
p591
F0.01193010841536036
sS'DRH'
p592
F0.00946021613143863
sS'WDR'
p593
F0.04961070167941467
sS'DRL'
p594
F0.0033525471845770884
sS'KRSL'
p595
F0.0006800408024481469
sS'KRSA'
p596
F0.003369394000374698
sS'THAN'
p597
F0.0006406564827968076
sS'SIOB'
p598
F0.01186107069674368
sS'CTR'
p599
F0.0877241700450027
sS'BLND'
p600
F0.0027173875330479013
sS'AYRN'
p601
F0.012505283201402859
sS'ALLP'
p602
F0.00453357484257697
sS'HFG'
p603
F0.018866274833632873
sS'RXL'
p604
F0.0069886868377073315
sS'BGKT'
p605
F0.00691920491531813
sS'BIY'
p606
F0.04433862353131422
sS'SVHE'
p607
F0.018780684459396405
sS'BAND'
p608
F0.003892449113202163
sS'KRAR'
p609
F0.06829149875492181
sS'SMPA'
p610
F0.06327901569858833
sS'MMVR'
p611
F0.007331689451857501
sS'SMPR'
p612
F0.017599775111783487
sS'STLR'
p613
F0.010746868259953316
sS'REN'
p614
F0.0027455637240244675
sS'KHED'
p615
F0.019370481010110432
sS'SRPJ'
p616
F0.0023517519511871
sS'MLB'
p617
F0.030549879715644768
sS'HX'
p618
F0.0019844285085352602
sS'URGA'
p619
F0.0013596189921055127
sS'PAIL'
p620
F0.003912798075414742
sS'GOL'
p621
F0.11976271720083952
sS'RDRA'
p622
F0.0027173875330479013
sS'HP'
p623
F0.02134561546293282
sS'HW'
p624
F0.0054273732614433055
sS'SURI'
p625
F0.09715064324674227
sS'HN'
p626
F0.029903798549939492
sS'DPUR'
p627
F0.0013596189921055127
sS'HG'
p628
F0.02447306056630326
sS'HD'
p629
F0.048149173073278255
sS'MLG'
p630
F0.003743772396562992
sS'SCM'
p631
F0.08710879417862546
sS'SCL'
p632
F0.0
sS'SCI'
p633
F0.22557799247416285
sS'GOK'
p634
F0.016128029362003103
sS'PTH'
p635
F0.01546177782570597
sS'MNP'
p636
F0.008149431986421382
sS'MNQ'
p637
F0.001073130409670406
sS'JMP'
p638
F0.008207577749058266
sS'JMV'
p639
F0.006779590448896321
sS'PTB'
p640
F0.0077298448276232464
sS'MNV'
p641
F0.2231615134111848
sS'JMU'
p642
F0.007801262290456572
sS'JMK'
p643
F0.05615194054500413
sS'MNJ'
p644
F0.003622527689971828
sS'MNM'
p645
F0.03738230518959015
sS'MNO'
p646
F0.01220300869952945
sS'SCT'
p647
F0.0
sS'PTU'
p648
F0.004559957494187841
sS'MND'
p649
F0.05790246649603663
sS'MNE'
p650
F0.057620840542364625
sS'MNF'
p651
F0.013488735663233217
sS'CTND'
p652
F0.04037234128109815
sS'CJN'
p653
F0.004009780065282596
sS'PBP'
p654
F0.01039098880177721
sS'PBR'
p655
F0.0
sS'GOA'
p656
F0.0013596189921055127
sS'SRBA'
p657
F0.0020387345689720977
sS'LFG'
p658
F0.020199987509454648
sS'AJU'
p659
F0.01343797511067167
sS'PBE'
p660
F0.004752883812484531
sS'SUNR'
p661
F0.0016684126627988548
sS'GOC'
p662
F0.019458556788077837
sS'PBM'
p663
F0.0006800408024481469
sS'CAPE'
p664
F0.0
sS'PBN'
p665
F0.1573698125862465
sS'PBH'
p666
F0.027611795598466733
sS'RWTB'
p667
F0.00947847347031298
sS'MPA'
p668
F0.007898188177004906
sS'CDMR'
p669
F0.04849318324545268
sS'MPL'
p670
F0.025411794591174566
sS'AMPA'
p671
F0.003905963489750684
sS'AJJ'
p672
F0.004504376964910314
sS'BPRD'
p673
F0.0016370710133764487
sS'AVN'
p674
F0.0003489119292087879
sS'MPU'
p675
F0.08342220393559194
sS'AVD'
p676
F0.001748982394934418
sS'GOY'
p677
F0.05708731516650826
sS'BTIC'
p678
F0.007777806721819848
sS'BPRH'
p679
F0.004073305622827166
sS'MPY'
p680
F0.005608848007799504
sS'SUD'
p681
F0.11196386068878418
sS'SUA'
p682
F0.0019501621182466925
sS'DHW'
p683
F0.0003579466468668392
sS'SUR'
p684
F0.0490496028122924
sS'DEEG'
p685
F0.040150218534809004
sS'MLY'
p686
F0.0006366763606075516
sS'TEL'
p687
F0.10210561642406661
sS'TEN'
p688
F0.021487268947732525
sS'TEA'
p689
F0.013119923852351022
sS'NBQ'
p690
F0.08337404325892206
sS'GOP'
p691
F0.0007121923914074301
sS'NBI'
p692
F0.005083635151420637
sS'NBH'
p693
F0.004811878810990184
sS'NBL'
p694
F0.022888388161695968
sS'NBA'
p695
F0.026309022852080845
sS'TET'
p696
F0.008024508384613915
sS'NBD'
p697
F0.006460377037900011
sS'BRWD'
p698
F0.07733862161864911
sS'ADT'
p699
F0.0012392212095908607
sS'GMH'
p700
F0.001092381301042799
sS'DNA'
p701
F0.00380972044178362
sS'ADQ'
p702
F5.528222849833575e-05
sS'DNM'
p703
F0.00023310514277115126
sS'DNN'
p704
F0.000364885838728555
sS'GMD'
p705
F0.014282924010030975
sS'ADF'
p706
F0.08423460343306671
sS'DNT'
p707
F0.02826759298644391
sS'ADB'
p708
F0.0036345332139659835
sS'DNR'
p709
F0.0033351468630540395
sS'GMS'
p710
F0.005205422567001991
sS'GMR'
p711
F0.00797500913101651
sS'GLG'
p712
F0.2258691609646804
sS'ADH'
p713
F0.0010198298972768298
sS'NAZJ'
p714
F0.0034310842843450133
sS'BRZ'
p715
F0.0017458043865312043
sS'KZT'
p716
F4.078702772052944e-05
sS'BRW'
p717
F0.0020387345689720977
sS'BRU'
p718
F0.05108845112185141
sS'KZY'
p719
F0.0006800408024481469
sS'BRS'
p720
F0.03358886974602332
sS'BRR'
p721
F0.007316930515507396
sS'KZB'
p722
F0.0020387345689720977
sS'GTNR'
p723
F0.011345301107122369
sS'KZA'
p724
F0.05211613607416978
sS'BRK'
p725
F0.003908964482688164
sS'KZE'
p726
F0.007961055810088486
sS'BRG'
p727
F0.04153972893361728
sS'KZK'
p728
F0.005828442796848748
sS'BRE'
p729
F0.0036308036859377187
sS'BRD'
p730
F0.08381292642115307
sS'BRC'
p731
F0.041839897935340466
sS'TWB'
p732
F0.006119984696908014
sS'TWG'
p733
F0.006147942087936042
sS'DISA'
p734
F0.008411074866266736
sS'SEB'
p735
F0.011677801584978005
sS'IPM'
p736
F0.008069409714917894
sS'GJD'
p737
F0.04361614709265744
sS'CNGR'
p738
F0.0014342538556848562
sS'BHKD'
p739
F0.07649910189902415
sS'VEER'
p740
F0.019847550450603418
sS'CHA'
p741
F2.390166085702103e-06
sS'TLKH'
p742
F0.0008285563556053252
sS'RKD'
p743
F0.0020387345689720977
sS'WIRR'
p744
F0.01236274545310362
sS'ODM'
p745
F0.006773921219894942
sS'RKB'
p746
F0.0028470387562810674
sS'RKM'
p747
F0.05927471082479415
sS'KLD'
p748
F0.057478475364664286
sS'KLG'
p749
F0.11979484951426568
sS'KLB'
p750
F0.0011887606680437107
sS'NWU'
p751
F0.04588521519302709
sS'KLL'
p752
F0.013227640466891632
sS'HOJ'
p753
F0.09341193124648703
sS'KLJ'
p754
F0.013071744746631388
sS'KLK'
p755
F0.008804446634144987
sS'KLT'
p756
F0.03490220352636977
sS'KLU'
p757
F0.1269865023606083
sS'KLP'
p758
F0.0038353729601073566
sS'GOGH'
p759
F0.09008875226391135
sS'PTK'
p760
F0.011167704075849993
sS'DND'
p761
F0.0028498522998519466
sS'PTJ'
p762
F0.037833925329111104
sS'VST'
p763
F0.0017409502611737532
sS'VSU'
p764
F0.006209926635749015
sS'DSPN'
p765
F0.0020387345689720977
sS'SCE'
p766
F0.0027173875330479013
sS'VSG'
p767
F0.0
sS'BLAX'
p768
F0.0020387345689720977
sS'ORGA'
p769
F0.001539066493649483
sS'SVKS'
p770
F0.004750570748530626
sS'BVNR'
p771
F0.0022242078302753604
sS'HCNR'
p772
F0.004159583084600332
sS'OYR'
p773
F4.2421592914622496e-05
sS'SHSK'
p774
F0.004053723926339519
sS'LTRR'
p775
F0.15567991016978294
sS'SVKD'
p776
F0.0013596189921055127
sS'PTA'
p777
F0.0268525466199695
sS'GZH'
p778
F0.009644148430625624
sS'RYS'
p779
F7.867336309695906e-05
sS'RYP'
p780
F0.008295182756267764
sS'RBGJ'
p781
F0.050697745145556986
sS'MNI'
p782
F0.020326932955050277
sS'BWSN'
p783
F0.004664534966285719
sS'HTZU'
p784
F0.00690922501334735
sS'SMQL'
p785
F0.001262665752368809
sS'STKT'
p786
F0.0009595615640345554
sS'KHDB'
p787
F2.7409807853777348e-05
sS'NLKR'
p788
F0.0006099009931525596
sS'BGTA'
p789
F0.01454050405829031
sS'VAK'
p790
F0.003262098339990835
sS'JPH'
p791
F0.004009780065282596
sS'GMIA'
p792
F0.0011410950112639546
sS'VAA'
p793
F0.008940602204773945
sS'MWRN'
p794
F0.0027173875330479013
sS'LHU'
p795
F0.015915062664840624
sS'ADTP'
p796
F0.001474487900908176
sS'RSR'
p797
F0.004110469685636484
sS'DLGN'
p798
F0.028775050323386883
sS'YLG'
p799
F0.019147320332940202
sS'SCQ'
p800
F0.0013596189921055127
sS'TAPA'
p801
F0.01730996964983402
sS'JJKR'
p802
F0.027040224564054582
sS'JMD'
p803
F0.004073305622827166
sS'RASP'
p804
F0.03744487377365965
sS'BSTP'
p805
F0.004608471695921546
sS'PCZ'
p806
F0.004073305622827166
sS'RLA'
p807
F0.0006800408024481469
sS'PCV'
p808
F0.08161693068425298
sS'CMA'
p809
F0.0017118986322852841
sS'TDLE'
p810
F0.07695201817028709
sS'PCH'
p811
F0.016831336193481112
sS'PCN'
p812
F0.005705272475078684
sS'KCVL'
p813
F0.0
sS'CMU'
p814
F0.0015877924708740294
sS'GUNA'
p815
F0.2316956573031423
sS'SVPI'
p816
F0.1579444709039562
sS'LHA'
p817
F0.008708196086466289
sS'MAUR'
p818
F0.0009435875460377749
sS'CJM'
p819
F0.049990520129216114
sS'SGRL'
p820
F0.12111261576832534
sS'SGRM'
p821
F0.006103713161565204
sS'UVD'
p822
F0.004495009582877102
sS'SGRA'
p823
F0.0027732333963116584
sS'MKDD'
p824
F0.002813979719648356
sS'ABFC'
p825
F0.006437719596509124
sS'DSS'
p826
F0.0036773581060374526
sS'DSO'
p827
F0.0011555842279461059
sS'MAGH'
p828
F0.013402007190378743
sS'DSJ'
p829
F0.13019667838953305
sS'GRMT'
p830
F0.0006800408024481469
sS'GRMP'
p831
F0.0027173875330479013
sS'GRMR'
p832
F0.007971857000357916
sS'DSA'
p833
F0.015935258481301565
sS'NDAE'
p834
F0.009326945903746723
sS'MA'
p835
F0.049970824773872775
sS'MB'
p836
F0.025101002526037156
sS'RWH'
p837
F0.0003573683808783629
sS'ML'
p838
F0.011223475001744915
sS'MO'
p839
F0.04948463745556527
sS'PLMD'
p840
F0.04040065529662781
sS'RWL'
p841
F0.0040751560739902895
sS'MK'
p842
F0.0009364631254832414
sS'MJ'
p843
F0.020786668515037278
sS'OKA'
p844
F0.0014252285922167745
sS'MW'
p845
F0.0031517682768125188
sS'MV'
p846
F0.007672271750816581
sS'UHR'
p847
F0.025124765110819448
sS'MS'
p848
F0.02841880815007021
sS'ABP'
p849
F0.008044740424582815
sS'GLH'
p850
F0.00012336726598153718
sS'DOL'
p851
F0.03639175962812343
sS'GLA'
p852
F0.0065423775879576785
sS'AKP'
p853
F0.0861144658114405
sS'BRPL'
p854
F0.12247998144574199
sS'AKV'
p855
F0.039614868993669776
sS'DOD'
p856
F0.0030723142276345675
sS'DOE'
p857
F0.017666135079576813
sS'AKJ'
p858
F0.019894146394133276
sS'BRPT'
p859
F0.004993945996751283
sS'AKN'
p860
F0.005768702708583517
sS'PBL'
p861
F0.0010017879984363688
sS'GLP'
p862
F0.08442398229626182
sS'DOS'
p863
F0.05814376415156481
sS'AKE'
p864
F0.05036166616283168
sS'AKD'
p865
F0.013352355962651389
sS'PVRD'
p866
F1.0385657153034624e-05
sS'MHAD'
p867
F0.0006800408024481469
sS'BSZ'
p868
F0.005492467880850451
sS'BST'
p869
F0.05837020032029225
sS'BHTR'
p870
F0.004144641065895121
sS'HSP'
p871
F0.005806580235815234
sS'BSR'
p872
F0.010945682337528118
sS'BSL'
p873
F0.07375970782268089
sS'ZRDE'
p874
F0.002662264465378771
sS'BSI'
p875
F0.0020387345689720977
sS'BSE'
p876
F0.002393441824844448
sS'BSB'
p877
F0.06114169360651635
sS'BSC'
p878
F0.0007502564288400002
sS'AUB'
p879
F0.10905888366907457
sS'SBR'
p880
F0.0061039925868285674
sS'SBP'
p881
F0.12894239414233433
sS'SBV'
p882
F0.0013596189921055127
sS'SBT'
p883
F0.056750742707145016
sS'PUK'
p884
F0.019373776819321877
sS'SBZ'
p885
F0.052546291070382396
sS'JJR'
p886
F0.005277351560340233
sS'MMS'
p887
F0.007949945578670575
sS'MMR'
p888
F0.07351073688916912
sS'SBB'
p889
F0.015387334659528733
sS'MML'
p890
F0.014231312210159434
sS'JJK'
p891
F0.0033419779146658716
sS'SBG'
p892
F0.00684837501765503
sS'MMK'
p893
F0.027776799993472396
sS'SBE'
p894
F0.00229479074866941
sS'MME'
p895
F0.011935236938606986
sS'MMD'
p896
F0.0006800408024481469
sS'SBI'
p897
F0.00093827511736872
sS'MMA'
p898
F0.007149166553899883
sS'SBO'
p899
F0.005106439585486383
sS'MMB'
p900
F0.0660892228663432
sS'KOI'
p901
F0.027559128369703853
sS'SHNR'
p902
F0.008509406328630571
sS'BAT'
p903
F0.001027809967917803
sS'BAU'
p904
F0.0011118766547886176
sS'KOO'
p905
F0.0053698024036479145
sS'ERS'
p906
F0.014280039902589766
sS'BAZ'
p907
F0.07948115559416805
sS'BAY'
p908
F0.006484306842628401
sS'SJNP'
p909
F0.008804446634144987
sS'BAB'
p910
F0.05041068440505761
sS'WADI'
p911
F0.0659566522665135
sS'ERL'
p912
F0.0006653142952749501
sS'KOP'
p913
F0.0
sS'ERN'
p914
F0.014881112701651607
sS'BAM'
p915
F0.008246126838937556
sS'KOU'
p916
F0.0013061640841307619
sS'KOV'
p917
F0.003530711163786029
sS'VPT'
p918
F0.033056251068519414
sS'BJRI'
p919
F0.0027173875330479013
sS'YFP'
p920
F0.013535930200895373
sS'THV'
p921
F0.0931777620730354
sS'VPO'
p922
F0.021142953951755885
sS'CPDR'
p923
F0.07709894193174545
sS'JSME'
p924
F0.009424285614560346
sS'YPR'
p925
F0.017853206741500257
sS'BIO'
p926
F0.004448245579542027
sS'KNE'
p927
F0.10956290030463052
sS'STA'
p928
F0.025326265561203154
sS'STL'
p929
F0.00747183365478752
sS'BNW'
p930
F0.004288751100036318
sS'STN'
p931
F0.018467929120385272
sS'SADP'
p932
F0.10645562902815642
sS'STW'
p933
F0.014699111786963096
sS'STP'
p934
F0.009599329008118558
sS'GANG'
p935
F0.0012025701698189179
sS'STR'
p936
F0.002182803529181717
sS'GANL'
p937
F0.004750570748530626
sS'BTRA'
p938
F0.002281818223206341
sS'NCR'
p939
F0.0006800408024481469
sS'KDNL'
p940
F0.0013596189921055127
sS'QLN'
p941
F0.0021970891635520596
sS'NCJ'
p942
F0.002003498894740941
sS'QLM'
p943
F0.01599869503535696
sS'QLD'
p944
F0.0015745143588911136
sS'MWH'
p945
F0.00490424819540501
sS'MNDR'
p946
F0.0012129441291579347
sS'PGK'
p947
F0.003460154333884486
sS'ROZA'
p948
F0.0023405473140906234
sS'SPTR'
p949
F0.0013596189921055127
sS'HAR'
p950
F0.005057658838980092
sS'RU'
p951
F0.014078144865725851
sS'WTR'
p952
F0.0033390810690994187
sS'RS'
p953
F0.0032379446296602397
sS'HDA'
p954
F0.00477695873028941
sS'RE'
p955
F0.04062210888949087
sS'RG'
p956
F0.06372752991723891
sS'KTKL'
p957
F0.00038786236579226724
sS'KNP'
p958
F0.016058502975415292
sS'RC'
p959
F0.10560304907517352
sS'RM'
p960
F0.003395577884332924
sS'RN'
p961
F0.01712171564471088
sS'KUU'
p962
F0.010891244578503788
sS'RK'
p963
F0.011553983157253207
sS'TPF'
p964
F0.04667856260375785
sS'KOLR'
p965
F0.006219789876524661
sS'AVRD'
p966
F0.01797702244308865
sS'HRT'
p967
F0.004750570748530626
sS'HRW'
p968
F0.0006800408024481469
sS'TPK'
p969
F0.0027173875330479013
sS'TPJ'
p970
F0.05324340463159173
sS'HRS'
p971
F0.057275144304854544
sS'TPH'
p972
F0.008801919441204868
sS'TPU'
p973
F0.0
sS'TPT'
p974
F0.007584643769432772
sS'HRI'
p975
F0.0019487859988290216
sS'HRG'
p976
F0.004073305622827166
sS'TPZ'
p977
F0.0007392261427921926
sS'TPY'
p978
F0.0020387345689720977
sS'HRB'
p979
F0.02749774736258039
sS'KAD'
p980
F0.003861074831451424
sS'KAJ'
p981
F0.0006800408024481469
sS'KAH'
p982
F0.2264032320112107
sS'KAN'
p983
F0.012368895528119232
sS'RTGH'
p984
F0.017849552129637992
sS'KAR'
p985
F0.0025138019859560047
sS'KAP'
p986
F0.013968063797010783
sS'NIRA'
p987
F0.004612384224658369
sS'KAT'
p988
F0.0010182760415570024
sS'RHA'
p989
F0.00824236707793053
sS'RHE'
p990
F0.01297829590514252
sS'RHG'
p991
F0.0006748490173591272
sS'DING'
p992
F0.00043843530622635464
sS'KIP'
p993
F0.003092727052368708
sS'WFD'
p994
F0.003978700397574217
sS'SCH'
p995
F0.008924473083113418
sS'MRHT'
p996
F0.006093998292958802
sS'KUF'
p997
F0.0014757528549356354
sS'KTYM'
p998
F0.003987197962036451
sS'MTDM'
p999
F0.0
sS'PLNI'
p1000
F0.0
sS'RTA'
p1001
F0.09891687563585262
sS'RTM'
p1002
F0.01331625270586104
sS'DMNJ'
p1003
F0.003395577884332924
sS'RTI'
p1004
F0.0078074852291590766
sS'SNSI'
p1005
F0.0
sS'RTP'
p1006
F0.004623119189882612
sS'UGR'
p1007
F0.01989917219107885
sS'ANND'
p1008
F0.03890614474785611
sS'SVJR'
p1009
F0.005096604212273596
sS'HDL'
p1010
F0.0026496152181397356
sS'G'
p1011
F0.09238568349714119
sS'KRCD'
p1012
F0.03973029344067418
sS'KIUL'
p1013
F0.021695840746586648
sS'RFJ'
p1014
F0.06825046278820754
sS'ROHA'
p1015
F0.020808628523451108
sS'RAIR'
p1016
F0.03640088415156617
sS'ANPR'
p1017
F0.0013596189921055127
sS'STJT'
p1018
F0.00395418896937573
sS'CLDY'
p1019
F0.04256966113356055
sS'TLMR'
p1020
F0.0020387345689720977
sS'ATE'
p1021
F0.027983888453066735
sS'ATL'
p1022
F0.006581871842608891
sS'UREN'
p1023
F0.012074700956472343
sS'ATH'
p1024
F0.07894252010143535
sS'SALE'
p1025
F0.00829764926654227
sS'DDCE'
p1026
F0.018424126137271526
sS'ATT'
p1027
F0.0
sS'ATU'
p1028
F0.0018226488687042867
sS'ATS'
p1029
F0.12262675269667762
sS'ISM'
p1030
F0.004714638326366243
sS'ISA'
p1031
F0.006886467221631561
sS'JKPR'
p1032
F0.004850458744520654
sS'KRBP'
p1033
F0.03617138187426746
sS'PVP'
p1034
F0.08552352504103576
sS'SEU'
p1035
F0.021919633123947107
sS'PVR'
p1036
F0.02992492838636548
sS'PVU'
p1037
F0.002621688033286235
sS'SEG'
p1038
F0.03253300060419366
sS'JKN'
p1039
F0.013059883774741756
sS'SED'
p1040
F0.020378323389130332
sS'PVD'
p1041
F0.0906451984044546
sS'SEO'
p1042
F0.005827937272706343
sS'JKE'
p1043
F0.012729171242554516
sS'SEM'
p1044
F0.08808779248667153
sS'SASN'
p1045
F0.048643153930992986
sS'JKA'
p1046
F0.039842007451663886
sS'JKB'
p1047
F0.0006800408024481469
sS'SEH'
p1048
F0.014654604289339618
sS'PDY'
p1049
F0.0
sS'PDW'
p1050
F0.0027173875330479013
sS'PDU'
p1051
F0.010403602560857785
sS'CLG'
p1052
F0.005166664611346131
sS'PDR'
p1053
F0.004579984335716089
sS'PDL'
p1054
F0.03528685502540267
sS'CLX'
p1055
F0.05102075881428549
sS'VJPJ'
p1056
F0.0027173875330479013
sS'PDH'
p1057
F0.008760961031811568
sS'CLT'
p1058
F0.00208365406395196
sS'CLU'
p1059
F0.0006800408024481469
sS'PDE'
p1060
F0.004073305622827166
sS'PDD'
p1061
F0.0064561739525241055
sS'CLR'
p1062
F0.016624918549811046
sS'SKPI'
p1063
F0.000870232486058007
sS'RHMA'
p1064
F0.0013596189921055127
sS'BRGT'
p1065
F0.013996921729497031
sS'BRGW'
p1066
F0.12128542015019372
sS'BIA'
p1067
F0.08494884119297473
sS'NBG'
p1068
F0.02452317248801711
sS'PNQ'
p1069
F0.021333790111729423
sS'KAWR'
p1070
F0.01720749775822463
sS'BRGA'
p1071
F0.12247328090333601
sS'CHPT'
p1072
F0.0006800408024481469
sS'BRGM'
p1073
F0.007455005123436658
sS'RGD'
p1074
F0.0
sS'BPA'
p1075
F0.009723308175302186
sS'DO'
p1076
F0.0028587616593520994
sS'BPC'
p1077
F0.003395577884332924
sS'BPB'
p1078
F0.011509806234632582
sS'SWM'
p1079
F0.010189611174789023
sS'JYP'
p1080
F0.0013596189921055127
sS'BPF'
p1081
F0.04885519729414192
sS'SWA'
p1082
F0.05650432848047714
sS'DG'
p1083
F0.007336715032833943
sS'SWC'
p1084
F0.013722030040104607
sS'NGNT'
p1085
F0.0005295826010007631
sS'SWE'
p1086
F0.021608486067896095
sS'BPL'
p1087
F0.2394861130860092
sS'JHS'
p1088
F0.07944856593161054
sS'BPQ'
p1089
F0.0162287383059902
sS'JYG'
p1090
F0.0
sS'BPR'
p1091
F0.0006800408024481469
sS'AUBR'
p1092
F0.06876303776039293
sS'GMO'
p1093
F0.0448267921023256
sS'JYM'
p1094
F0.039155658962605484
sS'DR'
p1095
F0.0006800408024481469
sS'SWV'
p1096
F0.013756994033522813
sS'TGP'
p1097
F0.00022898176611685117
sS'TGQ'
p1098
F0.02772957685893568
sS'TGU'
p1099
F0.0078916446460976
sS'NANA'
p1100
F0.0027828556707738404
sS'GYN'
p1101
F0.0011406674702458515
sS'GYM'
p1102
F0.009437016536304096
sS'MDPB'
p1103
F0.008129957185186214
sS'KDMR'
p1104
F0.0020387345689720977
sS'NMKL'
p1105
F0.03681479515261586
sS'TGA'
p1106
F0.0049249543122204436
sS'KUTI'
p1107
F0.0023600191521695383
sS'BDHY'
p1108
F0.006779590448896321
sS'NANR'
p1109
F0.004768836419845801
sS'TGN'
p1110
F0.0031180955588175187
sS'DHO'
p1111
F0.16422324653614295
sS'DHN'
p1112
F0.009382913145235037
sS'GOH'
p1113
F0.0020804211215635893
sS'DHI'
p1114
F0.0
sS'DHG'
p1115
F0.023838858967754402
sS'LMNR'
p1116
F0.0006800408024481469
sS'DHD'
p1117
F0.0042055280686455615
sS'MLN'
p1118
F0.008481853040437274
sS'MLO'
p1119
F0.003380100474157672
sS'DHA'
p1120
F0.010495601182866287
sS'AJI'
p1121
F0.0009021032913180735
sS'MLP'
p1122
F0.019558038680863202
sS'MLV'
p1123
F0.04667856260375785
sS'LKMR'
p1124
F0.0054273732614433055
sS'MLZ'
p1125
F0.0026638321248284207
sS'DHT'
p1126
F0.0027173875330479013
sS'AJE'
p1127
F0.0006800408024481469
sS'PTKP'
p1128
F0.005730587130557974
sS'NRI'
p1129
F0.014066657124359864
sS'OML'
p1130
F0.0806257676349429
sS'NRO'
p1131
F0.0015861131130128958
sS'NRM'
p1132
F0.0022322675285363263
sS'NRL'
p1133
F0.0048776869997612686
sS'NRG'
p1134
F0.002293971998910418
sS'NRE'
p1135
F0.0016152172402129018
sS'SRNT'
p1136
F0.02923758213586721
sS'PTKC'
p1137
F0.011811545427419523
sS'BHUJ'
p1138
F0.0
sS'PTKD'
p1139
F0.006779590448896321
sS'NRS'
p1140
F0.00153687734383592
sS'NRR'
p1141
F0.10395272331003799
sS'NRP'
p1142
F0.0001787612925709783
sS'NRW'
p1143
F0.0005519422192218476
sS'CKHS'
p1144
F0.0006176086362611839
sS'NRT'
p1145
F0.03419553952242251
sS'RGPM'
p1146
F0.007494013117523012
sS'WC'
p1147
F0.0006754146745403364
sS'TQA'
p1148
F0.009373658327291878
sS'TQM'
p1149
F0.0006800408024481469
sS'TQN'
p1150
F0.0018881693768671318
sS'WL'
p1151
F0.0071484537646435975
sS'DKT'
p1152
F0.02873837258547892
sS'WR'
p1153
F0.0045990298120303415
sS'BARH'
p1154
F0.007238088086331809
sS'BARL'
p1155
F0.0001893654057641041
sS'MIL'
p1156
F0.0015368773438359238
sS'HSA'
p1157
F0.09402165490473646
sS'HSD'
p1158
F0.01507392218755519
sS'KRMI'
p1159
F0.013502882109758058
sS'HSK'
p1160
F0.06798012969911177
sS'HSI'
p1161
F0.03698139917952114
sS'HSR'
p1162
F0.008152539029792563
sS'KKHT'
p1163
F0.004750570748530626
sS'RIG'
p1164
F0.03149289658532336
sS'HSX'
p1165
F0.0
sS'BJMD'
p1166
F0.0006800408024481469
sS'KNN'
p1167
F0.0007087477232334707
sS'BNZ'
p1168
F0.011375394619892188
sS'KNL'
p1169
F0.0008947681283725502
sS'KNJ'
p1170
F0.007455005123436658
sS'PASA'
p1171
F0.0013939294407551077
sS'HAN'
p1172
F0.002964659956396628
sS'BNR'
p1173
F0.009245703721539218
sS'KND'
p1174
F0.0009822161229429342
sS'BNP'
p1175
F0.006459384153835719
sS'HAD'
p1176
F0.0032800869348898346
sS'BNV'
p1177
F0.09524249005960765
sS'BNU'
p1178
F0.0008789390883153226
sS'BNT'
p1179
F0.0029409658720839006
sS'BNI'
p1180
F0.23715567185081543
sS'BNN'
p1181
F0.017968668582200736
sS'BNC'
p1182
F0.0001224753345023415
sS'KNW'
p1183
F0.04800059784992637
sS'KNT'
p1184
F0.006389795835748021
sS'HAS'
p1185
F0.012814150073873848
sS'BNE'
p1186
F0.013040033514994543
sS'MJBT'
p1187
F0.008804446634144987
sS'SYC'
p1188
F0.0038996792286473125
sS'SYA'
p1189
F0.00043628699678572913
sS'GDV'
p1190
F0.008849385298097463
sS'SYJ'
p1191
F0.04817624942540664
sS'GAYA'
p1192
F0.09281889339382436
sS'MLTR'
p1193
F0.0020387345689720977
sS'SYN'
p1194
F0.040605802482902055
sS'MEM'
p1195
F0.021261059180818685
sS'LXA'
p1196
F0.0033851690965403503
sS'DNWH'
p1197
F0.0020387345689720977
sS'RGP'
p1198
F0.009749427673737134
sS'RGS'
p1199
F0.017076285047806693
sS'RGU'
p1200
F0.0060176437561085495
sS'BELA'
p1201
F0.01634213759333874
sS'CGN'
p1202
F0.05221203634790486
sS'KRBA'
p1203
F0.0006800408024481469
sS'RGH'
p1204
F0.0072429959031246475
sS'RGJ'
p1205
F0.0013596189921055127
sS'RGL'
p1206
F0.11078678950796567
sS'RGO'
p1207
F0.002054265098870229
sS'MET'
p1208
F0.003431304838275289
sS'DKJ'
p1209
F0.008559367703574513
sS'SRUR'
p1210
F0.011443919348480595
sS'LDH'
p1211
F0.04329070162261662
sS'PDPL'
p1212
F0.007345776558930408
sS'GDB'
p1213
F0.00712223476399319
sS'JRR'
p1214
F0.01082758043792884
sS'VGN'
p1215
F0.00509008383608512
sS'ADVI'
p1216
F0.01670765149625124
sS'LJN'
p1217
F0.02166046384183493
sS'VGE'
p1218
F0.0018449618584932817
sS'BRH'
p1219
F0.0020387345689720977
sS'DNEA'
p1220
F0.001988112952521839
sS'JOR'
p1221
F0.019170317548567677
sS'KZJ'
p1222
F0.011436865678459193
sS'SAH'
p1223
F0.006718735296669342
sS'SCKR'
p1224
F0.013389204562439111
sS'LJR'
p1225
F0.09693413167289838
sS'HLZ'
p1226
F0.0
sS'MOGA'
p1227
F0.006736732359364132
sS'SBHR'
p1228
F0.008115151372557895
sS'SRGT'
p1229
F0.013503436056503526
sS'COR'
p1230
F0.06413352210340732
sS'PRI'
p1231
F0.0006774964320988511
sS'PEP'
p1232
F0.016259798636251054
sS'PER'
p1233
F0.0021267635652059943
sS'PES'
p1234
F0.0685723256373934
sS'COA'
p1235
F0.0
sS'PEM'
p1236
F0.004667733799710344
sS'PEH'
p1237
F5.22862599485156e-05
sS'COI'
p1238
F0.013903319460291379
sS'DAVM'
p1239
F0.0020705006472723966
sS'SRGM'
p1240
F0.02050719998565001
sS'PEC'
p1241
F0.004750570748530626
sS'ZBD'
p1242
F0.010680627127645729
sS'JOA'
p1243
F0.15092076529704385
sS'OKHA'
p1244
F0.0
sS'SNLR'
p1245
F0.009496329039001555
sS'MRGA'
p1246
F0.032630612233912816
sS'DRTP'
p1247
F0.008811247488104664
sS'BRUD'
p1248
F0.04765614349150337
sS'SGBJ'
p1249
F0.04726348160979502
sS'RUM'
p1250
F0.0026166271127723915
sS'RUB'
p1251
F0.004255300112639456
sS'JOL'
p1252
F0.0027173875330479013
sS'BLMR'
p1253
F1.6307100875032094e-05
sS'SNRR'
p1254
F0.000780725372174311
sS'BLMK'
p1255
F0.0002672167132749053
sS'RUR'
p1256
F9.02094942023052e-06
sS'OEA'
p1257
F0.005953977707084005
sS'SAT'
p1258
F0.003491253919679607
sS'TELO'
p1259
F0.027507467767193847
sS'DIL'
p1260
F0.0002016357928202435
sS'GNS'
p1261
F0.004750570748530626
sS'GNP'
p1262
F0.009481831168917437
sS'MKC'
p1263
F0.027775636493253177
sS'MKB'
p1264
F0.04237902958014786
sS'GNT'
p1265
F0.06362123202350843
sS'KUGT'
p1266
F0.004073305622827166
sS'MKO'
p1267
F0.026004252197334432
sS'BRRG'
p1268
F0.01775156661152674
sS'BTBR'
p1269
F0.01144691805636269
sS'KSNG'
p1270
F0.0976431628769021
sS'JHL'
p1271
F0.009399443775559289
sS'JHN'
p1272
F0.06840620909443715
sS'GNC'
p1273
F0.00039092708374293837
sS'MKU'
p1274
F0.07674260645122993
sS'GNA'
p1275
F0.001235470472831376
sS'AII'
p1276
F0.02680367601534899
sS'GNG'
p1277
F0.00034079114717728545
sS'JHW'
p1278
F0.0024727553192118233
sS'MKP'
p1279
F0.047390982984930816
sS'CHD'
p1280
F0.053485745497488295
sS'GNH'
p1281
F0.15194396841258667
sS'DAKE'
p1282
F0.0039023173195735046
sS'GTST'
p1283
F0.012828961029164825
sS'NSL'
p1284
F0.0032432485666565336
sS'NSD'
p1285
F0.01596205704828354
sS'MNSR'
p1286
F0.0022238278372259477
sS'CHH'
p1287
F0.00292964036578351
sS'JRA'
p1288
F0.05950411246386989
sS'PVPT'
p1289
F0.0858835148943952
sS'KCKI'
p1290
F0.07759137011689235
sS'RKSH'
p1291
F0.0
sS'UTA'
p1292
F0.0011639586144995247
sS'CHL'
p1293
F0.004323893050868575
sS'UTL'
p1294
F0.0006800408024481469
sS'UTR'
p1295
F0.0038749103131532313
sS'VPDA'
p1296
F0.012572155896172197
sS'SDT'
p1297
F0.01346312251430926
sS'JAN'
p1298
F0.0007719579219705963
sS'BNSA'
p1299
F0.0006800408024481469
sS'PWS'
p1300
F0.003336565819813957
sS'SDS'
p1301
F0.0022542060771538965
sS'JAL'
p1302
F0.0041835238378479835
sS'SDE'
p1303
F0.0035820214746884833
sS'SDF'
p1304
F0.012765637911526587
sS'SDB'
p1305
F0.0230595526627436
sS'SDL'
p1306
F0.03305096672354263
sS'PWL'
p1307
F0.0019878052147549543
sS'SDI'
p1308
F0.003093158789052897
sS'DGHA'
p1309
F0.0
sS'NAB'
p1310
F0.012329592313567275
sS'KQR'
p1311
F0.04356976759031056
sS'MRJ'
p1312
F0.029791788425178684
sS'KQU'
p1313
F0.015838003927203637
sS'KQT'
p1314
F0.0884445440504955
sS'HBD'
p1315
F0.23701443947016715
sS'HBG'
p1316
F0.006779590448896321
sS'NAN'
p1317
F0.015140713866992471
sS'NAM'
p1318
F0.0006832790919836143
sS'NAS'
p1319
F0.0006800408024481469
sS'BOJ'
p1320
F0.0027088291964184517
sS'NAW'
p1321
F0.08887298132135757
sS'NAT'
p1322
F0.005506022903779513
sS'KQK'
p1323
F0.00924434369171512
sS'KQI'
p1324
F0.024190022829941225
sS'BOD'
p1325
F0.013059329127181009
sS'KQN'
p1326
F0.003418153388523039
sS'BOF'
p1327
F0.006779590448896321
sS'BOG'
p1328
F0.007171816703560004
sS'YDM'
p1329
F0.007488850755972233
sS'HRPG'
p1330
F0.00817630312916282
sS'DEHR'
p1331
F0.0014411948833116177
sS'MLMR'
p1332
F0.027207797826131478
sS'SXT'
p1333
F0.0023684561280408883
sS'HPLE'
p1334
F0.0027173875330479013
sS'RMJK'
p1335
F0.0006800408024481469
sS'BSPN'
p1336
F3.67006147352968e-05
sS'BQG'
p1337
F0.0006800408024481469
sS'SVM'
p1338
F0.01541063707614243
sS'GOTN'
p1339
F0.002106675022627535
sS'MGME'
p1340
F0.07656441598263754
sS'BQA'
p1341
F0.007406937432160173
sS'BQI'
p1342
F0.006275260120569718
sS'AMRO'
p1343
F0.00542625255816315
sS'TIHU'
p1344
F0.0003777233436727292
sS'JVN'
p1345
F0.0013501354298945012
sS'SVX'
p1346
F0.01842713092028079
sS'SVV'
p1347
F0.003395577884332924
sS'FSP'
p1348
F0.003511776683626991
sS'BOKR'
p1349
F0.005010082224777604
sS'APR'
p1350
F0.03156476145145303
sS'BTPD'
p1351
F0.0013596189921055127
sS'LKN'
p1352
F0.025856179327068324
sS'LKO'
p1353
F0.03686754096183336
sS'VDS'
p1354
F0.012042878331030408
sS'SMBX'
p1355
F0.003395577884332924
sS'LKE'
p1356
F0.009905545075645455
sS'LKA'
p1357
F0.05486911527616827
sS'VDA'
p1358
F0.038761236798439076
sS'FLK'
p1359
F0.0009488188338919383
sS'GVI'
p1360
F0.01207213960909255
sS'VDE'
p1361
F0.04622697232088305
sS'APT'
p1362
F0.0836086740645188
sS'LKW'
p1363
F0.0006800408024481469
sS'LKU'
p1364
F0.001366249775440041
sS'LKR'
p1365
F0.05849310225955562
sS'LKS'
p1366
F0.0022912076690814443
sS'JMT'
p1367
F0.012636166384851821
sS'GVL'
p1368
F0.003395577884332924
sS'APK'
p1369
F0.03342700437947772
sS'TNR'
p1370
F0.048500906942901226
sS'TRK'
p1371
F0.012620957417413335
sS'TRL'
p1372
F0.0017007318808559542
sS'TRO'
p1373
F0.08328251396665245
sS'MCA'
p1374
F0.0164275719937692
sS'TRB'
p1375
F0.00201632430417586
sS'HBLN'
p1376
F0.008981965294413424
sS'AL'
p1377
F0.003362614282907524
sS'GVD'
p1378
F0.004058295398166615
sS'TRS'
p1379
F0.004073305622827166
sS'TRR'
p1380
F5.31349341277937e-05
sS'TRT'
p1381
F0.004589946722794083
sS'KCD'
p1382
F0.03314059731432538
sS'KCG'
p1383
F0.011926861942860892
sS'HTC'
p1384
F0.013834074106342898
sS'KCC'
p1385
F0.0008580922046770815
sS'BJNR'
p1386
F0.01669301958652391
sS'HTL'
p1387
F0.026840794121116656
sS'KCI'
p1388
F0.02504057866742549
sS'KCJ'
p1389
F0.0007659361069453433
sS'KCV'
p1390
F0.0013596189921055127
sS'HLKT'
p1391
F0.042855207445493496
sS'HTZ'
p1392
F0.03743697565920873
sS'KDPR'
p1393
F0.08100841367074837
sS'RANI'
p1394
F0.00384635621550039
sS'TNM'
p1395
F0.012981611266988768
sS'SAI'
p1396
F0.009483737277929023
sS'TNL'
p1397
F0.010825139304276624
sS'ABKA'
p1398
F0.009853969815430854
sS'SILO'
p1399
F0.0006800408024481469
sS'NH'
p1400
F0.008833481651817939
sS'MAJN'
p1401
F0.011233002331417856
sS'NK'
p1402
F0.03367453852137574
sS'NN'
p1403
F0.03261939532215199
sS'NB'
p1404
F0.000555072841137556
sS'ND'
p1405
F0.03921780257916919
sS'RRB'
p1406
F0.01611047286081532
sS'NG'
p1407
F0.0002876896477226784
sS'MLHA'
p1408
F0.0020387345689720977
sS'NR'
p1409
F0.03430049217836834
sS'ODC'
p1410
F0.0013596189921055127
sS'RRS'
p1411
F0.009103700406460647
sS'NU'
p1412
F0.01308182479798195
sS'ODG'
p1413
F0.2373024225411824
sS'PUS'
p1414
F0.0015862420227600504
sS'RDP'
p1415
F0.0
sS'BCOB'
p1416
F0.0027173875330479013
sS'ELM'
p1417
F0.004846360991891451
sS'J'
p1418
F0.003939131128959682
sS'KGS'
p1419
F0.02765068836861468
sS'KSX'
p1420
F0.1431873071298054
sS'AKOR'
p1421
F0.024731769397864086
sS'KMDR'
p1422
F0.01306144625188867
sS'RDM'
p1423
F0.007836541908101563
sS'RDL'
p1424
F0.015286775262060097
sS'HDE'
p1425
F0.00582442621198315
sS'FBG'
p1426
F0.0006800408024481469
sS'SRTN'
p1427
F0.006769181661103748
sS'BBMN'
p1428
F0.0020387345689720977
sS'SRTL'
p1429
F0.005794387452784826
sS'KSC'
p1430
F0.05370103301779875
sS'USL'
p1431
F0.028395374111597548
sS'BLDI'
p1432
F0.018863701645944586
sS'DMBR'
p1433
F0.0015314245534854688
sS'MHPE'
p1434
F0.00011531394831535697
sS'AZR'
p1435
F0.07202214321207616
sS'NKP'
p1436
F0.012077486576908778
sS'SGZ'
p1437
F0.0019025465035082756
sS'SGP'
p1438
F0.014042143965560675
sS'SGS'
p1439
F0.0027173875330479013
sS'SGR'
p1440
F0.01754419035071409
sS'BNTL'
p1441
F0.006594544546927843
sS'BZG'
p1442
F0.0028964638429002077
sS'SGJ'
p1443
F0.016007441177751977
sS'SGL'
p1444
F0.049357211419804974
sS'SGO'
p1445
F0.14948937802345277
sS'SGE'
p1446
F0.04386932214679731
sS'SGD'
p1447
F0.003395577884332924
sS'SGG'
p1448
F0.00609899187217901
sS'SGF'
p1449
F0.00449065584561061
sS'BVRT'
p1450
F0.005388394829442925
sS'NLP'
p1451
F0.003395577884332924
sS'NKW'
p1452
F0.004300016907455105
sS'CND'
p1453
F0.0023324384632481543
sS'NLR'
p1454
F0.04663202837027775
sS'CNB'
p1455
F0.06932082917358742
sS'CNC'
p1456
F0.018947808986837487
sS'CNA'
p1457
F0.06228534269952352
sS'CNO'
p1458
F0.017784384903577307
sS'CNK'
p1459
F0.007168162685228746
sS'CNI'
p1460
F0.0019169565936377252
sS'BMD'
p1461
F0.0815613270574359
sS'MTHP'
p1462
F0.0006800408024481469
sS'MRTL'
p1463
F0.012481408748470486
sS'BME'
p1464
F0.0
sS'PFM'
p1465
F0.03535656307744831
sS'VDD'
p1466
F0.012959907384040837
sS'DXN'
p1467
F0.10432078946519814
sS'PFR'
p1468
F0.01757461721905298
sS'BRAG'
p1469
F0.007451208081693445
sS'INDB'
p1470
F0.0
sS'DXG'
p1471
F0.04864670514546277
sS'KAYR'
p1472
F0.004431923461008897
sS'SIR'
p1473
F0.0028550415631794107
sS'SIQ'
p1474
F0.008488010732484785
sS'SIP'
p1475
F0.013728291859762936
sS'SIW'
p1476
F0.0011887419807625039
sS'JWP'
p1477
F0.006103944467960595
sS'BMO'
p1478
F0.048639829065757714
sS'CPK'
p1479
F0.06072787496501491
sS'SID'
p1480
F0.011687669675382071
sS'JWB'
p1481
F0.003267095609523894
sS'SAGR'
p1482
F0.0017728980807796171
sS'SIL'
p1483
F0.0006800408024481469
sS'BDVT'
p1484
F0.003395577884332924
sS'SLKR'
p1485
F0.027920821893728468
sS'PRDP'
p1486
F0.0
sS'TAZ'
p1487
F0.0011163417445452962
sS'TAE'
p1488
F0.007815237400070577
sS'MKH'
p1489
F0.0013414277875955498
sS'BDVL'
p1490
F0.01041517827131905
sS'TKR'
p1491
F0.002873793290663756
sS'TAN'
p1492
F0.02416735707090264
sS'JID'
p1493
F0.06126485276191401
sS'MJG'
p1494
F0.024882402994373352
sS'MJA'
p1495
F0.013758366562873343
sS'MJL'
p1496
F0.0496154650102585
sS'DJX'
p1497
F0.061194338734210485
sS'MJN'
p1498
F0.0020387345689720977
sS'DJA'
p1499
F0.02219708692725645
sS'GID'
p1500
F0.03104900923400646
sS'SIPR'
p1501
F0.056771949979943934
sS'MJS'
p1502
F0.011818321259620896
sS'BBTR'
p1503
F0.19988558376027932
sS'AHA'
p1504
F0.01076207240931994
sS'RUL'
p1505
F0.0004903117316290679
sS'NPK'
p1506
F0.003355022163007785
sS'NPD'
p1507
F0.06811806531627716
sS'AHH'
p1508
F0.0033907876680160497
sS'AGR'
p1509
F0.006100124057330059
sS'MJRI'
p1510
F0.011075760653938773
sS'JRLI'
p1511
F0.006037838578174712
sS'CDGR'
p1512
F0.0057974640209512
sS'JRLE'
p1513
F0.009410873027140873
sS'NPS'
p1514
F0.01225265429804266
sS'GUG'
p1515
F0.11265064238158871
sS'TSK'
p1516
F0.0027173875330479013
sS'NMGT'
p1517
F0.003395577884332924
sS'TSI'
p1518
F0.0006800408024481469
sS'TSF'
p1519
F0.06616221288444421
sS'NMGY'
p1520
F0.003037284277872999
sS'DHPR'
p1521
F0.02873837258547892
sS'TSA'
p1522
F3.90715052880497e-05
sS'BDDR'
p1523
F0.003395577884332924
sS'GUR'
p1524
F0.023876693905881825
sS'MDDP'
p1525
F0.23745358127057
sS'GUV'
p1526
F0.0
sS'DWLE'
p1527
F0.0020387345689720977
sS'TSR'
p1528
F0.05265352863016665
sS'KBJ'
p1529
F0.06786584607875763
sS'KBN'
p1530
F0.0056135612757318345
sS'KBL'
p1531
F0.006220290316456705
sS'KBM'
p1532
F0.008794601583541587
sS'HLDD'
p1533
F0.0020391200796310814
sS'DLD'
p1534
F0.003218323636077273
sS'PGRL'
p1535
F0.03230746067766691
sS'KBY'
p1536
F0.011497778302072274
sS'HUP'
p1537
F0.09769349439776509
sS'DLJ'
p1538
F0.008813698889960609
sS'SHZ'
p1539
F0.0006800408024481469
sS'HLDR'
p1540
F0.0003507464054179055
sS'KPP'
p1541
F0.013884754923774504
sS'KPQ'
p1542
F0.003691078069473935
sS'HCP'
p1543
F0.0011853975975144658
sS'KPV'
p1544
F0.002037423832731551
sS'BLZ'
p1545
F0.0010908603279829207
sS'BLU'
p1546
F0.013183527576797421
sS'BLT'
p1547
F0.0020387345689720977
sS'BLW'
p1548
F0.0073548065781521565
sS'NFK'
p1549
F0.08679480724896986
sS'CKDL'
p1550
F0.0054273732614433055
sS'BLM'
p1551
F0.00695729977643412
sS'KPD'
p1552
F0.03095896570198237
sS'BLK'
p1553
F0.005828689857445868
sS'KPG'
p1554
F0.03563690980187289
sS'KPI'
p1555
F0.0505064414785484
sS'BLG'
p1556
F0.00883346696208287
sS'KPN'
p1557
F0.0028294910203569045
sS'DEOR'
p1558
F0.010666527368815178
sS'DEOS'
p1559
F0.004880446510861711
sS'GCT'
p1560
F0.014062059727850665
sS'EKM'
p1561
F0.00043832022750757925
sS'KTHD'
p1562
F0.003395577884332924
sS'EKI'
p1563
F0.08613516343374149
sS'SHG'
p1564
F0.008225246361495353
sS'EKC'
p1565
F0.0050685385192050115
sS'RECH'
p1566
F0.010144632774506059
sS'REJ'
p1567
F0.004750570748530626
sS'REI'
p1568
F0.00023692609812777033
sS'KTHU'
p1569
F0.007455005123436658
sS'CLF'
p1570
F0.02770526004009843
sS'SVGA'
p1571
F0.037817978495521425
sS'EKR'
p1572
F0.0006800408024481469
sS'JHD'
p1573
F0.014366549670308256
sS'KEPR'
p1574
F0.008454773678784753
sS'MKA'
p1575
F0.00930477501402076
sS'PDRD'
p1576
F0.009188874891478736
sS'GNU'
p1577
F0.0003178458281193016
sS'DJHR'
p1578
F0.007980002727071275
sS'MKN'
p1579
F0.004330816484568103
sS'MONR'
p1580
F0.03618633567633973
sS'LTR'
p1581
F0.0023311054855927153
sS'DIG'
p1582
F0.0908887541256696
sS'LTT'
p1583
F0.0
sS'KXJ'
p1584
F0.008129957185186214
sS'DIA'
p1585
F0.0011545582753487878
sS'LTA'
p1586
F0.0020387345689720977
sS'SDBH'
p1587
F0.00043784813677741954
sS'LTD'
p1588
F0.011497778302072274
sS'KXL'
p1589
F0.01784482579158831
sS'RPAR'
p1590
F0.0054273732614433055
sS'BTU'
p1591
F0.0019219468058306374
sS'RJPM'
p1592
F0.003395577884332924
sS'SY'
p1593
F0.008912170407774433
sS'KXN'
p1594
F0.11964463693818102
sS'SV'
p1595
F0.0021843520415781676
sS'ST'
p1596
F0.04102204605162049
sS'SI'
p1597
F0.04368188391337522
sS'RPAN'
p1598
F0.007455005123436658
sS'SM'
p1599
F0.08132436212160005
sS'SL'
p1600
F0.004741601028669326
sS'SC'
p1601
F0.05279537846596327
sS'MKS'
p1602
F0.0013596189921055127
sS'SA'
p1603
F0.0855074714340007
sS'KKTA'
p1604
F0.003395577884332924
sS'JUDW'
p1605
F0.014013654806843759
sS'MKR'
p1606
F0.03539969179236932
sS'KNVT'
p1607
F0.003527480293070763
sS'TBR'
p1608
F0.001625274387211532
sS'GLPT'
p1609
F0.07789659216287671
sS'CAR'
p1610
F0.0932698642466615
sS'CAP'
p1611
F0.00842731382504713
sS'ANKL'
p1612
F0.016663056474967675
sS'TBT'
p1613
F0.05070353999189206
sS'BNCE'
p1614
F0.08074155308282052
sS'PUL'
p1615
F0.016692348163217775
sS'CAI'
p1616
F0.050182809481765754
sS'HAPA'
p1617
F0.006748595391913991
sS'CAN'
p1618
F0.002576299466960357
sS'KHNM'
p1619
F0.007960227061658848
sS'SRID'
p1620
F0.013424682557656158
sS'CAA'
p1621
F0.0411601840279496
sS'CAG'
p1622
F0.0800288891384528
sS'AIG'
p1623
F0.0011763886512677348
sS'DUSI'
p1624
F0.00992986243699926
sS'BTE'
p1625
F0.010360241080811789
sS'MRN'
p1626
F0.00910546106689303
sS'BAKA'
p1627
F0.0
sS'CHOK'
p1628
F0.00017728350171153885
sS'NRPA'
p1629
F0.03720537756396729
sS'PGI'
p1630
F0.0045185718791375
sS'PGW'
p1631
F0.025373358261554055
sS'PGT'
p1632
F0.03721383143413505
sS'PGR'
p1633
F0.0010093864135249475
sS'RKSN'
p1634
F0.015357699684771036
sS'DYD'
p1635
F0.015712841642369437
sS'KUPR'
p1636
F0.0020387345689720977
sS'MKX'
p1637
F0.003557158251868511
sS'PNSA'
p1638
F0.0013596189921055127
sS'SOA'
p1639
F0.004750570748530626
sS'FGSB'
p1640
F0.0002666962738852801
sS'ADTL'
p1641
F0.017418868542904354
sS'CNPR'
p1642
F0.0025313729101752334
sS'TUNI'
p1643
F0.0849055622114649
sS'MBI'
p1644
F0.0020387345689720977
sS'UDR'
p1645
F0.012729171242554516
sS'TGRL'
p1646
F0.0038544577314037357
sS'MAKM'
p1647
F0.005162574033775601
sS'BDWL'
p1648
F0.0023933987941604155
sS'PNME'
p1649
F0.04369025531909626
sS'RSI'
p1650
F0.00754942732569179
sS'UDZ'
p1651
F0.04006561061185864
sS'SSA'
p1652
F0.0003758206649941393
sS'RSA'
p1653
F0.0020387345689720977
sS'OGL'
p1654
F0.04898086771333657
sS'BTJ'
p1655
F0.02107246204272504
sS'UDN'
p1656
F0.047468057982404346
sS'MAKR'
p1657
F0.07913309394332677
sS'UDL'
p1658
F0.0015067525396165503
sS'UDM'
p1659
F0.004073305622827166
sS'MIH'
p1660
F0.0017961515528981712
sS'ZNA'
p1661
F0.009837303181584808
sS'GHQ'
p1662
F0.10284088894457159
sS'GHR'
p1663
F0.007536819556549763
sS'MIN'
p1664
F0.0021329322971742584
sS'DKZ'
p1665
F0.0009540971256755782
sS'MID'
p1666
F0.04484271726900198
sS'SOL'
p1667
F0.006103713161565204
sS'GHD'
p1668
F0.10376872663621291
sS'DKD'
p1669
F0.032661812351399894
sS'DKE'
p1670
F0.0255163337011105
sS'DKO'
p1671
F0.039093710368232
sS'GHH'
p1672
F0.0036093961477525263
sS'GHJ'
p1673
F0.01296769045822194
sS'PPR'
p1674
F0.0022403559337061097
sS'GAM'
p1675
F0.008689361898649599
sS'CTYL'
p1676
F0.03296757683733546
sS'JRMG'
p1677
F0.03487944252724311
sS'KBPR'
p1678
F0.006905264720401902
sS'MBY'
p1679
F0.0039093773666991185
sS'URD'
p1680
F0.026187830843924825
sS'NDKD'
p1681
F0.03240845896302561
sS'URL'
p1682
F0.0022696207577443312
sS'URI'
p1683
F0.013239240614874451
sS'KPTN'
p1684
F0.010687348237105768
sS'DABN'
p1685
F0.0033351691532733973
sS'SFY'
p1686
F0.017261713637581853
sS'SFW'
p1687
F0.01741170041456625
sS'IPL'
p1688
F0.015520135169983839
sS'KLTR'
p1689
F0.0281392729664553
sS'IPR'
p1690
F0.0
sS'SFM'
p1691
F0.00923078662557207
sS'SFH'
p1692
F0.0106734813636721
sS'SFG'
p1693
F0.005319594992899939
sS'PYD'
p1694
F2.32848438026463e-05
sS'SFC'
p1695
F0.12322276061998609
sS'HDW'
p1696
F0.0006800408024481469
sS'KSV'
p1697
F0.0033237230115461154
sS'KSP'
p1698
F0.0040350199905814605
sS'NGB'
p1699
F0.010662771537993707
sS'NGN'
p1700
F0.07083303051897971
sS'NGO'
p1701
F0.00039078756559968793
sS'NGI'
p1702
F0.00980584253419528
sS'NGT'
p1703
F0.0020391971817628786
sS'KSD'
p1704
F0.0027173875330479013
sS'KSG'
p1705
F0.014323238975377186
sS'KSF'
p1706
F0.008815257622733472
sS'NGP'
p1707
F0.09419283342577435
sS'HDB'
p1708
F0.0
sS'NGR'
p1709
F0.019290395638115028
sS'KSB'
p1710
F0.03998806334043516
sS'HDN'
p1711
F0.025274027943188487
sS'KSN'
p1712
F0.10601739593144975
sS'HDK'
p1713
F0.0014846207019829324
sS'KSH'
p1714
F0.013326820541512654
sS'BAMR'
p1715
F0.03554708388211544
sS'KSJ'
p1716
F0.013146839198624052
sS'BMB'
p1717
F0.11973335285394443
sS'MGAE'
p1718
F0.003575253455676407
sS'VLNK'
p1719
F0.0
sS'BMF'
p1720
F0.208209708357463
sS'HRNR'
p1721
F0.004750570748530626
sS'SZM'
p1722
F0.0014992867502079269
sS'DNRP'
p1723
F0.038925431997060125
sS'BMH'
p1724
F0.03096575141486813
sS'BMI'
p1725
F0.006590697936207205
sS'TPTY'
p1726
F0.012421786087813259
sS'BMR'
p1727
F0.01360651508514372
sS'SOJN'
p1728
F0.0027173875330479013
sS'BMT'
p1729
F0.0072453192171946625
sS'BMU'
p1730
F0.004749891196159669
sS'SZR'
p1731
F0.024190022829941225
sS'TPTN'
p1732
F0.01996837150394493
sS'DNRE'
p1733
F0.01273506529488593
sS'SHR'
p1734
F0.018169689102341985
sS'SHU'
p1735
F0.00010420903841856041
sS'EE'
p1736
F0.08182174501487485
sS'ED'
p1737
F0.04424080407290104
sS'JTW'
p1738
F0.024893781341473267
sS'JTO'
p1739
F0.0013596189921055127
sS'SHC'
p1740
F0.0
sS'JTI'
p1741
F0.02756795656379461
sS'SHE'
p1742
F0.0004097554243277272
sS'SHF'
p1743
F0.0020387345689720977
sS'JTJ'
p1744
F0.007999542381581206
sS'ET'
p1745
F0.25119692505262065
sS'JTG'
p1746
F0.018198724576535815
sS'SHK'
p1747
F0.053232992236939204
sS'SHM'
p1748
F0.0
sS'JTB'
p1749
F0.0562571004948706
sS'GZN'
p1750
F0.0006636951505072162
sS'GZO'
p1751
F0.006103713161565204
sS'NASP'
p1752
F0.08481063021169002
sS'RPUR'
p1753
F0.007655186434951918
sS'BDWS'
p1754
F0.07904323505017585
sS'MGF'
p1755
F0.0022351675867070477
sS'MGE'
p1756
F0.020866149928179364
sS'BSKH'
p1757
F0.0013596189921055127
sS'RJPB'
p1758
F0.010142690814824003
sS'BBGN'
p1759
F0.0003476535122719608
sS'GZB'
p1760
F0.016537003106381964
sS'MGN'
p1761
F0.00502565573435541
sS'REWA'
p1762
F0.0
sS'MGS'
p1763
F0.060301510976337985
sS'TBH'
p1764
F0.004750570748530626
sS'BDWD'
p1765
F0.07363144071622366
sS'TBM'
p1766
F0.027574424153697086
sS'TBN'
p1767
F0.048426933503076385
sS'KDJR'
p1768
F0.004931822616251146
sS'MGX'
p1769
F0.017530711706647977
sS'GHX'
p1770
F0.0002542255185833897
sS'LUR'
p1771
F0.0613984217943924
sS'SNC'
p1772
F0.059339522660517945
sS'VJP'
p1773
F0.018547915979790403
sS'RVKH'
p1774
F0.008922101372735258
sS'WPR'
p1775
F0.007403876516557955
sS'MLAR'
p1776
F0.0020387345689720977
sS'GHY'
p1777
F0.0631745183622582
sS'NRGR'
p1778
F0.003395577884332924
sS'RMC'
p1779
F0.00866322428954351
sS'SDAH'
p1780
F0.001083338372508368
sS'DTC'
p1781
F0.016193298128499956
sS'LNN'
p1782
F0.003967232136848292
sS'DKNT'
p1783
F0.004880462139897702
sS'RMD'
p1784
F0.0020387345689720977
sS'TLU'
p1785
F0.03175543824106209
sS'TLY'
p1786
F0.002026933927552557
sS'GTK'
p1787
F0.02826255311998625
sS'GTL'
p1788
F0.14014571699762077
sS'GTM'
p1789
F0.004983541661142816
sS'TLC'
p1790
F0.002804620997933005
sS'GTS'
p1791
F0.011848402714725741
sS'GTT'
p1792
F0.010109708623333727
sS'TLD'
p1793
F0.029738136909560814
sS'TLJ'
p1794
F0.008142169349774558
sS'TLH'
p1795
F0.001608022693433738
sS'KEM'
p1796
F0.03506541422179251
sS'KEK'
p1797
F0.052443914604918825
sS'KEJ'
p1798
F0.003395577884332924
sS'BHLP'
p1799
F0.0006447333375918296
sS'KEH'
p1800
F0.001958781336787926
sS'KEG'
p1801
F0.003440084080241996
sS'HVD'
p1802
F0.023415144202464856
sS'KEA'
p1803
F0.010609135440009231
sS'BHLE'
p1804
F0.0006800408024481469
sS'BTG'
p1805
F3.212680613120559e-05
sS'HVR'
p1806
F0.018071090226254107
sS'KMTI'
p1807
F0.007455005123436658
sS'MRDW'
p1808
F0.01456026159979231
sS'SKND'
p1809
F0.004420064491375558
sS'DGHR'
p1810
F0.0020387345689720977
sS'CMW'
p1811
F0.0027173875330479013
sS'SINI'
p1812
F0.014829953766695565
sS'MRDL'
p1813
F0.016542457943595594
sS'TLV'
p1814
F0.04717539242421715
sS'RPR'
p1815
F0.005835689835333751
sS'UCR'
p1816
F0.01138656167060506
sS'PNBE'
p1817
F0.012973946386220065
sS'RPZ'
p1818
F0.040408059730234314
sS'MAHE'
p1819
F0.0016686726446786522
sS'RPD'
p1820
F0.0015490856191298264
sS'UCA'
p1821
F0.0005251334575318473
sS'SGAM'
p1822
F0.12147960495320936
sS'RPH'
p1823
F0.09290505227815128
sS'RPJ'
p1824
F0.0306681912372993
sS'KRIH'
p1825
F0.02612187824284319
sS'ALJN'
p1826
F0.06671251295551707
sS'VTJ'
p1827
F0.0013596189921055127
sS'RBZ'
p1828
F0.0038810436481297094
sS'VTM'
p1829
F0.05050494555256464
sS'RBS'
p1830
F3.7741493514554184e-05
sS'KTGA'
p1831
F0.0015477289181568582
sS'BEAS'
p1832
F0.0037089980500870866
sS'RBL'
p1833
F0.004852500502034886
sS'RBK'
p1834
F0.0027678922748106574
sS'RBG'
p1835
F0.018486159972703836
sS'RBD'
p1836
F7.363253586598416e-06
sS'SDN'
p1837
F0.0027792851244544062
sS'RBA'
p1838
F0.009032065454060201
sS'LGH'
p1839
F0.003562846994365135
sS'RMPB'
p1840
F0.0013596189921055127
sS'LGL'
p1841
F0.0
sS'KAJG'
p1842
F0.0014592423515807954
sS'ATMO'
p1843
F0.006774964320988511
sS'OTP'
p1844
F0.035915084575083224
sS'SMNH'
p1845
F0.0
sS'LGT'
p1846
F0.02617879521750897
sS'DZA'
p1847
F0.013821135390572415
sS'NAC'
p1848
F0.005487167822240632
sS'JU'
p1849
F0.012519718302277032
sS'JP'
p1850
F0.006890693518681487
sS'SEGM'
p1851
F0.013914416492919104
sS'JM'
p1852
F0.03256854172148539
sS'MHRG'
p1853
F0.016477522716298636
sS'NAD'
p1854
F0.01837319630172302
sS'BNVD'
p1855
F4.024731279795155e-05
sS'HBJ'
p1856
F0.23760888038443514
sS'SCC'
p1857
F0.07122513452207817
sS'NAK'
p1858
F0.00041299756896978444
sS'BOR'
p1859
F0.005625619823119621
sS'BNDP'
p1860
F0.003395577884332924
sS'IAA'
p1861
F0.005446878366000053
sS'KKGM'
p1862
F0.004750570748530626
sS'BNDA'
p1863
F0.02987232948871574
sS'BJ'
p1864
F0.0633878847008849
sS'BNDM'
p1865
F0.12113439111125143
sS'PHK'
p1866
F0.00789476694284552
sS'MZP'
p1867
F0.056488634595300714
sS'KEI'
p1868
F0.06294061502997861
sS'MZR'
p1869
F0.2248441847803396
sS'KHMA'
p1870
F0.0020387345689720977
sS'PHA'
p1871
F0.14906737492548913
sS'PHD'
p1872
F0.002983321928186501
sS'CHNR'
p1873
F0.006103713161565204
sS'MBF'
p1874
F0.0
sS'MXR'
p1875
F0.0215318497341133
sS'MZC'
p1876
F0.006320988630768237
sS'MZL'
p1877
F0.04997261394592693
sS'PHR'
p1878
F0.030254084017311795
sS'SKT'
p1879
F0.03165486613504799
sS'MSDN'
p1880
F0.01011047348183263
sS'RMGM'
p1881
F0.002519123339682775
sS'KLAR'
p1882
F0.024530630378394078
sS'SKP'
p1883
F0.008661264620954852
sS'SKS'
p1884
F0.08656005753155008
sS'STBJ'
p1885
F0.004451113955137376
sS'SKY'
p1886
F0.0054273732614433055
sS'BOY'
p1887
F0.0012583371073482418
sS'BNXR'
p1888
F0.002767790415762327
sS'SKB'
p1889
F0.005530549557510901
sS'SKM'
p1890
F0.04802279662362905
sS'VMA'
p1891
F0.0020015816217302607
sS'SKI'
p1892
F0.003395577884332924
sS'SKJ'
p1893
F0.025591179535522666
sS'BDTS'
p1894
F0.0
sS'JUD'
p1895
F0.01351576644126184
sS'DMG'
p1896
F0.056051908591519664
sS'TCR'
p1897
F0.020021820237074352
sS'BOE'
p1898
F0.11483982369617522
sS'MFP'
p1899
F0.045090537815584766
sS'MFQ'
p1900
F0.0010675787931260208
sS'AONI'
p1901
F0.0013596189921055127
sS'GED'
p1902
F0.02074641383824792
sS'JGJ'
p1903
F0.0035100142952358957
sS'KAMG'
p1904
F0.09131976490017972
sS'JGM'
p1905
F0.0021032528067654235
sS'MHH'
p1906
F0.05709905577409203
sS'GKP'
p1907
F0.058349413059863554
sS'MHD'
p1908
F0.03939467486951114
sS'DDP'
p1909
F0.0016755051410416515
sS'JGD'
p1910
F0.0013596189921055127
sS'MKDI'
p1911
F0.011897858149434547
sS'GKH'
p1912
F0.0006628411878963302
sS'GKK'
p1913
F0.017225925628484382
sS'GKJ'
p1914
F0.0013596189921055127
sS'DDN'
p1915
F0.0
sS'DDL'
p1916
F0.00012700468948499046
sS'BRMO'
p1917
F0.0010860736873420096
sS'JGR'
p1918
F0.003256434467313622
sS'DDE'
p1919
F0.04697220104709896
sS'MHQ'
p1920
F0.009251836525091662
sS'SSIA'
p1921
F0.001514128295188757
sS'ANF'
p1922
F0.0013596189921055127
sS'ANG'
p1923
F0.03423830283178882
sS'NVS'
p1924
F0.007669597337053897
sS'SUJH'
p1925
F0.00222828256275161
sS'ANH'
p1926
F0.0244071802506843
sS'ANK'
p1927
F0.003903859631891872
sS'NVG'
p1928
F0.004750570748530626
sS'ANV'
p1929
F0.08466292180270024
sS'CKTD'
p1930
F0.02767259905979734
sS'GDYA'
p1931
F0.1997438527248436
sS'ANY'
p1932
F0.0013596189921055127
sS'GWD'
p1933
F0.0072037887743319875
sS'TMR'
p1934
F0.08354204429081587
sS'GWA'
p1935
F0.0062601468607888545
sS'TMV'
p1936
F0.02684240430658034
sS'TMX'
p1937
F0.00945683732415019
sS'GWL'
p1938
F0.17785342119393346
sS'TMZ'
p1939
F0.003396503109914486
sS'TMKA'
p1940
F0.003855754974771228
sS'GWV'
p1941
F0.0489528637208529
sS'TME'
p1942
F0.0006800408024481469
sS'GWS'
p1943
F0.0006800408024481469
sS'NNR'
p1944
F0.05269712365642236
sS'KDM'
p1945
F0.006728081376767448
sS'KKDI'
p1946
F0.03973273283656426
sS'KOAA'
p1947
F0.00024998824192490104
sS'HWH'
p1948
F0.015582842506415026
sS'KDG'
p1949
F0.013884199947355038
sS'VVM'
p1950
F0.0013596189921055127
sS'KKDE'
p1951
F0.0012760826874102238
sS'NJP'
p1952
F0.10558894077862359
sS'BHME'
p1953
F0.0022623506164865556
sS'KDZ'
p1954
F0.004750570748530626
sS'NJT'
p1955
F0.010929288530132196
sS'ADR'
p1956
F0.0017388398611118971
sS'KDU'
p1957
F0.02515185616990461
sS'KDP'
p1958
F0.004333487592669879
sS'KRY'
p1959
F0.026582575042083265
sS'NDL'
p1960
F0.030725912750711782
sS'NDO'
p1961
F0.052100320834524316
sS'KRR'
p1962
F0.03659987681533867
sS'KRS'
p1963
F0.004928964908591268
sS'NDB'
p1964
F0.046426009545450134
sS'NDD'
p1965
F0.0849689131780556
sS'KRJ'
p1966
F0.012256118323514881
sS'KRH'
p1967
F0.03750361191818113
sS'HEM'
p1968
F0.00445296637539563
sS'BALU'
p1969
F0.010118629816478243
sS'KRA'
p1970
F0.003395577884332924
sS'NDU'
p1971
F0.013708945588212992
sS'KRG'
p1972
F0.0016566585818000668
sS'KRD'
p1973
F0.0016060993151930253
sS'KRE'
p1974
F0.0043840657650343375
sS'BJF'
p1975
F0.0029658106016973262
sS'BJE'
p1976
F0.009749722905712637
sS'BJD'
p1977
F0.039591387352532224
sS'SKLR'
p1978
F0.008743649399899701
sS'BJO'
p1979
F0.0004837472052913147
sS'SGLA'
p1980
F0.029326569582342882
sS'VVB'
p1981
F0.013657877323265127
sS'BJW'
p1982
F0.038486764223832584
sS'BJU'
p1983
F0.041802463181480634
sS'BJR'
p1984
F0.013553876652293281
sS'BJP'
p1985
F0.022424483910207328
sS'NNP'
p1986
F0.0025669247766323226
sS'UHL'
p1987
F0.0006800408024481469
sS'KRNT'
p1988
F0.007257498119341686
sS'WSA'
p1989
F0.012841682643781265
sS'HYB'
p1990
F0.0
sS'CBN'
p1991
F0.012685049982765331
sS'WSJ'
p1992
F0.002070192238745209
sS'HYT'
p1993
F0.0038872572788913947
sS'ARCL'
p1994
F0.0006800408024481469
sS'RWO'
p1995
F0.0006800408024481469
sS'FAN'
p1996
F0.04173295192217831
sS'MQ'
p1997
F0.0
sS'LEDO'
p1998
F0.0
sS'UHP'
p1999
F0.0
sS'GJUT'
p2000
F0.001179609978344563
sS'LLR'
p2001
F0.050122508151252854
sS'VKR'
p2002
F0.02748762385267547
sS'HMT'
p2003
F0.038711550683455685
sS'ADRA'
p2004
F0.0706694525739731
sS'VKI'
p2005
F0.01260567705992661
sS'DMRT'
p2006
F0.0027173875330479013
sS'VKN'
p2007
F0.03365247451221805
sS'VKA'
p2008
F0.0016976732889687667
sS'VKB'
p2009
F0.09774894674143192
sS'SVA'
p2010
F0.001738704473439988
sS'SBLT'
p2011
F0.0006800408024481469
sS'MKPR'
p2012
F0.004277184230136544
sS'BQR'
p2013
F0.08519258073075553
sS'PURI'
p2014
F0.0
sS'AGTL'
p2015
F0.0
sS'KNPR'
p2016
F5.158793492624061e-05
sS'PANP'
p2017
F0.0004929349397425646
sS'BQP'
p2018
F0.009750240786184946
sS'CCT'
p2019
F0.0006800408024481469
sS'CCH'
p2020
F0.0014411948833116177
sS'DARA'
p2021
F0.004215571906347639
sS'DMRX'
p2022
F0.041884080155291215
sS'BZR'
p2023
F0.05950411246386989
sS'MYY'
p2024
F0.0019819716457677825
sS'PUNE'
p2025
F0.012818794979973097
sS'SBPD'
p2026
F0.0005230223110438781
sS'PIL'
p2027
F0.02486103093311018
sS'PIA'
p2028
F0.20653182052029617
sS'MYS'
p2029
F0.0009695873111065779
sS'MYR'
p2030
F0.02533540343250565
sS'BMKI'
p2031
F0.041387320299468976
sS'MYA'
p2032
F0.0006995824211959216
sS'ASKN'
p2033
F0.2062199225709154
sS'MYD'
p2034
F0.02750233041193356
sS'SBPY'
p2035
F0.005941175667053362
sS'POK'
p2036
F0.0020387345689720977
sS'CAER'
p2037
F0.0474260321791557
sS'DOA'
p2038
F2.809807481600146e-05
sS'CQA'
p2039
F0.004073305622827166
sS'SMR'
p2040
F0.0218251752527284
sS'GRKN'
p2041
F0.0020387345689720977
sS'DUBH'
p2042
F0.03626072063455672
sS'AKT'
p2043
F0.03421523940974994
sS'ON'
p2044
F0.06739789388346182
sS'PLJE'
p2045
F0.0020403244847885006
sS'UBR'
p2046
F0.003557887142378754
sS'ALER'
p2047
F0.010856180846626888
sS'SML'
p2048
F0.0
sS'GLGT'
p2049
F0.0037145494035764593
sS'UBC'
p2050
F0.03098746646937622
sS'UBL'
p2051
F0.023446897214798406
sS'SMK'
p2052
F2.3130639539052616e-05
sS'RQJ'
p2053
F0.005324441915494521
sS'KANO'
p2054
F0.004073305622827166
sS'CUPJ'
p2055
F0.010169976034842113
sS'SMI'
p2056
F0.007781473348682912
sS'DGLE'
p2057
F0.008430328961692364
sS'MWT'
p2058
F0.009161622455145091
sS'DER'
p2059
F0.004323893050868575
sS'DES'
p2060
F0.012339953100190886
sS'GJS'
p2061
F0.0008946242961814416
sS'JDB'
p2062
F0.0
sS'NRDP'
p2063
F0.03230366123338618
sS'GJL'
p2064
F0.006102584197342332
sS'GJH'
p2065
F0.012238994975764863
sS'MWK'
p2066
F0.0027173875330479013
sS'MWJ'
p2067
F0.12197421516873899
sS'DEB'
p2068
F0.006103713161565204
sS'DEC'
p2069
F0.008023508613548091
sS'DEE'
p2070
F0.03392046579699888
sS'MWM'
p2071
F0.0034824427982037805
sS'DEG'
p2072
F0.0013596189921055127
sS'AMI'
p2073
F0.0023324384632481543
sS'AMH'
p2074
F0.006577868395219943
sS'KBRV'
p2075
F0.039055447518785556
sS'NWP'
p2076
F0.008545546780239461
sS'AML'
p2077
F0.007049426339945997
sS'NWR'
p2078
F0.00029036792999570125
sS'SMC'
p2079
F0.0006800408024481469
sS'AMB'
p2080
F0.09435520414813131
sS'AME'
p2081
F0.0014974944510747293
sS'AMG'
p2082
F0.002230462737856447
sS'NWD'
p2083
F0.05468683003410045
sS'NWA'
p2084
F0.0027173875330479013
sS'NWB'
p2085
F0.12170890052500262
sS'AMP'
p2086
F0.0016910818262931733
sS'KLNK'
p2087
F0.0006030661645335261
sS'DMGN'
p2088
F0.005418814924813856
sS'BSX'
p2089
F0.051579972367779905
sS'CBSA'
p2090
F0.011875861648674713
sS'RCTC'
p2091
F0.0027173875330479013
sS'ANGL'
p2092
F0.03451328501445489
sS'BNWC'
p2093
F0.0012711941368895479
sS'MNAE'
p2094
F0.012929392779593442
sS'KHRK'
p2095
F0.00033324697894572064
sS'KHRJ'
p2096
F0.018124471071962155
sS'KLRE'
p2097
F0.07645832641475168
sS'NEO'
p2098
F0.0034408269971889236
sS'KUX'
p2099
F0.0013596189921055127
sS'GNW'
p2100
F0.0006800408024481469
sS'BSP'
p2101
F0.04710396817924041
sS'NED'
p2102
F0.056370964190377154
sS'KUR'
p2103
F0.014692071267560869
sS'KUN'
p2104
F0.0001237373562141619
sS'KUH'
p2105
F0.014131796649835555
sS'NEW'
p2106
F0.025107003768759205
sS'KUE'
p2107
F0.052195151598896185
sS'KUD'
p2108
F0.019422334056981228
sS'HSRA'
p2109
F0.08219543761689119
sS'KUA'
p2110
F0.004371954555056938
sS'BHTN'
p2111
F0.01379158590216674
sS'BKG'
p2112
F0.008674473470082641
sS'MUGR'
p2113
F0.0
sS'CGS'
p2114
F0.013892956026341172
sS'BKL'
p2115
F0.005927132315612568
sS'RMNP'
p2116
F0.0007529320560472713
sS'BKN'
p2117
F0.012101410022003968
sS'BKO'
p2118
F0.005227765112088975
sS'BKH'
p2119
F0.013589559959208328
sS'BKI'
p2120
F0.0034817574061028474
sS'BKJ'
p2121
F0.012724880048327742
sS'HMH'
p2122
F0.003997576753076946
sS'BKP'
p2123
F0.008208998618023293
sS'GGA'
p2124
F0.00506909521192824
sS'BUDI'
p2125
F0.06381036503986623
sS'BUDM'
p2126
F0.12346787600718141
sS'BHTK'
p2127
F0.027597085749187435
sS'KTE'
p2128
F0.03627773865493408
sS'BURN'
p2129
F0.11737467453485066
sS'GGC'
p2130
F0.0023593936785452387
sS'SJP'
p2131
F0.013593728154318183
sS'BUPH'
p2132
F0.007279572992724269
sS'DHRR'
p2133
F0.0029128606028913794
sS'SJT'
p2134
F0.003764961395264225
sS'AADR'
p2135
F0.0
sS'KNLS'
p2136
F0.003395577884332924
sS'MGG'
p2137
F0.0013596189921055127
sS'BONA'
p2138
F0.03500029145112443
sS'CRLM'
p2139
F0.04115687208548429
sS'LGO'
p2140
F0.008222106471648344
sS'JRG'
p2141
F0.003395577884332924
sS'MED'
p2142
F0.04927535109730641
sS'GDR'
p2143
F0.046164693073924165
sS'JRC'
p2144
F0.024721305532948153
sS'GADJ'
p2145
F0.0017696577560589394
sS'GDX'
p2146
F0.0003393264820379019
sS'GDZ'
p2147
F0.0013596189921055127
sS'JRK'
p2148
F0.149831210324774
sS'SMBL'
p2149
F0.005373865256853105
sS'MEJ'
p2150
F0.024565879968248616
sS'KDHA'
p2151
F0.004750570748530626
sS'GDA'
p2152
F0.0034143638187452076
sS'JRU'
p2153
F0.015500840546420843
sS'MEP'
p2154
F0.003269433656571165
sS'GDG'
p2155
F0.023148326617305794
sS'SMBJ'
p2156
F0.0024929193896218614
sS'GGJ'
p2157
F0.008384525664304924
sS'GDL'
p2158
F0.010781653701943205
sS'MEX'
p2159
F0.01315127206952145
sS'GDO'
p2160
F0.04072230643961032
sS'DHNE'
p2161
F0.037015167519589755
sS'LWR'
p2162
F0.008692633306189714
sS'YNK'
p2163
F0.09671255408146037
sS'BHLK'
p2164
F0.09762193474753468
sS'HLAR'
p2165
F0.019939809886455263
sS'TU'
p2166
F0.004990339928980126
sS'TR'
p2167
F0.0025891911826239223
sS'TP'
p2168
F0.03445654385887102
sS'VDL'
p2169
F0.00828610109758416
sS'TN'
p2170
F0.0
sS'TL'
p2171
F0.014185760642453032
sS'TJ'
p2172
F0.0010291680168301339
sS'TK'
p2173
F0.016386910892029326
sS'MFKA'
p2174
F0.019597079590533212
sS'TA'
p2175
F0.005147378315006642
sS'AB'
p2176
F0.00886259794420445
sS'CHJ'
p2177
F0.004000294218063405
sS'AD'
p2178
F0.1040516864662703
sS'VZM'
p2179
F0.09268039961847388
sS'AF'
p2180
F0.004032992443837614
sS'AI'
p2181
F0.0013596189921055127
sS'AH'
p2182
F0.0110704108262951
sS'AK'
p2183
F0.2336113663019987
sS'GVG'
p2184
F0.0012939547006888589
sS'AO'
p2185
F0.002113176218280648
sS'AN'
p2186
F0.04808104535553524
sS'TNA'
p2187
F0.0020391971817628786
sS'AY'
p2188
F0.014112666690119166
sS'BDCR'
p2189
F0.0006800408024481469
sS'SME'
p2190
F0.0027173875330479013
sS'AZ'
p2191
F0.010737953274879248
sS'KGQ'
p2192
F0.009886797204912307
sS'KGP'
p2193
F0.020808319486397244
sS'RRME'
p2194
F0.0031631721937936275
sS'NKD'
p2195
F0.00683419263492334
sS'NKE'
p2196
F0.05047969895046265
sS'KGX'
p2197
F0.006824415857388413
sS'NKJ'
p2198
F0.0001874119798113595
sS'NKM'
p2199
F0.0021030955734895112
sS'BVRM'
p2200
F0.0020387345689720977
sS'KGA'
p2201
F0.004076292093246716
sS'KGB'
p2202
F0.02802488709455663
sS'KGG'
p2203
F0.060903721311886996
sS'BHBK'
p2204
F0.0037113269299732707
sS'KGI'
p2205
F0.003866463817299642
sS'KGM'
p2206
F0.0
sS'KGL'
p2207
F0.10418949624657292
sS'CPH'
p2208
F0.035036417327439326
sS'CPJ'
p2209
F0.05347514045213896
sS'GNVR'
p2210
F0.0070314923351326815
sS'CPN'
p2211
F0.0036718271123478098
sS'CKD'
p2212
F0.0046482783406049475
sS'CPA'
p2213
F0.014429057443024071
sS'CPP'
p2214
F0.01145896437878723
sS'RAJP'
p2215
F0.01589345940965407
sS'CPR'
p2216
F0.013808794011995449
sS'CPS'
p2217
F0.0005879735243456806
sS'CPT'
p2218
F0.0018723097009324815
sS'CPU'
p2219
F0.13833250572296227
sS'MRBL'
p2220
F0.06778289432996157
sS'MANU'
p2221
F0.003395577884332924
sS'BGPL'
p2222
F0.004053480771471838
sS'KTSH'
p2223
F0.034545876027992396
sS'PAW'
p2224
F6.349360553469943e-05
sS'NILE'
p2225
F0.00891830495669772
sS'NTSK'
p2226
F0.00407538738038568
sS'MANG'
p2227
F0.0054273732614433055
sS'UAA'
p2228
F0.011173785988865193
sS'HZD'
p2229
F0.04357531233504575
sS'SHTT'
p2230
F0.0
sS'HNS'
p2231
F0.002019315662773054
sS'PUN'
p2232
F0.008326615080238586
sS'WRR'
p2233
F0.00875999027204163
sS'WRS'
p2234
F0.054191464257732115
sS'HZR'
p2235
F0.0006318301244711121
sS'KTES'
p2236
F0.0006028532652130227
sS'KYOP'
p2237
F0.0065280236388799255
sS'ADI'
p2238
F0.06841893853086518
sS'KESR'
p2239
F0.0020213926473424074
sS'RMRB'
p2240
F0.0006800408024481469
sS'BGSF'
p2241
F0.005511205864885357
sS'CHP'
p2242
F0.011291528284611614
sS'LAU'
p2243
F0.0016877195167239512
sS'LAV'
p2244
F0.008900904747356261
sS'LAR'
p2245
F0.051095874589051286
sS'SNKL'
p2246
F0.0027173875330479013
sS'SGUJ'
p2247
F0.09807564644354852
sS'DTO'
p2248
F0.07787624487053725
sS'TNKU'
p2249
F0.0036022014472530312
sS'BLTR'
p2250
F0.010197607415043377
sS'PNVL'
p2251
F0.02237112249984731
sS'MMM'
p2252
F0.0013596189921055127
sS'SBC'
p2253
F0.04568249181548089
sS'PUX'
p2254
F0.0020387345689720977
sS'GVN'
p2255
F0.08418188710971475
sS'MMH'
p2256
F0.03533571026239756
sS'FTP'
p2257
F0.004651411029710214
sS'FTS'
p2258
F0.0005469239719008992
sS'BDN'
p2259
F0.003539037316789283
sS'SBD'
p2260
F0.019513780476022924
sS'IGP'
p2261
F0.03245166016001197
sS'PUT'
p2262
F0.0009696310177196165
sS'FTG'
p2263
F0.0019764715184675077
sS'BDU'
p2264
F0.0033627926937782877
sS'CBF'
p2265
F0.03975862584515554
sS'CBE'
p2266
F0.03913629598835736
sS'CBJ'
p2267
F0.0008631589161951823
sS'CBK'
p2268
F0.017935069685203222
sS'MXT'
p2269
F0.011387474704343137
sS'RUPC'
p2270
F0.0027152286733575894
sS'CBM'
p2271
F0.03138027854327159
sS'MXN'
p2272
F0.016541298600365
sS'SKZR'
p2273
F0.011003589073788822
sS'MXK'
p2274
F0.0570559408974027
sS'MXH'
p2275
F0.0005534991315546311
sS'CBZ'
p2276
F0.006103713161565204
sS'MRPR'
p2277
F0.024855388751539566
sS'MHV'
p2278
F0.0
sS'MXA'
p2279
F0.0027173875330479013
sS'BZU'
p2280
F0.1996869424362831
sS'SMZ'
p2281
F0.006585290026134915
sS'SANR'
p2282
F0.004278565240875065
sS'SMT'
p2283
F0.2254419611830337
sS'GIMB'
p2284
F0.0020387345689720977
sS'BZY'
p2285
F0.05053031764021451
sS'PERN'
p2286
F0.01357056524178831
sS'SMO'
p2287
F0.0521436916704541
sS'FA'
p2288
F0.0035350602134772246
sS'KOJ'
p2289
F0.08452629606755997
sS'FD'
p2290
F0.0241495247184166
sS'MQO'
p2291
F0.0009595615640345554
sS'BZA'
p2292
F0.09581132834849576
sS'BZO'
p2293
F0.0009902983288753817
sS'BZN'
p2294
F0.01598907674981419
sS'BZM'
p2295
F0.05527022572947787
sS'FK'
p2296
F0.0026633580071862947
sS'FL'
p2297
F0.021346955140146697
sS'FM'
p2298
F0.010899649516464518
sS'CROA'
p2299
F0.08947255202659098
sS'MDJ'
p2300
F0.025699943974340826
sS'JSG'
p2301
F0.13132632865244914
sS'MDN'
p2302
F0.006572179672506478
sS'NPNR'
p2303
F0.0015547898508955767
sS'MDL'
p2304
F0.0005734471052390127
sS'GGR'
p2305
F0.0005873177787492646
sS'MDB'
p2306
F4.524995611603665e-05
sS'JSM'
p2307
F0.0
sS'BRYA'
p2308
F0.041399778534835716
sS'KON'
p2309
F0.002140879473176554
sS'MDE'
p2310
F0.015683145672871136
sS'JSV'
p2311
F0.002737522526607278
sS'JSP'
p2312
F0.004073305622827166
sS'MDVL'
p2313
F0.005256998715057969
sS'JSR'
p2314
F0.02688170284782623
sS'AMLA'
p2315
F0.2035498647590796
sS'MDR'
p2316
F0.006374028938285859
sS'MDS'
p2317
F0.0033736458805820107
sS'MDP'
p2318
F0.011595737368029923
sS'GGN'
p2319
F0.004128251088572783
sS'KZTW'
p2320
F0.0007173582342378185
sS'MDW'
p2321
F0.0006092512594188275
sS'MDU'
p2322
F0.0015072156030042074
sS'JER'
p2323
F0.028104606790038563
sS'JES'
p2324
F0.00024501625588303045
sS'LUSA'
p2325
F0.05057755889324159
sS'THUR'
p2326
F0.001617124691880609
sS'BPHB'
p2327
F0.08506084623128549
sS'MVI'
p2328
F0.023176438572492963
sS'MVJ'
p2329
F0.041362954212111745
sS'MVN'
p2330
F0.0013596189921055127
sS'MVO'
p2331
F0.005846252358954532
sS'ALJ'
p2332
F0.0027102941369225916
sS'ALD'
p2333
F0.05730749479609145
sS'ALB'
p2334
F0.0074177647937787835
sS'NTV'
p2335
F0.0
sS'ALY'
p2336
F0.0019665270162106054
sS'SHNG'
p2337
F0.019487328561027
sS'ALU'
p2338
F0.02235324114047828
sS'GQL'
p2339
F0.011195964014823472
sS'YL'
p2340
F0.0360088697611938
sS'HNL'
p2341
F0.20855932797409577
sS'YA'
p2342
F0.0031137434329636064
sS'HTK'
p2343
F0.0027173875330479013
sS'YG'
p2344
F0.10692439456905464
sS'SYWN'
p2345
F0.003861407534046327
sS'KSWR'
p2346
F0.09077138848334594
sS'BAO'
p2347
F0.16472904830104082
sS'YP'
p2348
F0.007006227867954068
sS'BAL'
p2349
F0.0013453044511479342
sS'HIP'
p2350
F0.026414335305722292
sS'HIR'
p2351
F0.050781600057726355
sS'NHN'
p2352
F0.0020969641975182953
sS'NHH'
p2353
F0.019742663835792013
sS'NHK'
p2354
F8.095723838668415e-06
sS'NHT'
p2355
F0.09239631071188056
sS'KFA'
p2356
F0.0020387345689720977
sS'HIJ'
p2357
F0.014457065120468396
sS'BAI'
p2358
F0.0023154961836049618
sS'HIL'
p2359
F0.0013596189921055127
sS'KRPU'
p2360
F0.0020387345689720977
sS'RGDA'
p2361
F0.09289011329483429
sS'KTX'
p2362
F0.0013596189921055127
sS'NZT'
p2363
F0.0027173875330479013
sS'KTU'
p2364
F0.007066535187775012
sS'HGT'
p2365
F0.01087900911617799
sS'KTW'
p2366
F0.0
sS'KTQ'
p2367
F0.04670285081740852
sS'BANE'
p2368
F0.00623916411286998
sS'NZB'
p2369
F0.05116544560652949
sS'ABR'
p2370
F0.002315155073865491
sS'KTO'
p2371
F0.0013596189921055127
sS'KTH'
p2372
F0.0016765997512515917
sS'HGH'
p2373
F0.02015792600451857
sS'NZD'
p2374
F0.0823543775559177
sS'JGNR'
p2375
F0.0006800408024481469
sS'BANO'
p2376
F0.0012658936406932716
sS'BANI'
p2377
F0.00033915763337589934
sS'NZM'
p2378
F0.0023423363958870085
sS'JIND'
p2379
F0.0014944537482685625
sS'BSGN'
p2380
F0.08390593231512258
sS'BHL'
p2381
F0.018792239125702045
sS'BHC'
p2382
F0.025893371621597376
sS'BHB'
p2383
F0.003395577884332924
sS'BHD'
p2384
F6.850937457284044e-05
sS'BHZ'
p2385
F0.013512919618714538
sS'BAGL'
p2386
F0.011625154063677492
sS'CAF'
p2387
F0.011643713778283129
sS'HTE'
p2388
F0.001748283128280214
sS'BHS'
p2389
F0.2257189968527929
sS'BHT'
p2390
F0.0010834331897728356
sS'BHW'
p2391
F0.00965764271879966
sS'GNGD'
p2392
F0.010503318052723271
sS'KKPM'
p2393
F0.02172578399191558
sS'BAP'
p2394
F0.03457958256783224
sS'MKRN'
p2395
F0.1493385431230186
sS'DURE'
p2396
F0.006467617688433538
sS'MKRH'
p2397
F0.0006800408024481469
sS'MLNH'
p2398
F0.0020387345689720977
sS'VPZ'
p2399
F0.004750570748530626
sS'RAG'
p2400
F0.011460674905873127
sS'BAQ'
p2401
F0.2260293020924224
sS'RAA'
p2402
F0.014627223600580358
sS'FGR'
p2403
F0.013227647071292429
sS'LBA'
p2404
F0.008815666378311738
sS'SBM'
p2405
F0.0006800408024481469
sS'LLGM'
p2406
F7.667807007195944e-05
sS'RAY'
p2407
F0.0764343324329095
sS'MURI'
p2408
F0.1824153939381927
sS'BFD'
p2409
F0.00135846246012856
sS'BFJ'
p2410
F0.004750570748530626
sS'ATNR'
p2411
F0.011324964623739673
sS'MURD'
p2412
F0.003912376667294793
sS'BFM'
p2413
F0.007949191841578867
sS'GMAN'
p2414
F0.0038353729601073566
sS'LPJ'
p2415
F0.0013841374700169086
sS'LPI'
p2416
F0.00810300883859786
sS'LTHR'
p2417
F0.07688845751777618
sS'PHN'
p2418
F0.05028938919150057
sS'MDJN'
p2419
F0.014515464227713196
sS'VID'
p2420
F0.01629728825011774
sS'MZS'
p2421
F0.0
sS'BIDR'
p2422
F0.0972114044467824
sS'GHGL'
p2423
F0.004073305622827166
sS'SDNR'
p2424
F0.004073305622827166
sS'STD'
p2425
F0.0014950597176204537
sS'FUT'
p2426
F0.008606839480070452
sS'CLKA'
p2427
F0.009739056021642387
sS'LHLL'
p2428
F0.0011202865401596916
sS'URPR'
p2429
F0.003103281311458881
sS'BNGN'
p2430
F0.003640993969842272
sS'ABD'
p2431
F0.04161311281095598
sS'BLGT'
p2432
F0.0
sS'BLGR'
p2433
F0.12300941902130424
sS'PKR'
p2434
F0.08622690061700022
sS'PKQ'
p2435
F0.0027173875330479013
sS'KHBJ'
p2436
F0.0004610293138482425
sS'PKU'
p2437
F0.019676094634314564
sS'RUSD'
p2438
F0.0019386943648960781
sS'DUMK'
p2439
F0.0
sS'RNGG'
p2440
F0.0010152037693690193
sS'PKF'
p2441
F0.001413351467754732
sS'JAMA'
p2442
F0.0006800408024481469
sS'PKD'
p2443
F0.09824215316763146
sS'ABI'
p2444
F0.004057484265382453
sS'CHSM'
p2445
F0.002377799638067909
sS'PKO'
p2446
F0.0006800408024481469
sS'CSN'
p2447
F0.07525063571134596
sS'CSA'
p2448
F0.007433189320240527
sS'CSB'
p2449
F0.002507628500453377
sS'NBR'
p2450
F0.0006226905846291185
sS'BKSL'
p2451
F0.0053696478429640345
sS'CSZ'
p2452
F0.0027173875330479013
sS'LUNI'
p2453
F0.025495157491623784
sS'BKSC'
p2454
F0.03167774453248864
sS'TLWA'
p2455
F0.004009800102792211
sS'KTM'
p2456
F0.001796618454703657
sS'AKVD'
p2457
F0.004729570567911415
sS'KTRH'
p2458
F0.05224351954545231
sS'THA'
p2459
F0.015024616365194298
sS'HGL'
p2460
F0.06105597267601674
sS'SGDP'
p2461
F0.003925504316842201
sS'BGK'
p2462
F0.02115594181128684
sS'KTRR'
p2463
F0.005574758604842948
sS'ABS'
p2464
F0.005968174461094205
sS'KUDL'
p2465
F0.01409343561079596
sS'MUT'
p2466
F0.0009015834901796173
sS'MUW'
p2467
F0.009112521859604282
sS'MUV'
p2468
F0.0008530830071479368
sS'KTJ'
p2469
F0.08546452733859208
sS'MUR'
p2470
F0.06881591281708895
sS'NNGL'
p2471
F0.0020387345689720977
sS'KLPM'
p2472
F0.0020387345689720977
sS'KUDA'
p2473
F0.013124538948496673
sS'MUE'
p2474
F0.05744252297018132
sS'MUD'
p2475
F1.6576958336321041e-06
sS'KAPG'
p2476
F0.011282409393819744
sS'THVM'
p2477
F0.013532973428082596
sS'JBN'
p2478
F0.0
sS'JL'
p2479
F0.09860322917181524
sS'ASR'
p2480
F0.0023675366100197304
sS'DGA'
p2481
F0.011032300351865218
sS'DGG'
p2482
F0.0863811882959946
sS'AST'
p2483
F0.0014409280548626474
sS'SKR'
p2484
F0.0013596189921055127
sS'NUR'
p2485
F2.1974107562099985e-06
sS'DGO'
p2486
F0.04756011527562781
sS'NUQ'
p2487
F0.10370005562252818
sS'DGR'
p2488
F0.11161611083854245
sS'NUJ'
p2489
F0.004073305622827166
sS'SLGR'
p2490
F0.011502404429980085
sS'DGU'
p2491
F0.030940006060227558
sS'ASK'
p2492
F0.020851846636779
sS'ORAI'
p2493
F0.05080705288062378
sS'NUD'
p2494
F0.008769981981231799
sS'ASH'
p2495
F0.0
sS'ASN'
p2496
F0.12501704444975983
sS'KPGM'
p2497
F0.03623847160654458
sS'DUI'
p2498
F0.029407638416830518
sS'DUJ'
p2499
F0.00014605046282457117
sS'CSTM'
p2500
F0.0
sS'DUA'
p2501
F0.01655330005622445
sS'DUB'
p2502
F0.004114188018541767
sS'DUD'
p2503
F0.024300203065486567
sS'BHTA'
p2504
F0.0020387345689720977
sS'PML'
p2505
F0.0002038937838228656
sS'R'
p2506
F0.09177552565455661
sS'BFR'
p2507
F0.008602468444506415
sS'MCRD'
p2508
F0.0006800408024481469
sS'THDR'
p2509
F0.0053618981311214465
sS'MLPR'
p2510
F0.007818588306702904
sS'NS'
p2511
F0.0
sS'KK'
p2512
F0.004453703506711993
sS'KJ'
p2513
F0.07424001951881876
sS'KI'
p2514
F0.007649837913128208
sS'KH'
p2515
F0.0017256106338491863
sS'KO'
p2516
F0.10442816377313059
sS'KN'
p2517
F0.0016229813213823618
sS'ITA'
p2518
F0.04005296130547245
sS'KS'
p2519
F0.0015067294256657761
sS'KP'
p2520
F0.08409158708188565
sS'MNGD'
p2521
F0.09395865246387379
sS'KT'
p2522
F0.015600481155822812
sS'SKA'
p2523
F0.013425871067950894
sS'KY'
p2524
F0.012981050384170072
sS'NW'
p2525
F0.10745356632583873
sS'ITR'
p2526
F0.08437487387052603
sS'GBP'
p2527
F5.654284835321402e-05
sS'AAM'
p2528
F0.003395577884332924
sS'AAL'
p2529
F0.0314920194452093
sS'AAY'
p2530
F0.002678450956490496
sS'BHRL'
p2531
F0.00947847347031298
sS'NCH'
p2532
F0.013512919618714538
sS'BIM'
p2533
F0.006441707337123291
sS'KWE'
p2534
F0.00013827771681202076
sS'BIK'
p2535
F0.0026911140617070484
sS'BIH'
p2536
F0.015247936034369037
sS'BIG'
p2537
F0.027823079067707663
sS'BID'
p2538
F0.0031905865299685222
sS'KWM'
p2539
F0.056792659260235884
sS'BIC'
p2540
F0.0019637768287661403
sS'KWO'
p2541
F0.004942997677487404
sS'GOM'
p2542
F0.0027173875330479013
sS'KWP'
p2543
F0.001785769842201348
sS'KWR'
p2544
F0.004126787979920763
sS'BIX'
p2545
F0.0
sS'KWV'
p2546
F0.08859576646723426
sS'SLY'
p2547
F0.0069978579953929015
sS'JUC'
p2548
F0.024533600393088745
sS'SLT'
p2549
F0.03678803021736206
sS'SLW'
p2550
F0.015405476747608894
sS'IZN'
p2551
F0.0
sS'SLN'
p2552
F0.039386537995977855
sS'SLO'
p2553
F0.08440833056350708
sS'SLH'
p2554
F0.029620633260702436
sS'SLI'
p2555
F0.004871447843814494
sS'SLJ'
p2556
F0.0074894741034036575
sS'BHP'
p2557
F0.00045422044259848653
sS'SLD'
p2558
F0.01115436179693853
sS'SLF'
p2559
F0.0032098851101134097
sS'TRVL'
p2560
F0.002062636229829119
sS'NCB'
p2561
F0.09255771672830983
sS'SLB'
p2562
F0.00592341535133859
sS'MCN'
p2563
F0.001010244450105944
sS'JPL'
p2564
F0.024927432382310693
sS'MCI'
p2565
F0.00855355318274634
sS'JPE'
p2566
F0.002780071566198734
sS'JPD'
p2567
F0.008550601838838372
sS'JPG'
p2568
F0.0006800408024481469
sS'BYNR'
p2569
F0.013556083435270221
sS'JPZ'
p2570
F0.07852065681764035
sS'MCU'
p2571
F0.025986513881588232
sS'MCS'
p2572
F0.007451208081693445
sS'MCQ'
p2573
F0.12030382834346953
sS'SVPR'
p2574
F0.004073305622827166
sS'KLRS'
p2575
F0.1580961323993228
sS'BGH'
p2576
F0.003779934643257788
sS'MFL'
p2577
F0.0021673577721256915
sS'WANI'
p2578
F0.0047984669955710504
sS'SHDM'
p2579
F0.0019538104259044656
sS'BGM'
p2580
F0.016441276508720775
sS'BGP'
p2581
F0.007341037213876184
sS'BGQ'
p2582
F0.0007844567097967713
sS'BGS'
p2583
F0.02670612422753053
sS'PYOL'
p2584
F0.001397084546705666
sS'BGU'
p2585
F0.006798967880284764
sS'BGY'
p2586
F0.0
sS'BGZ'
p2587
F0.005826805736682973
sS'YLM'
p2588
F0.0004811558534781929
sS'TCN'
p2589
F0.0
sS'VNE'
p2590
F0.006779590448896321
sS'VNB'
p2591
F0.0006800408024481469
sS'VNA'
p2592
F0.0733032940432963
sS'PRNA'
p2593
F0.0020387345689720977
sS'SDMD'
p2594
F0.0003145309871815502
sS'WENA'
p2595
F0.004073305622827166
sS'DURG'
p2596
F0.08739912808958339
sS'BUI'
p2597
F0.015190622456741599
sS'DDA'
p2598
F0.001724049744679957
sS'DLPH'
p2599
F0.004073305622827166
sS'GPH'
p2600
F0.11954955679216712
sS'GPD'
p2601
F0.02874311899194068
sS'SONI'
p2602
F0.0006800408024481469
sS'GPB'
p2603
F0.01763136718853808
sS'GPZ'
p2604
F0.0054273732614433055
sS'THB'
p2605
F0.05249381187479593
sS'GPR'
p2606
F0.006622629555931534
sS'JJG'
p2607
F0.0013596189921055127
sS'HJP'
p2608
F0.016352560016066366
sS'NIL'
p2609
F0.0
sS'KIS'
p2610
F0.002293971998910418
sS'KIR'
p2611
F0.053905367489863826
sS'NIA'
p2612
F0.03358836657440171
sS'KIT'
p2613
F0.00937757038692607
sS'KIK'
p2614
F0.0
sS'KIN'
p2615
F0.042301194633521035
sS'KIM'
p2616
F0.040279213273037004
sS'NIR'
p2617
F0.003395577884332924
sS'HJO'
p2618
F0.016862236223969356
sS'NIQ'
p2619
F0.027514971978823813
sS'HJI'
p2620
F0.05551075921698159
sS'NIU'
p2621
F0.03964540136434765
sS'CRR'
p2622
F0.05215210369943403
sS'CRP'
p2623
F0.03232554821126184
sS'FDB'
p2624
F0.00047579248232920105
sS'ABLE'
p2625
F0.0059499905581358835
sS'FDK'
p2626
F0.004395578446656752
sS'CRY'
p2627
F0.00454430679177234
sS'FDN'
p2628
F0.0006830021668269105
sS'SMLA'
p2629
F0.004316478036301219
sS'BKRO'
p2630
F0.0007889475461672631
sS'CRJ'
p2631
F0.013297570494082435
sS'MHJ'
p2632
F0.0020818373071346034
sS'CRN'
p2633
F0.0013596189921055127
sS'BKRD'
p2634
F0.08114377910829927
sS'PS'
p2635
F0.032789906390074036
sS'PP'
p2636
F0.0054273732614433055
sS'JGN'
p2637
F0.007394567747854789
sS'KRMR'
p2638
F0.0
sS'PB'
p2639
F0.03544439862913148
sS'PC'
p2640
F0.0745981203699492
sS'MALM'
p2641
F0.10479170334227536
sS'DDR'
p2642
F0.0003397890948286829
sS'MALB'
p2643
F0.029053579409559913
sS'PM'
p2644
F0.005214658676656188
sS'BLS'
p2645
F0.02626569010583115
sS'FBD'
p2646
F0.013524481078287826
sS'RV'
p2647
F0.0007772534027903227
sS'S'
p2648
F0.0006184268367407503
sS'MKSR'
p2649
F0.019459643298135335
sS'SKN'
p2650
F0.007973563044617254
sS'KTCH'
p2651
F7.899113402586468e-05
sS'KMBL'
p2652
F0.0027173875330479013
sS'DOTL'
p2653
F0.004750570748530626
sS'RNH'
p2654
F0.013588319143225969
sS'RNO'
p2655
F0.03862134048758885
sS'RNC'
p2656
F0.001922283364212737
sS'RNG'
p2657
F0.11375073660930346
sS'RNY'
p2658
F0.013251080779132462
sS'OPL'
p2659
F0.005505222005152027
sS'RNR'
p2660
F0.017022027055706556
sS'RNQ'
p2661
F0.10463828062351117
sS'SPRD'
p2662
F0.0931572914570433
sS'RNV'
p2663
F0.018448834350278713
sS'KPRR'
p2664
F0.0006800408024481469
sS'DVL'
p2665
F0.033056796241419446
sS'NDLS'
p2666
F0.003879818978003458
sS'UMR'
p2667
F0.03525288795446278
sS'DVD'
p2668
F0.08643933564376646
sS'DVG'
p2669
F0.015986942501653757
sS'BMLL'
p2670
F0.0006248469660366212
sS'MABD'
p2671
F0.006631035126392815
sS'UMD'
p2672
F0.06072242885386358
sS'MABA'
p2673
F0.2266139007359903
sS'UMB'
p2674
F0.10589107386789355
sS'SWPR'
p2675
F0.002403182053309044
sS'MHT'
p2676
F0.01326813477187962
sS'IKR'
p2677
F0.0027173875330479013
sS'ANDN'
p2678
F0.0006800408024481469
sS'ANDI'
p2679
F6.850937457284044e-05
sS'MSMD'
p2680
F0.06869021314431425
sS'IKK'
p2681
F2.3130639539052613e-06
sS'MBA'
p2682
F0.0247698579163677
sS'MZM'
p2683
F0.0008947043252141818
sS'ANVT'
p2684
F0.0
sS'ANVR'
p2685
F0.00024053659715294305
sS'KER'
p2686
F6.873655049688473e-05
sS'FZR'
p2687
F0.006191591649625801
sS'BLDA'
p2688
F0.030302599942708508
sS'PMKT'
p2689
F0.003878137399378104
sS'OBR'
p2690
F0.12017335143907842
sS'WTJ'
p2691
F0.008088553340411309
sS'FZD'
p2692
F0.005975918317770788
sS'BILD'
p2693
F0.008455721402241037
sS'PLS'
p2694
F0.0040625113243756075
sS'ANB'
p2695
F0.04947748254423994
sS'PLP'
p2696
F0.0033865259904734277
sS'CDM'
p2697
F0.009540090169127845
sS'PLY'
p2698
F0.0054273732614433055
sS'PLG'
p2699
F0.006169498260814538
sS'PSB'
p2700
F0.043554456759124234
sS'MRND'
p2701
F0.007226165996263489
sS'RURA'
p2702
F0.003733956341048821
sS'PLO'
p2703
F0.0041726475397516095
sS'PLK'
p2704
F0.0022475311049707154
sS'PLJ'
p2705
F0.03977070582139058
sS'PLI'
p2706
F0.03466891350340663
sS'BXY'
p2707
F0.0054273732614433055
sS'MOP'
p2708
F0.0013596189921055127
sS'BXP'
p2709
F0.023526173475170414
sS'BXR'
p2710
F0.00689688231188805
sS'BPK'
p2711
F0.00021018041127819149
sS'TLGP'
p2712
F0.0
sS'BXK'
p2713
F0.015523897420239772
sS'BXJ'
p2714
F0.024853409571921253
sS'BXM'
p2715
F0.00196610035658079
sS'PSD'
p2716
F0.0017141775849004485
sS'BXN'
p2717
F0.00419982839756888
sS'BXA'
p2718
F0.0006800408024481469
sS'PSE'
p2719
F0.04697944480209846
sS'MNTT'
p2720
F0.0006598785949832729
sS'PPC'
p2721
F0.05396149298930026
sS'MBM'
p2722
F0.027892682478221506
sS'SOD'
p2723
F0.02082038032070639
sS'SOG'
p2724
F0.003268812727051826
sS'PPD'
p2725
F0.003608005822752975
sS'SOH'
p2726
F0.002555481484104952
sS'PPI'
p2727
F0.013811951145245098
sS'MBG'
p2728
F0.023526173475170414
sS'PPO'
p2729
F0.11994993494507993
sS'PPN'
p2730
F0.012091535618444749
sS'MBB'
p2731
F0.0020387345689720977
sS'GAP'
p2732
F0.04371025281458654
sS'SOP'
p2733
F0.004993945996751283
sS'SOS'
p2734
F0.004545865306227256
sS'SOR'
p2735
F0.029222704060695718
sS'GAGA'
p2736
F0.00033967344163098766
sS'GAJ'
p2737
F0.149198201822722
sS'SOW'
p2738
F0.003395577884332924
sS'PPT'
p2739
F0.005926522638457387
sS'PPZ'
p2740
F0.008191622925736665
sS'GAD'
p2741
F0.0
sS'PNU'
p2742
F0.011182038117317977
sS'MBS'
p2743
F0.0008503210898575242
sS'MTY'
p2744
F0.19999043471125527
sS'ANR'
p2745
F0.11383381850725276
sS'MTR'
p2746
F0.04094522343855025
sS'MTP'
p2747
F0.0
sS'MTPR'
p2748
F0.0013596189921055127
sS'MTU'
p2749
F0.10519510169583644
sS'MTJ'
p2750
F0.17832022280004142
sS'SJN'
p2751
F0.003477504314873956
sS'MTM'
p2752
F0.0
sS'JCL'
p2753
F0.008039160426801618
sS'MTC'
p2754
F0.0015044950479933615
sS'HRR'
p2755
F0.01650332246404332
sS'MTD'
p2756
F0.0029171016483050694
sS'ARQ'
p2757
F0.0013596189921055127
sS'JRNA'
p2758
F0.0013596189921055127
sS'ARV'
p2759
F0.01415135634641329
sS'ARW'
p2760
F0.015326975536208752
sS'ARA'
p2761
F0.004641918244842133
sS'SNGP'
p2762
F0.0325217376908891
sS'MLD'
p2763
F0.0008745446480771824
sS'ARD'
p2764
F0.02794424206611431
sS'WZJ'
p2765
F0.055689358213002055
sS'ARJ'
p2766
F0.028948095573281804
sS'TNGL'
p2767
F0.006024464321429623
sS'BD'
p2768
F0.22625831444384834
sS'BE'
p2769
F0.001058343513568379
sS'BF'
p2770
F0.019533362477939152
sS'BG'
p2771
F0.012147803597151447
sS'BPO'
p2772
F0.0006800408024481469
sS'TMQ'
p2773
F0.0001095929701360313
sS'BL'
p2774
F0.005331035708163429
sS'TIU'
p2775
F0.009110092595273843
sS'BN'
p2776
F0.013253090398108533
sS'TIW'
p2777
F0.009329296747249569
sS'BH'
p2778
F0.03958864591820457
sS'BCN'
p2779
F0.0015552474367069604
sS'TIR'
p2780
F0.005778150855236604
sS'TIS'
p2781
F0.002533313903596121
sS'BU'
p2782
F0.00010133918692717936
sS'BV'
p2783
F0.058846533584010444
sS'VYA'
p2784
F0.045356872834889206
sS'BP'
p2785
F0.00018531766857138884
sS'KMC'
p2786
F0.05076031759514511
sS'TIG'
p2787
F0.1447778542607348
sS'VYN'
p2788
F0.015248439304760485
sS'TIA'
p2789
F0.05518543410000427
sS'BORA'
p2790
F0.0010911879202548072
sS'NNO'
p2791
F0.006426413595240642
sS'NNN'
p2792
F0.004708164576042362
sS'NNL'
p2793
F0.018679436263334685
sS'EKMA'
p2794
F0.0012507770334484834
sS'KHS'
p2795
F0.03154234658828076
sS'KHT'
p2796
F0.012464775495371982
sS'KHU'
p2797
F0.028124896136073874
sS'NNA'
p2798
F0.05234017912722386
sS'KHM'
p2799
F0.004348905816111189
sS'BDBA'
p2800
F0.0006800408024481469
sS'NNW'
p2801
F0.0025011122686258284
sS'HKG'
p2802
F0.12280501282539191
sS'TDPR'
p2803
F0.010820949333602833
sS'RSNR'
p2804
F0.00036420789069826126
sS'NAVI'
p2805
F0.2219776398697846
sS'GTJT'
p2806
F0.001603005988743784
sS'KMJ'
p2807
F0.0062601468607888545
sS'CKNI'
p2808
F0.009223826614344857
sS'NXN'
p2809
F0.0022156377001667717
sS'BPP'
p2810
F0.051551673079248246
sS'KVG'
p2811
F0.0013648916357022743
sS'BVQ'
p2812
F0.0041988088460188444
sS'BVP'
p2813
F0.0006800408024481469
sS'SQR'
p2814
F0.0004465678371541284
sS'KVM'
p2815
F0.0027173875330479013
sS'KVK'
p2816
F0.028252105114474797
sS'BVC'
p2817
F0.0
sS'KVU'
p2818
F0.0039029712594862123
sS'KVR'
p2819
F0.08435044338441285
sS'SQN'
p2820
F0.001740774511831188
sS'SQL'
p2821
F0.014867880535993987
sS'BVI'
p2822
F0.0027176188394432916
sS'BVH'
p2823
F0.0010224149298218245
sS'KVZ'
p2824
F0.04755000635145083
sS'BVN'
p2825
F0.06618712513395733
sS'BVL'
p2826
F0.08350300008559611
sS'JUJA'
p2827
F1.470723164024762e-05
sS'MJZ'
p2828
F0.0027173875330479013
sS'JTTN'
p2829
F0.0010346335065818234
sS'KAL'
p2830
F0.03845515051269053
sS'ARGD'
p2831
F0.003839280787520135
sS'CNS'
p2832
F0.000705034743505623
sS'ROI'
p2833
F0.014210839406720056
sS'ROK'
p2834
F0.004253409518850942
sS'ROA'
p2835
F0.03848468626128348
sS'ICL'
p2836
F0.006563267836903925
sS'LLJ'
p2837
F0.008909164017724054
sS'LLI'
p2838
F0.02110052425410909
sS'OSN'
p2839
F0.009188797437649089
sS'ROP'
p2840
F0.02947531692380302
sS'ROU'
p2841
F0.12010941519740662
sS'BDC'
p2842
F0.018373267044400024
sS'BDM'
p2843
F0.020340124154744465
sS'BDL'
p2844
F0.05679387568600635
sS'RHN'
p2845
F0.0033864027306490995
sS'BDH'
p2846
F0.00023926630790304559
sS'BDJ'
p2847
F0.0015185859786474591
sS'GSPR'
p2848
F0.017916639905784754
sS'BDW'
p2849
F0.01629294598703182
sS'BJUD'
p2850
F0.004073305622827166
sS'MUPA'
p2851
F0.024853409571921253
sS'BDY'
p2852
F0.006132758308394372
sS'MLDT'
p2853
F0.08503007629287983
sS'DKGS'
p2854
F0.00035459811440454234
sS'SDLP'
p2855
F0.020161663137909784
sS'LRJ'
p2856
F0.013913025549516005
sS'UR'
p2857
F0.009934330826368042
sS'CNE'
p2858
F0.014183708165347064
sS'UJ'
p2859
F0.00947847347031298
sS'UD'
p2860
F0.01233004003139612
sS'UA'
p2861
F0.0027328850615390664
sS'DBRG'
p2862
F0.0047436315566689105
sS'NRZB'
p2863
F0.034137991128680434
sS'MMY'
p2864
F0.009178801939620227
sS'IDR'
p2865
F0.02336638282777048
sS'IDH'
p2866
F0.0086227223341636
sS'IDG'
p2867
F0.009633328289123494
sS'PMT'
p2868
F0.0013155598049844751
sS'PMU'
p2869
F0.010227808447754286
sS'PMP'
p2870
F0.00382159709960195
sS'CGL'
p2871
F0.028731318602457395
sS'PMR'
p2872
F0.0006648710498053337
sS'VRB'
p2873
F0.005544086841610144
sS'PMY'
p2874
F0.01578775603893744
sS'ULG'
p2875
F0.010152037693690193
sS'CGY'
p2876
F0.0026924064423457243
sS'UDGR'
p2877
F0.09847379765069209
sS'KCA'
p2878
F0.01181358502380153
sS'KPZ'
p2879
F0.010272032266342154
sS'TVI'
p2880
F0.0020387345689720977
sS'PMN'
p2881
F0.050077454621996594
sS'CGR'
p2882
F0.0004004389167356088
sS'PMK'
p2883
F0.0027173875330479013
sS'VHGN'
p2884
F0.012859542525409542
sS'MINJ'
p2885
F0.003603252384539467
sS'CUR'
p2886
F0.018371495010836764
sS'MINA'
p2887
F0.07904323505017585
sS'CUX'
p2888
F0.007663749649908036
sS'SBBJ'
p2889
F0.007213441961232969
sS'CUK'
p2890
F0.050898359660562005
sS'MMZ'
p2891
F0.009310522637194832
sS'KDRP'
p2892
F0.003395577884332924
sS'NOMD'
p2893
F0.0013596189921055127
sS'KRLR'
p2894
F0.12172398170198204
sS'TATA'
p2895
F0.013597310370273442
sS'KRLI'
p2896
F0.006103713161565204
sS'PNGM'
p2897
F0.0020387345689720977
sS'DINR'
p2898
F0.017440363762384246
sS'AIT'
p2899
F0.051193839721124505
sS'NSU'
p2900
F0.00021104781026089764
sS'MSZ'
p2901
F0.0004463250572272234
sS'KART'
p2902
F0.004073305622827166
sS'CJ'
p2903
F0.0018244694886854634
sS'MSW'
p2904
F0.059847427446434495
sS'MST'
p2905
F0.003133317614943579
sS'BPZ'
p2906
F6.939191861715785e-06
sS'MSR'
p2907
F0.0010809303791267833
sS'CIL'
p2908
F0.004182923150492835
sS'ASAF'
p2909
F0.01057139307400158
sS'NDJ'
p2910
F0.01459131189114373
sS'MSK'
p2911
F0.05356367239572257
sS'MSH'
p2912
F0.012662300650811052
sS'DAA'
p2913
F0.029563279597268743
sS'DAB'
p2914
F0.0520050235700206
sS'BRJN'
p2915
F0.031524585561491875
sS'SRJ'
p2916
F0.04135649417535946
sS'AQG'
p2917
F0.0013596189921055127
sS'BCA'
p2918
F0.004347169449519337
sS'DAS'
p2919
F0.0027173875330479013
sS'BTJL'
p2920
F0.014043881637402719
sS'BCRD'
p2921
F0.006103713161565204
sS'DWR'
p2922
F0.008549191949465355
sS'DWP'
p2923
F0.08373882797028699
sS'SRI'
p2924
F0.04344538806439163
sS'DWX'
p2925
F0.0027173875330479013
sS'ULT'
p2926
F0.013321858993804074
sS'TUVR'
p2927
F0.0064316751231516265
sS'SNTD'
p2928
F0.009827985536448345
sS'ULL'
p2929
F0.012468523537063656
sS'ULB'
p2930
F0.015597741024772733
sS'DWK'
p2931
F0.0013596189921055127
sS'DWO'
p2932
F0.0013596189921055127
sS'ULD'
p2933
F0.0028514310215348236
sS'PKW'
p2934
F0.0051137573038713855
sS'PTRE'
p2935
F0.005245688909252077
sS'ABKP'
p2936
F0.0
sS'PTRU'
p2937
F0.07646120069395086
sS'NGG'
p2938
F0.0054539941222884435
sS'SELU'
p2939
F0.005201601435001138
sS'PTRD'
p2940
F0.003103887585946301
sS'IJK'
p2941
F0.01872712123994176
sS'KTV'
p2942
F0.08746346398489094
s.