(dp0
S'SSPN'
p1
F0.0012530825277249956
sS'AGN'
p2
F0.000339496106727855
sS'NYY'
p3
F0.0006711638849976922
sS'AGI'
p4
F0.0003388638692471209
sS'NYP'
p5
F0.00019874984717604025
sS'AGC'
p6
F0.040190289148743896
sS'NYN'
p7
F0.0003113096236648528
sS'NYO'
p8
F7.007076255806948e-05
sS'AGY'
p9
F0.0
sS'NYG'
p10
F0.002634705093455435
sS'KOTA'
p11
F0.10979235692688223
sS'SPX'
p12
F0.003395577884332924
sS'KYJ'
p13
F0.0009655604855996686
sS'BWR'
p14
F0.0
sS'SRY'
p15
F1.3492873064447356e-06
sS'BWT'
p16
F0.0029678165143298585
sS'KYN'
p17
F0.04271741074168046
sS'KYM'
p18
F0.0
sS'SPP'
p19
F0.0003505705153040818
sS'SPT'
p20
F0.0002862410541669322
sS'KYF'
p21
F0.0
sS'KYE'
p22
F0.0005487238158731804
sS'NDT'
p23
F0.0
sS'NGA'
p24
F0.0006770338193080702
sS'SPJ'
p25
F0.01918482028291103
sS'SPK'
p26
F0.00022652606321911983
sS'NDW'
p27
F0.0
sS'SPN'
p28
F0.005314339958002348
sS'BWH'
p29
F0.0
sS'BWI'
p30
F0.0
sS'KYQ'
p31
F0.02139760335733566
sS'SPC'
p32
F2.240551234715374e-06
sS'BWL'
p33
F0.00025215519588744683
sS'BWM'
p34
F0.0011492425747215962
sS'BWN'
p35
F0.006131675813891563
sS'KYT'
p36
F0.0
sS'UMRI'
p37
F3.1006071572587186e-06
sS'GR'
p38
F0.0037540967292324255
sS'GP'
p39
F0.0007978148423653245
sS'TLHD'
p40
F0.0006392427055261707
sS'BYT'
p41
F0.0007783222059892335
sS'TRTR'
p42
F0.0004583358420731564
sS'GY'
p43
F0.0018401529169444193
sS'BYN'
p44
F0.0
sS'BYL'
p45
F0.0
sS'GD'
p46
F0.009761490685488362
sS'GB'
p47
F0.0
sS'BYD'
p48
F0.0
sS'GK'
p49
F0.008259889950925525
sS'TLHR'
p50
F0.00011165397830994404
sS'GH'
p51
F0.0
sS'SNF'
p52
F0.0
sS'MAP'
p53
F0.0016558706077009215
sS'MAS'
p54
F0.019410664634783564
sS'MAU'
p55
F0.00911321740455728
sS'PQE'
p56
F0.002038734568972097
sS'JNU'
p57
F0.0020127666826608476
sS'MAY'
p58
F3.4392914821144604e-05
sS'SNL'
p59
F0.0
sS'PQL'
p60
F0.0
sS'SNK'
p61
F0.0
sS'PQN'
p62
F2.3023790952927936e-05
sS'SNI'
p63
F0.0002806475849185565
sS'SNV'
p64
F0.000903448006138717
sS'SNT'
p65
F1.2174426610721357e-05
sS'MAD'
p66
F7.710213179684205e-08
sS'SNP'
p67
F0.0014469608401097062
sS'JND'
p68
F0.004073305622827166
sS'MAI'
p69
F0.0
sS'JNH'
p70
F0.002957291382378642
sS'JNO'
p71
F0.003395577884332924
sS'MAO'
p72
F0.04762004745071516
sS'JNL'
p73
F0.0
sS'BEH'
p74
F0.0
sS'TRAN'
p75
F0.00038812851828206105
sS'BEB'
p76
F0.004073305622827166
sS'SVRP'
p77
F1.927553294921051e-07
sS'BEA'
p78
F0.0010201383058040172
sS'BEG'
p79
F2.3130639539052615e-07
sS'BEY'
p80
F0.0
sS'BER'
p81
F0.000639082345321449
sS'BSRX'
p82
F0.00029693564107022725
sS'MLGH'
p83
F8.416799144650977e-06
sS'SQF'
p84
F0.0003390566245766129
sS'VLI'
p85
F0.0
sS'TTR'
p86
F4.966478746742298e-06
sS'GMDN'
p87
F0.0
sS'LSI'
p88
F0.0003423720162438772
sS'VLY'
p89
F0.0009692884078463022
sS'MPLM'
p90
F0.0
sS'LSR'
p91
F0.0009125483620136715
sS'TTL'
p92
F0.0054273732614433055
sS'TTB'
p93
F3.0840852718736817e-06
sS'VLR'
p94
F0.0011854968455086712
sS'BIRD'
p95
F0.0
sS'LSX'
p96
F0.0
sS'ZN'
p97
F0.0009495435799234632
sS'KSRA'
p98
F0.0
sS'SPZ'
p99
F3.6623512603499975e-07
sS'GRX'
p100
F0.0
sS'GRY'
p101
F0.0
sS'GRD'
p102
F0.0003399047480263782
sS'MLJ'
p103
F2.3130639539052615e-07
sS'GRA'
p104
F0.0
sS'GRO'
p105
F0.000339428183421272
sS'GRL'
p106
F0.0
sS'ZW'
p107
F3.909954499438846e-05
sS'BSDP'
p108
F0.0
sS'NMM'
p109
F0.008129957185186214
sS'NOI'
p110
F0.00013142162518241078
sS'NOK'
p111
F0.00030873394214400333
sS'KKU'
p112
F0.0
sS'KKW'
p113
F0.0013797632450516764
sS'KKP'
p114
F0.0027229030891189397
sS'KKM'
p115
F0.0
sS'HLN'
p116
F0.00037070917136260915
sS'KKN'
p117
F0.00033967344163098766
sS'KKI'
p118
F0.0
sS'TDU'
p119
F0.001201636965381962
sS'KKJ'
p120
F1.349287306444736e-07
sS'APDJ'
p121
F0.002422920702296092
sS'KKA'
p122
F0.0
sS'NOQ'
p123
F0.00022643932332082635
sS'KKB'
p124
F0.0
sS'VAPM'
p125
F0.0
sS'STPD'
p126
F0.0
sS'VAPI'
p127
F0.0015194855493625276
sS'BZLE'
p128
F0.0
sS'VBL'
p129
F0.0003251791730080018
sS'VBW'
p130
F1.278996292850589e-05
sS'PRNR'
p131
F0.0019605130384335564
sS'CTC'
p132
F0.013546807722229562
sS'CTO'
p133
F0.0
sS'WHM'
p134
F0.0020642269094158176
sS'PNDM'
p135
F0.0
sS'ABSA'
p136
F0.0027173875330479013
sS'GKC'
p137
F0.0006778178578690691
sS'DBEC'
p138
F0.0
sS'RLO'
p139
F0.0
sS'LMP'
p140
F0.008932066335930373
sS'LMT'
p141
F1.2387884363264108e-05
sS'SPE'
p142
F5.713181996440203e-06
sS'LMK'
p143
F0.0003404290425225968
sS'LMN'
p144
F0.0
sS'LMO'
p145
F0.002038734568972098
sS'LMG'
p146
F0.054920858516819625
sS'DPU'
p147
F0.0
sS'MOTC'
p148
F0.0
sS'DPS'
p149
F0.008035279856804018
sS'DPR'
p150
F0.0003223107758563559
sS'MOTH'
p151
F0.00017471370035574625
sS'MJF'
p152
F0.0006957810888175622
sS'MVLK'
p153
F9.544509610431933e-06
sS'UKL'
p154
F0.0
sS'DPA'
p155
F2.4144649393592975e-05
sS'SDGM'
p156
F0.0022442618817957835
sS'DPL'
p157
F0.0
sS'DPJ'
p158
F0.001302251936603837
sS'UKA'
p159
F0.0
sS'LD'
p160
F0.014350581903710777
sS'LC'
p161
F0.011624588431473579
sS'LM'
p162
F0.0003382853490757929
sS'BNLW'
p163
F0.00034494462399728415
sS'SGDM'
p164
F0.0
sS'LS'
p165
F5.524367743243735e-06
sS'BLPU'
p166
F0.0006787061645467435
sS'BLPR'
p167
F0.0006784409332133624
sS'ANTU'
p168
F0.0006182629662804325
sS'CLDR'
p169
F0.002795873413752569
sS'RDHP'
p170
F0.0003372114053438608
sS'LRD'
p171
F0.0
sS'NLDA'
p172
F0.0013229976711872425
sS'KWAE'
p173
F0.0006754883651034555
sS'PNP'
p174
F0.0023158203166481796
sS'NLDM'
p175
F0.0027176188394432916
sS'BINA'
p176
F0.007252360782250405
sS'PNW'
p177
F0.0
sS'PNK'
p178
F4.2406172488263126e-07
sS'BKNG'
p179
F0.0
sS'PNC'
p180
F0.0003589172829629595
sS'SRNR'
p181
F0.0
sS'PNE'
p182
F0.0
sS'PND'
p183
F0.004162353542075475
sS'PNF'
p184
F3.6578803787021846e-05
sS'NNGE'
p185
F0.0
sS'CTKT'
p186
F0.0017598708215528613
sS'DJG'
p187
F0.0
sS'GSP'
p188
F7.343978053649206e-06
sS'JOP'
p189
F0.0018555172431109976
sS'JOQ'
p190
F0.0
sS'PRG'
p191
F0.0036934117142583553
sS'PRF'
p192
F9.396332638261047e-05
sS'SAN'
p193
F0.0013631214418118778
sS'PRB'
p194
F0.0
sS'SAC'
p195
F0.002717387533047901
sS'PRL'
p196
F0.0
sS'SAA'
p197
F0.0
sS'JBP'
p198
F0.16351433709642663
sS'SAG'
p199
F9.282142904956194e-05
sS'PRH'
p200
F0.0
sS'PRT'
p201
F0.0
sS'JOB'
p202
F0.0003182220765092067
sS'JOC'
p203
F0.000386735494160752
sS'PRP'
p204
F0.0005005876784555409
sS'PRR'
p205
F0.007130304750598493
sS'SAP'
p206
F0.00042932699434603086
sS'SAW'
p207
F1.768392465711856e-06
sS'SAV'
p208
F0.00033941900459605816
sS'SAU'
p209
F0.0013509945679345242
sS'NRKR'
p210
F0.0016387531630023947
sS'MAQ'
p211
F0.0018938076591728601
sS'GRRU'
p212
F0.0
sS'CHE'
p213
F0.0030203884807410036
sS'JNR'
p214
F7.717923392863888e-06
sS'MRT'
p215
F0.0
sS'CHI'
p216
F0.0014964908260545996
sS'JAT'
p217
F0.0022637571406211804
sS'SKTN'
p218
F0.0
sS'MRR'
p219
F0.00044549740140646405
sS'KASR'
p220
F0.0003397890948286829
sS'MRL'
p221
F0.00014709713239605541
sS'JAO'
p222
F0.0006785731082964428
sS'CHR'
p223
F0.0
sS'JAM'
p224
F0.00744081447607945
sS'JAJ'
p225
F0.003988279380120627
sS'CHV'
p226
F4.2406172488263126e-07
sS'MRK'
p227
F0.0016924265627125219
sS'MRE'
p228
F2.3130639539052615e-07
sS'CHZ'
p229
F0.0
sS'MRG'
p230
F0.0006800408024481469
sS'MRA'
p231
F9.651102390933186e-05
sS'MRB'
p232
F0.0
sS'JAA'
p233
F0.00011334978953792831
sS'BRKA'
p234
F0.012236487038003263
sS'BTKP'
p235
F0.0
sS'DBA'
p236
F0.0003399047480263782
sS'VSKP'
p237
F0.002931486198647977
sS'DBB'
p238
F0.0
sS'DBD'
p239
F4.920588649297544e-05
sS'DBG'
p240
F0.0067504103507925965
sS'DBY'
p241
F0.0013596189921055127
sS'SNN'
p242
F3.6623512603499975e-07
sS'API'
p243
F0.002038734568972098
sS'APN'
p244
F0.00033144857172155966
sS'DBR'
p245
F0.00030652597298587284
sS'DBU'
p246
F0.0
sS'ATP'
p247
F0.0003896445829096994
sS'VNUP'
p248
F0.0
sS'RPRD'
p249
F0.00012396606431296762
sS'TKG'
p250
F0.00044204910150132505
sS'TKD'
p251
F9.111909290081586e-05
sS'TKE'
p252
F0.004073305622827166
sS'HMY'
p253
F0.004073305622827166
sS'NLV'
p254
F0.0011553457055820102
sS'TKN'
p255
F0.0
sS'TKJ'
p256
F0.00044528893449724273
sS'JNA'
p257
F0.0
sS'TKH'
p258
F0.004073305622827166
sS'HML'
p259
F0.006103713161565204
sS'DAL'
p260
F0.010276419105939986
sS'NLE'
p261
F0.0
sS'NLD'
p262
F0.0013596189921055123
sS'TKQ'
p263
F0.0
sS'NLI'
p264
F0.0
sS'HMG'
p265
F1.1117790420262854e-05
sS'DLB'
p266
F0.0002275524728320652
sS'MAG'
p267
F0.0006807010706489574
sS'AFK'
p268
F0.0
sS'DLK'
p269
F0.0009528034293771003
sS'GCH'
p270
F0.0
sS'DLI'
p271
F0.03293932310958522
sS'SNQ'
p272
F0.0
sS'DLO'
p273
F0.00032207369386171546
sS'DLN'
p274
F0.0010589100560067556
sS'DLR'
p275
F0.0
sS'DLQ'
p276
F2.1395841573623665e-06
sS'SNDD'
p277
F1.3878383723431568e-07
sS'HPU'
p278
F0.006056675236080308
sS'AFR'
p279
F0.0
sS'ASV'
p280
F0.0035997173587842437
sS'KXH'
p281
F0.0010055559752039321
sS'BTT'
p282
F0.0018142409561063685
sS'BTW'
p283
F0.0
sS'BTV'
p284
F2.8482714355852584e-05
sS'BTQ'
p285
F0.0020387345689720977
sS'BTP'
p286
F0.0010220448729667442
sS'BTS'
p287
F4.870522231674242e-05
sS'MAM'
p288
F0.0
sS'BTY'
p289
F0.006779590448896321
sS'BTX'
p290
F0.0
sS'SSR'
p291
F0.0
sS'SSM'
p292
F0.00037171535994016307
sS'BTD'
p293
F0.012517377147136573
sS'AJNI'
p294
F2.8913299423815766e-07
sS'BTA'
p295
F0.00045462115482026945
sS'SNX'
p296
F0.0
sS'BTC'
p297
F0.0
sS'BTO'
p298
F0.0
sS'MAN'
p299
F0.0008672433993176987
sS'BTI'
p300
F0.018413746368962206
sS'BTH'
p301
F0.0012981825361343927
sS'BTK'
p302
F0.0
sS'SSB'
p303
F0.0017407964649998231
sS'KKLR'
p304
F0.0006406225506000848
sS'DGI'
p305
F0.0
sS'SLR'
p306
F0.0054273732614433055
sS'PGTN'
p307
F0.0
sS'KMME'
p308
F0.00010421560242996913
sS'RMR'
p309
F0.0
sS'RMP'
p310
F0.0003371682471826187
sS'RMT'
p311
F0.0
sS'RMU'
p312
F0.003448975035560094
sS'LNT'
p313
F2.8681993028425235e-06
sS'GUD'
p314
F0.0
sS'SEE'
p315
F0.0016075265828391855
sS'LNR'
p316
F0.0
sS'RMB'
p317
F0.0
sS'LNL'
p318
F0.0015326309075328298
sS'RMA'
p319
F0.0011368951752291818
sS'RMF'
p320
F0.0
sS'BGVN'
p321
F0.0
sS'LNK'
p322
F3.7246271391153564e-05
sS'TETA'
p323
F1.927553294921051e-07
sS'KGLE'
p324
F0.0008863484904991387
sS'RMN'
p325
F0.0
sS'RMM'
p326
F0.0003399047480263783
sS'BBN'
p327
F0.0
sS'BBM'
p328
F0.0
sS'GUH'
p329
F0.0
sS'BBK'
p330
F0.00424114805829167
sS'KJG'
p331
F0.0
sS'KJH'
p332
F3.643075727400787e-06
sS'KJI'
p333
F0.0
sS'KJN'
p334
F0.0011433395608017323
sS'BBA'
p335
F0.0005360356302332251
sS'KJM'
p336
F0.002407472309330917
sS'KJT'
p337
F0.001119809699023103
sS'BBU'
p338
F0.0009979454790893488
sS'KJY'
p339
F0.0003408786926663919
sS'BBS'
p340
F0.05639764132343532
sS'BSQP'
p341
F0.0
sS'MDNR'
p342
F3.2498548552368925e-06
sS'TUP'
p343
F0.0010055590429505915
sS'VMD'
p344
F8.095723838668416e-07
sS'MBNL'
p345
F0.0006396943815570475
sS'TUV'
p346
F0.0013596189921055127
sS'DNKL'
p347
F0.0017049606985053074
sS'GUP'
p348
F0.0006800408024481469
sS'TUL'
p349
F0.0002916809777706952
sS'MBNR'
p350
F0.0016511894054751502
sS'TUN'
p351
F0.0
sS'TUA'
p352
F0.0
sS'BWIP'
p353
F0.0006800408024481469
sS'KATL'
p354
F1.272185174647894e-06
sS'KRND'
p355
F8.7556829531021e-05
sS'DRLA'
p356
F0.0
sS'KPNA'
p357
F0.0
sS'KRNR'
p358
F0.00034482937137597105
sS'BEHS'
p359
F0.003735366979161606
sS'BEHR'
p360
F0.0015967948753628613
sS'ANSB'
p361
F0.003734904366370826
sS'POZ'
p362
F3.6623512603499975e-07
sS'CLJ'
p363
F2.709405626641885e-06
sS'TKRI'
p364
F0.003730071990260459
sS'POT'
p365
F0.0017983372815131757
sS'JAIS'
p366
F1.0871400583354729e-06
sS'BET'
p367
F3.6623512603499975e-07
sS'FYZ'
p368
F0.0
sS'CYN'
p369
F0.0
sS'CDG'
p370
F0.01068683210389315
sS'SKGH'
p371
F0.0
sS'FKM'
p372
F0.004638477741771217
sS'FKA'
p373
F0.0
sS'FKG'
p374
F0.004745443456766136
sS'CWA'
p375
F0.0003399047480263782
sS'SMET'
p376
F0.0020387345689720977
sS'WKI'
p377
F0.00019952954277929896
sS'JNRD'
p378
F0.0
sS'QSR'
p379
F0.0
sS'WKR'
p380
F0.0005860704470090445
sS'PAP'
p381
F0.00020660686559696302
sS'KNPS'
p382
F0.008698963992720991
sS'PAR'
p383
F0.0010865899599087027
sS'PAU'
p384
F0.00019120502561257438
sS'PAV'
p385
F6.939191861715785e-07
sS'CKB'
p386
F0.00033498052525316726
sS'PAY'
p387
F0.0021272437415128654
sS'PAZ'
p388
F0.0002370916946969991
sS'CKI'
p389
F4.2406172488263126e-07
sS'CKK'
p390
F0.0013596189921055127
sS'CKU'
p391
F1.1546044236577096e-06
sS'KATI'
p392
F0.0013596189921055127
sS'DRZ'
p393
F0.0
sS'PAD'
p394
F0.0
sS'CKP'
p395
F0.014150333733514887
sS'CKR'
p396
F0.0
sS'PAK'
p397
F0.0013565581581588488
sS'KHTU'
p398
F0.0
sS'PAN'
p399
F3.401390198883763e-07
sS'PAO'
p400
F0.0
sS'AWY'
p401
F0.0003547854594631686
sS'BMCK'
p402
F0.0
sS'PNYA'
p403
F0.00022733095496847193
sS'AWR'
p404
F0.004702535843035211
sS'AMSA'
p405
F0.0
sS'DCA'
p406
F5.782659884763153e-07
sS'MQS'
p407
F8.228712580190258e-06
sS'MQR'
p408
F0.0
sS'MQU'
p409
F0.0
sS'JWO'
p410
F0.0
sS'MQX'
p411
F1.8456157423732366e-05
sS'AWB'
p412
F0.0075493749527646955
sS'SGNR'
p413
F0.0015027735242284363
sS'BSYA'
p414
F0.0
sS'UJP'
p415
F5.784612471217751e-06
sS'UJN'
p416
F0.021042596524095517
sS'DQG'
p417
F0.0003233894713954946
sS'GRCP'
p418
F0.0020387345689720977
sS'DQN'
p419
F0.001983423909334762
sS'UJA'
p420
F2.2032184492544354e-06
sS'ANAS'
p421
F5.589904555271049e-07
sS'PLCJ'
p422
F0.007817605440186467
sS'ALMR'
p423
F5.204393896286838e-07
sS'BLQR'
p424
F0.0
sS'BGBR'
p425
F0.0
sS'HCR'
p426
F0.0009884248731297622
sS'GBD'
p427
F2.6985746128894714e-07
sS'DMC'
p428
F0.0020387345689720977
sS'OBVP'
p429
F1.1565319769526308e-07
sS'GBA'
p430
F0.0
sS'DMM'
p431
F0.011995338302532924
sS'DMN'
p432
F9.880358503370011e-05
sS'DMO'
p433
F0.0007429025665237253
sS'DMP'
p434
F0.008129957185186214
sS'DMR'
p435
F0.0054273732614433055
sS'DMV'
p436
F0.02551839618313607
sS'DMW'
p437
F0.00012554299365234796
sS'JEUR'
p438
F5.191276520617507e-06
sS'KL'
p439
F2.636892907451996e-06
sS'GBX'
p440
F0.0
sS'BUX'
p441
F2.5443703492957878e-06
sS'BUP'
p442
F0.00031199943856797754
sS'BUQ'
p443
F0.006103713161565204
sS'BUW'
p444
F0.0008926746891092586
sS'BUT'
p445
F0.0003399047480263782
sS'DRD'
p446
F0.0019184159606382234
sS'BUH'
p447
F0.00019053244941567664
sS'PRLI'
p448
F0.0008710987691527424
sS'KPY'
p449
F1.7281892112749312e-06
sS'BUA'
p450
F0.0
sS'BUG'
p451
F0.005850801371755611
sS'RNPR'
p452
F0.0
sS'RDUM'
p453
F0.0
sS'KPRD'
p454
F0.0
sS'JMKT'
p455
F0.002268158960605703
sS'ZB'
p456
F0.001763049098265154
sS'MOZ'
p457
F0.0007512337701766022
sS'JLW'
p458
F0.000123061905379156
sS'KURJ'
p459
F0.0
sS'JLS'
p460
F0.0
sS'JLR'
p461
F0.0027229388865372744
sS'BRVR'
p462
F0.0013596189921055127
sS'MOR'
p463
F0.0
sS'ACND'
p464
F0.0
sS'PSA'
p465
F0.0016467421583859258
sS'MOU'
p466
F0.00055593023243223
sS'MOT'
p467
F0.0
sS'JLD'
p468
F3.6670408055956487e-06
sS'MOI'
p469
F1.1565319769526308e-07
sS'MOO'
p470
F0.0
sS'MON'
p471
F1.590873986074841e-05
sS'MOM'
p472
F0.0
sS'MOL'
p473
F0.0
sS'PSR'
p474
F0.0
sS'JLL'
p475
F0.0011953743596867699
sS'NRLR'
p476
F0.003224224940600251
sS'JLN'
p477
F0.0
sS'MOG'
p478
F1.927553294921051e-07
sS'MOF'
p479
F0.0
sS'HNA'
p480
F2.509809646465377e-05
sS'ETP'
p481
F0.0003483609243311968
sS'KMD'
p482
F1.927553294921051e-07
sS'BCH'
p483
F0.0006467234765637015
sS'ETW'
p484
F0.0014460465943199761
sS'OMLF'
p485
F0.0003380735723962032
sS'MULK'
p486
F0.0
sS'KML'
p487
F0.000653798295565877
sS'DL'
p488
F0.0
sS'BSPX'
p489
F0.003983089203499123
sS'KMU'
p490
F0.00014474115526716896
sS'KMT'
p491
F0.006112772248564071
sS'KMS'
p492
F7.710213179684205e-08
sS'BCY'
p493
F0.0003325870284734757
sS'KMQ'
p494
F0.0003397890948286829
sS'BLD'
p495
F0.0004590822448096494
sS'BCT'
p496
F1.1565319769526308e-07
sS'BCU'
p497
F0.0
sS'BSPR'
p498
F0.0006800408024481469
sS'KMZ'
p499
F0.007385172197421927
sS'ETM'
p500
F0.0
sS'VRR'
p501
F1.4148241184720517e-06
sS'TORI'
p502
F0.0020106241348370707
sS'TVP'
p503
F0.00018078241996392707
sS'TVR'
p504
F0.002849181771774348
sS'TVL'
p505
F0.0
sS'VRG'
p506
F0.0008767203862554815
sS'BPH'
p507
F0.0
sS'GAR'
p508
F0.00046036586680776756
sS'VRI'
p509
F0.05046216393992902
sS'VRH'
p510
F0.0
sS'DD'
p511
F0.002151809755207
sS'TVC'
p512
F0.0032286392903982373
sS'VRL'
p513
F0.0010198298972768298
sS'SRC'
p514
F0.0002179790424065427
sS'CI'
p515
F0.001358292835438607
sS'CH'
p516
F0.0034376954422176034
sS'SRF'
p517
F0.0006800408024481469
sS'SRE'
p518
F0.0026389510051312457
sS'CC'
p519
F0.0006860917009832067
sS'RDDE'
p520
F0.0
sS'SRO'
p521
F2.3516150198036827e-06
sS'CE'
p522
F2.3130639539052615e-07
sS'CD'
p523
F0.0025131585126945506
sS'SRR'
p524
F0.019106022182197466
sS'PIP'
p525
F0.00023648883540579085
sS'SRP'
p526
F0.00017908744551202509
sS'SRW'
p527
F0.0002891060977807647
sS'SRT'
p528
F0.006718320295063684
sS'SRU'
p529
F4.222868383896348e-06
sS'NGAN'
p530
F0.0020387345689720977
sS'ADIJ'
p531
F0.0
sS'SORO'
p532
F7.225571208389771e-06
sS'CW'
p533
F0.0
sS'CT'
p534
F0.0006762251233292997
sS'MGLP'
p535
F0.0
sS'NMT'
p536
F0.0
sS'TDO'
p537
F3.7061648527043923e-06
sS'TDN'
p538
F0.0
sS'TDL'
p539
F0.002838309184266565
sS'HLX'
p540
F3.4695959308578923e-07
sS'NMZ'
p541
F5.551353489372627e-07
sS'NMX'
p542
F0.0
sS'TDD'
p543
F0.000603888933627034
sS'BTTR'
p544
F0.0
sS'MYG'
p545
F0.0003401360544217687
sS'GADH'
p546
F0.001286565952135384
sS'TDP'
p547
F2.8971126022663397e-06
sS'NMJ'
p548
F0.000680040802448147
sS'NMK'
p549
F0.0005151652715023425
sS'NMH'
p550
F0.0013884767291920605
sS'PBKS'
p551
F0.002038734568972098
sS'BGUA'
p552
F6.939191861715785e-07
sS'CVR'
p553
F0.0
sS'CVP'
p554
F0.010611273826924268
sS'PDKN'
p555
F2.3593252329833668e-06
sS'VARD'
p556
F6.65756881537992e-06
sS'PDKT'
p557
F0.0028484821881811593
sS'FHT'
p558
F0.0
sS'SDGH'
p559
F0.0003242286958279181
sS'SWR'
p560
F0.0
sS'KKAH'
p561
F7.710213179684204e-07
sS'QRP'
p562
F0.0
sS'KTMA'
p563
F0.003395577884332924
sS'WJR'
p564
F8.782299964668867e-07
sS'VG'
p565
F0.013152452322663781
sS'KMNR'
p566
F0.0
sS'HPP'
p567
F0.002008922969093752
sS'VM'
p568
F0.0629632177774902
sS'VN'
p569
F0.0
sS'HPT'
p570
F0.0020136144483803705
sS'VR'
p571
F5.400652720080671e-05
sS'VS'
p572
F0.0003397505437627845
sS'VV'
p573
F3.4695959308578923e-07
sS'KMNC'
p574
F0.00021309789547310697
sS'RJT'
p575
F0.021576136697312325
sS'RJR'
p576
F0.0003202414632337288
sS'RJP'
p577
F0.0013476199661615678
sS'RJY'
p578
F0.012891298896095207
sS'RJG'
p579
F0.0
sS'CNDB'
p580
F3.271333306237442e-06
sS'RJA'
p581
F0.00033990474802637823
sS'RJO'
p582
F5.782659884763154e-08
sS'RJN'
p583
F1.4726507173196835e-06
sS'CNDM'
p584
F0.0
sS'RJK'
p585
F0.0
sS'WDA'
p586
F0.00033620384570012975
sS'SIHO'
p587
F8.095723838668416e-07
sS'MWX'
p588
F0.0
sS'DRU'
p589
F0.0
sS'WDM'
p590
F4.2406172488263126e-07
sS'DRI'
p591
F4.626127907810523e-07
sS'DRH'
p592
F0.00033704379999545484
sS'WDR'
p593
F1.1565319769526308e-07
sS'DRL'
p594
F0.000540815214357522
sS'KRSL'
p595
F0.0006800408024481469
sS'KRSA'
p596
F0.0
sS'THAN'
p597
F0.0003347898688578315
sS'SIOB'
p598
F0.005611467394978626
sS'CTR'
p599
F0.0
sS'BLND'
p600
F0.001026185418441811
sS'AYRN'
p601
F0.0
sS'ALLP'
p602
F0.0029056079056135457
sS'HFG'
p603
F4.626127907810523e-07
sS'RXL'
p604
F5.289658734202392e-05
sS'BGKT'
p605
F0.0014335249268773492
sS'BIY'
p606
F5.9411586777307296e-05
sS'SVHE'
p607
F0.0
sS'BAND'
p608
F0.00013946201302798787
sS'KRAR'
p609
F0.0010175430245383335
sS'SMPA'
p610
F0.0
sS'MMVR'
p611
F0.004657281258520907
sS'SMPR'
p612
F0.0
sS'STLR'
p613
F0.0
sS'REN'
p614
F0.0
sS'KHED'
p615
F2.6985746128894714e-07
sS'SRPJ'
p616
F0.0
sS'MLB'
p617
F0.0
sS'HX'
p618
F0.002527970454582112
sS'URGA'
p619
F0.0006798094960527562
sS'PAIL'
p620
F0.0
sS'GOL'
p621
F3.8551065898421027e-07
sS'RDRA'
p622
F0.002717734492640987
sS'HP'
p623
F7.710213179684205e-08
sS'HW'
p624
F0.005748246878785233
sS'SURI'
p625
F0.0007067556879501311
sS'HN'
p626
F0.0
sS'DPUR'
p627
F0.0013596189921055127
sS'HG'
p628
F0.0010246110726071596
sS'HD'
p629
F0.00013805024096471467
sS'MLG'
p630
F0.0
sS'SCM'
p631
F2.5000616566722776e-06
sS'SCL'
p632
F0.0
sS'SCI'
p633
F4.4787459164974905e-06
sS'GOK'
p634
F1.542042635936841e-07
sS'PTH'
p635
F0.0
sS'MNP'
p636
F0.00022903229201933457
sS'MNQ'
p637
F1.8438424089701942e-06
sS'JMP'
p638
F0.011608604939579692
sS'JMV'
p639
F0.0006779590448896322
sS'PTB'
p640
F0.0
sS'MNV'
p641
F0.00022855627434291973
sS'JMU'
p642
F0.0009138955144409271
sS'JMK'
p643
F0.0
sS'MNJ'
p644
F0.0006810816812274043
sS'MNM'
p645
F0.004265777773992577
sS'MNO'
p646
F0.0
sS'SCT'
p647
F0.0
sS'PTU'
p648
F0.0002686524591795104
sS'MND'
p649
F0.0
sS'MNE'
p650
F0.002818730191881848
sS'MNF'
p651
F0.0
sS'CTND'
p652
F0.0
sS'CJN'
p653
F0.0
sS'PBP'
p654
F0.0
sS'PBR'
p655
F0.0005099400068312489
sS'GOA'
p656
F0.0013596189921055125
sS'SRBA'
p657
F9.252255815621046e-07
sS'LFG'
p658
F0.02054933726862614
sS'AJU'
p659
F0.0
sS'PBE'
p660
F0.004752883812484531
sS'SUNR'
p661
F0.013991435425748598
sS'GOC'
p662
F0.00023728074952023855
sS'PBM'
p663
F0.0
sS'CAPE'
p664
F0.0
sS'PBN'
p665
F0.0033526798992446253
sS'PBH'
p666
F0.009944359987472881
sS'RWTB'
p667
F0.00947847347031298
sS'MPA'
p668
F0.0
sS'CDMR'
p669
F0.0
sS'MPL'
p670
F0.00015698759895070946
sS'AMPA'
p671
F0.00033018987941997607
sS'AJJ'
p672
F0.0034364846890631226
sS'BPRD'
p673
F0.0020052738959608065
sS'AVN'
p674
F0.0
sS'MPU'
p675
F5.7180119899335826e-05
sS'AVD'
p676
F1.1269101342792343e-05
sS'GOY'
p677
F6.553681202731574e-07
sS'BTIC'
p678
F0.0
sS'BPRH'
p679
F0.0013582311537331693
sS'MPY'
p680
F0.0
sS'SUD'
p681
F1.4037773639499263e-05
sS'SUA'
p682
F0.0
sS'DHW'
p683
F3.1804629366197347e-06
sS'SUR'
p684
F0.013053090376985809
sS'DEEG'
p685
F1.7629099489843196e-05
sS'MLY'
p686
F0.000497861126343252
sS'TEL'
p687
F0.001719750510041193
sS'TEN'
p688
F0.013290932092044263
sS'TEA'
p689
F0.0009313913435423797
sS'NBQ'
p690
F0.08817958865351813
sS'GOP'
p691
F0.0
sS'NBI'
p692
F0.00030420347412965916
sS'NBH'
p693
F0.0001581394792521952
sS'NBL'
p694
F0.0
sS'NBA'
p695
F1.788049394674264e-05
sS'TET'
p696
F0.0
sS'NBD'
p697
F0.0036118405543039784
sS'BRWD'
p698
F0.00036751401830472323
sS'ADT'
p699
F1.5202153895781645e-05
sS'GMH'
p700
F2.698574612889472e-07
sS'DNA'
p701
F0.01638203416278099
sS'ADQ'
p702
F0.00023993467466810965
sS'DNM'
p703
F6.581724779907656e-05
sS'DNN'
p704
F0.0
sS'GMD'
p705
F0.0
sS'ADF'
p706
F1.2721851746478939e-06
sS'DNT'
p707
F0.0
sS'ADB'
p708
F0.0034682899744138875
sS'DNR'
p709
F0.002015929531823775
sS'GMS'
p710
F4.626127907810523e-07
sS'GMR'
p711
F1.3762730525736305e-06
sS'GLG'
p712
F0.0
sS'ADH'
p713
F1.1565319769526308e-07
sS'NAZJ'
p714
F0.0
sS'BRZ'
p715
F0.0
sS'KZT'
p716
F0.001997211621182196
sS'BRW'
p717
F0.0020387345689720977
sS'BRU'
p718
F0.0
sS'KZY'
p719
F0.000680040802448147
sS'BRS'
p720
F2.4527372536620436e-05
sS'BRR'
p721
F0.00010440450265287139
sS'KZB'
p722
F0.0020387345689720977
sS'GTNR'
p723
F0.0
sS'KZA'
p724
F3.084085271873682e-07
sS'BRK'
p725
F0.003907173406209236
sS'KZE'
p726
F0.0007593363168827039
sS'BRG'
p727
F0.0
sS'KZK'
p728
F0.0008470890417707289
sS'BRE'
p729
F0.0019031791389084944
sS'BRD'
p730
F0.0002738918629633896
sS'BRC'
p731
F0.1199530164382555
sS'TWB'
p732
F1.649746970996858e-05
sS'TWG'
p733
F0.0
sS'DISA'
p734
F0.0
sS'SEB'
p735
F2.9375912214596817e-06
sS'IPM'
p736
F0.0
sS'GJD'
p737
F0.00020085802553771134
sS'CNGR'
p738
F0.0009095508018255427
sS'BHKD'
p739
F0.0
sS'VEER'
p740
F0.0
sS'CHA'
p741
F0.0
sS'TLKH'
p742
F0.0
sS'RKD'
p743
F3.084085271873682e-07
sS'WIRR'
p744
F4.626127907810523e-07
sS'ODM'
p745
F0.0
sS'RKB'
p746
F0.0006729808588394182
sS'RKM'
p747
F0.00033741560808833916
sS'KLD'
p748
F0.0005372028663436881
sS'KLG'
p749
F1.1565319769526308e-07
sS'KLB'
p750
F0.0004654294728178043
sS'NWU'
p751
F0.0
sS'KLL'
p752
F2.0774328657586838e-05
sS'HOJ'
p753
F0.0
sS'KLJ'
p754
F1.1565319769526308e-07
sS'KLK'
p755
F0.008804446634144987
sS'KLT'
p756
F9.149489069503387e-05
sS'KLU'
p757
F0.0
sS'KLP'
p758
F0.0
sS'GOGH'
p759
F0.0012487962429672923
sS'PTK'
p760
F0.0017035495728707118
sS'DND'
p761
F0.00023067591015661325
sS'PTJ'
p762
F0.014063527617290553
sS'VST'
p763
F3.998453700186001e-05
sS'VSU'
p764
F0.0004481761118649817
sS'DSPN'
p765
F0.0
sS'SCE'
p766
F0.0027173875330479013
sS'VSG'
p767
F0.0
sS'BLAX'
p768
F0.0003397890948286829
sS'ORGA'
p769
F0.00022088709953952852
sS'SVKS'
p770
F0.004750570748530627
sS'BVNR'
p771
F0.0
sS'HCNR'
p772
F0.0021224744092292296
sS'OYR'
p773
F0.0
sS'SHSK'
p774
F6.7834674648170785e-06
sS'LTRR'
p775
F0.0019949232597191867
sS'SVKD'
p776
F0.0013596189921055131
sS'PTA'
p777
F0.0003190628964926745
sS'GZH'
p778
F0.0
sS'RYS'
p779
F0.0
sS'RYP'
p780
F0.0
sS'RBGJ'
p781
F0.0002917141041896641
sS'MNI'
p782
F9.329357947417888e-07
sS'BWSN'
p783
F0.0
sS'HTZU'
p784
F0.0003397890948286829
sS'SMQL'
p785
F4.32905548338893e-06
sS'STKT'
p786
F0.0
sS'KHDB'
p787
F5.204393896286838e-07
sS'NLKR'
p788
F0.0
sS'BGTA'
p789
F0.0006383198682517875
sS'VAK'
p790
F0.0006779077477621992
sS'JPH'
p791
F0.0
sS'GMIA'
p792
F0.002311510525436969
sS'VAA'
p793
F1.4062017219005852e-05
sS'MWRN'
p794
F6.939191861715785e-07
sS'LHU'
p795
F0.00024811367101601944
sS'ADTP'
p796
F3.855106589842102e-07
sS'RSR'
p797
F0.000475541199335135
sS'DLGN'
p798
F3.084085271873682e-07
sS'YLG'
p799
F0.00026637494899017187
sS'SCQ'
p800
F6.939191861715785e-07
sS'TAPA'
p801
F0.0
sS'JJKR'
p802
F0.0041544249028276845
sS'JMD'
p803
F0.004073305622827166
sS'RASP'
p804
F0.0009216618343942244
sS'BSTP'
p805
F0.00019353060560184894
sS'PCZ'
p806
F0.004073305622827166
sS'RLA'
p807
F0.0006800408024481471
sS'PCV'
p808
F0.0
sS'CMA'
p809
F0.002715980419142609
sS'TDLE'
p810
F0.0
sS'PCH'
p811
F1.3227560324130573e-05
sS'PCN'
p812
F1.1565319769526308e-07
sS'KCVL'
p813
F0.0
sS'CMU'
p814
F0.0003590904424705593
sS'GUNA'
p815
F0.017323877180235352
sS'SVPI'
p816
F0.0005208249952878665
sS'LHA'
p817
F0.0
sS'MAUR'
p818
F1.531248337485283e-05
sS'CJM'
p819
F2.297545324797943e-05
sS'SGRL'
p820
F0.006058413411371664
sS'SGRM'
p821
F0.0
sS'UVD'
p822
F3.084085271873682e-07
sS'SGRA'
p823
F3.986317896274943e-05
sS'MKDD'
p824
F0.00033137431174685484
sS'ABFC'
p825
F0.0
sS'DSS'
p826
F0.0013242622529792449
sS'DSO'
p827
F0.0
sS'MAGH'
p828
F0.0011957472170724167
sS'DSJ'
p829
F0.011668483650350513
sS'GRMT'
p830
F0.0
sS'GRMP'
p831
F0.0027176188394432916
sS'GRMR'
p832
F0.0
sS'DSA'
p833
F0.0013130557002776378
sS'NDAE'
p834
F0.0005300661014229718
sS'MA'
p835
F0.0
sS'MB'
p836
F0.03985494765418813
sS'RWH'
p837
F0.0013605249421541257
sS'ML'
p838
F0.0006624194279545442
sS'MO'
p839
F1.2719507742011284e-05
sS'PLMD'
p840
F0.0
sS'RWL'
p841
F0.002378176704207695
sS'MK'
p842
F0.0
sS'MJ'
p843
F0.0057379636336886124
sS'OKA'
p844
F0.0
sS'MW'
p845
F0.0006104716288062028
sS'MV'
p846
F0.004781107672893228
sS'UHR'
p847
F0.0
sS'MS'
p848
F0.0817933420626138
sS'ABP'
p849
F0.0035915293643528105
sS'GLH'
p850
F1.1565319769526308e-07
sS'DOL'
p851
F0.0007194500227554393
sS'GLA'
p852
F0.0
sS'AKP'
p853
F0.0017849759148619807
sS'BRPL'
p854
F0.00034838332749080863
sS'AKV'
p855
F0.0006686453530224441
sS'DOD'
p856
F1.927553294921051e-07
sS'DOE'
p857
F1.1565319769526308e-07
sS'AKJ'
p858
F0.0
sS'BRPT'
p859
F0.0
sS'AKN'
p860
F0.00043260133493153375
sS'PBL'
p861
F0.00021753485319257035
sS'GLP'
p862
F0.0
sS'DOS'
p863
F0.005242660763335996
sS'AKE'
p864
F0.0001262566542131781
sS'AKD'
p865
F9.429061654711025e-05
sS'PVRD'
p866
F0.0005597810861535086
sS'MHAD'
p867
F0.0006800408024481469
sS'BSZ'
p868
F1.426389438241578e-06
sS'BST'
p869
F0.0014052904427755877
sS'BHTR'
p870
F0.0001734334145279535
sS'HSP'
p871
F0.0002405190954771136
sS'BSR'
p872
F0.039358302876653956
sS'BSL'
p873
F0.12858463014931873
sS'ZRDE'
p874
F0.0
sS'BSI'
p875
F0.0020387345689720977
sS'BSE'
p876
F0.0004502020011509727
sS'BSB'
p877
F0.07162654693345402
sS'BSC'
p878
F0.0003612297731459897
sS'AUB'
p879
F0.002476527632798258
sS'SBR'
p880
F3.2382895354673666e-07
sS'SBP'
p881
F0.005088061448449932
sS'SBV'
p882
F0.0017240119439669369
sS'SBT'
p883
F0.0012393897848668588
sS'PUK'
p884
F0.0
sS'SBZ'
p885
F0.00045741307751922573
sS'JJR'
p886
F0.0013520020155878027
sS'MMS'
p887
F0.0
sS'MMR'
p888
F0.018486021111831483
sS'SBB'
p889
F0.0026777439252298235
sS'MML'
p890
F0.0010191359780906582
sS'JJK'
p891
F2.042558197968339e-06
sS'SBG'
p892
F0.00537950971887857
sS'MMK'
p893
F0.0
sS'SBE'
p894
F3.3594500282909746e-07
sS'MME'
p895
F3.084085271873682e-07
sS'MMD'
p896
F1.1565319769526308e-07
sS'SBI'
p897
F0.0012051057258792865
sS'MMA'
p898
F0.0002921192424645575
sS'SBO'
p899
F0.0
sS'MMB'
p900
F4.036296599564681e-06
sS'KOI'
p901
F0.0009129881288069917
sS'SHNR'
p902
F0.0010258416236795485
sS'BAT'
p903
F0.0006760314915947109
sS'BAU'
p904
F4.98425863698997e-05
sS'KOO'
p905
F2.921469866629433e-06
sS'ERS'
p906
F0.006402858193261914
sS'BAZ'
p907
F0.0005483575484545277
sS'BAY'
p908
F0.002969883474712464
sS'SJNP'
p909
F0.0003396183686797042
sS'BAB'
p910
F0.0008009228668444997
sS'WADI'
p911
F0.008007104238542912
sS'ERL'
p912
F0.0002745348385697572
sS'KOP'
p913
F0.0013588479707875444
sS'ERN'
p914
F0.016616340130196236
sS'BAM'
p915
F0.04764372958820463
sS'KOU'
p916
F0.00033284658382674485
sS'KOV'
p917
F8.481234497652625e-07
sS'VPT'
p918
F0.024909979403233487
sS'BJRI'
p919
F0.0027173875330479013
sS'YFP'
p920
F0.0004481340133417764
sS'THV'
p921
F0.00019538467012545385
sS'VPO'
p922
F0.0009933889131804568
sS'CPDR'
p923
F0.0
sS'JSME'
p924
F0.0095490546794932
sS'YPR'
p925
F0.01838288391009504
sS'BIO'
p926
F3.282770416961741e-05
sS'KNE'
p927
F0.002067419667953702
sS'STA'
p928
F0.16399977863554624
sS'STL'
p929
F0.0
sS'BNW'
p930
F0.004681249947063021
sS'STN'
p931
F7.492748261692758e-05
sS'SADP'
p932
F0.0
sS'STW'
p933
F0.0003056798540716696
sS'STP'
p934
F0.009604242720935208
sS'GANG'
p935
F0.0
sS'STR'
p936
F0.007943613031760026
sS'GANL'
p937
F0.0003393264820379019
sS'BTRA'
p938
F0.0
sS'NCR'
p939
F0.000680040802448147
sS'KDNL'
p940
F0.001359618992105513
sS'QLN'
p941
F0.010448718640761476
sS'NCJ'
p942
F0.004949882902851289
sS'QLM'
p943
F0.0002499971852378661
sS'QLD'
p944
F0.0007998919821652051
sS'MWH'
p945
F0.0
sS'MNDR'
p946
F0.0007740543929060204
sS'PGK'
p947
F0.0022728479019246124
sS'ROZA'
p948
F0.0009206566230512045
sS'SPTR'
p949
F0.0013596189921055127
sS'HAR'
p950
F0.00033524940569895693
sS'RU'
p951
F0.027487268308747686
sS'WTR'
p952
F0.00034686635642381465
sS'RS'
p953
F0.0032339561424250883
sS'HDA'
p954
F0.0
sS'RE'
p955
F0.011667575074369784
sS'RG'
p956
F0.0
sS'KTKL'
p957
F0.0
sS'KNP'
p958
F0.0
sS'RC'
p959
F0.002165076403483228
sS'RM'
p960
F0.003395577884332924
sS'RN'
p961
F0.005841165578031063
sS'KUU'
p962
F3.084085271873682e-07
sS'RK'
p963
F0.002559323473862762
sS'TPF'
p964
F0.0
sS'KOLR'
p965
F2.3130639539052615e-07
sS'AVRD'
p966
F1.1565319769526308e-07
sS'HRT'
p967
F0.00033932648203790177
sS'HRW'
p968
F0.0
sS'TPK'
p969
F0.0027173875330479013
sS'TPJ'
p970
F0.047943070778416794
sS'HRS'
p971
F6.563690743291968e-05
sS'TPH'
p972
F0.00027641848902953026
sS'TPU'
p973
F0.0
sS'TPT'
p974
F3.24007312479295e-05
sS'HRI'
p975
F0.0050945968086567005
sS'HRG'
p976
F0.0
sS'TPZ'
p977
F0.00021790738545848158
sS'TPY'
p978
F0.0020387345689720977
sS'HRB'
p979
F0.0009300203805394683
sS'KAD'
p980
F0.0
sS'KAJ'
p981
F0.0006800408024481469
sS'KAH'
p982
F1.1565319769526308e-07
sS'KAN'
p983
F0.0
sS'RTGH'
p984
F0.0017313319834187254
sS'KAR'
p985
F0.00021061964843514122
sS'KAP'
p986
F0.0
sS'NIRA'
p987
F0.00033463167631529267
sS'KAT'
p988
F0.0003399047480263782
sS'RHA'
p989
F0.008129995736252109
sS'RHE'
p990
F0.00024333953952980584
sS'RHG'
p991
F8.509457499550102e-05
sS'DING'
p992
F1.0590528531809092e-05
sS'KIP'
p993
F0.0
sS'WFD'
p994
F0.0
sS'SCH'
p995
F0.0
sS'MRHT'
p996
F8.481234497652625e-07
sS'KUF'
p997
F0.0006769123834504902
sS'KTYM'
p998
F0.013987003965966261
sS'MTDM'
p999
F0.0
sS'PLNI'
p1000
F0.0
sS'RTA'
p1001
F0.002017656737582186
sS'RTM'
p1002
F0.024956303551000526
sS'DMNJ'
p1003
F0.0006825466217315442
sS'RTI'
p1004
F0.0006792023167648562
sS'SNSI'
p1005
F0.0002227934940072903
sS'RTP'
p1006
F0.0
sS'UGR'
p1007
F1.927553294921051e-07
sS'ANND'
p1008
F0.0003738779383950755
sS'SVJR'
p1009
F0.0
sS'HDL'
p1010
F0.0
sS'G'
p1011
F0.0074538593081529
sS'KRCD'
p1012
F0.0004989557832865712
sS'KIUL'
p1013
F0.02341037617107706
sS'RFJ'
p1014
F0.0002573114211821202
sS'ROHA'
p1015
F1.1565319769526308e-07
sS'RAIR'
p1016
F0.0005138280850428599
sS'ANPR'
p1017
F0.0
sS'STJT'
p1018
F0.0
sS'CLDY'
p1019
F0.00034376731947234195
sS'TLMR'
p1020
F0.0020387345689720977
sS'ATE'
p1021
F0.0011766439424451066
sS'ATL'
p1022
F0.0
sS'UREN'
p1023
F1.1565319769526308e-07
sS'ATH'
p1024
F0.0
sS'SALE'
p1025
F3.205110590915862e-05
sS'DDCE'
p1026
F0.0
sS'ATT'
p1027
F0.0
sS'ATU'
p1028
F0.0011149087492688513
sS'ATS'
p1029
F0.0
sS'ISM'
p1030
F0.0
sS'ISA'
p1031
F0.0
sS'JKPR'
p1032
F0.006840926612571414
sS'KRBP'
p1033
F0.0010832513871258127
sS'PVP'
p1034
F5.261834984475485e-06
sS'SEU'
p1035
F0.0003399047480263782
sS'PVR'
p1036
F2.235957775171229e-05
sS'PVU'
p1037
F2.3130639539052615e-07
sS'SEG'
p1038
F0.0006045690187612545
sS'JKN'
p1039
F0.0005554428867975397
sS'SED'
p1040
F0.0
sS'PVD'
p1041
F0.0
sS'SEO'
p1042
F1.927553294921051e-07
sS'JKE'
p1043
F0.0
sS'SEM'
p1044
F0.0005430745106599321
sS'SASN'
p1045
F0.0007276791068604573
sS'JKA'
p1046
F7.275136864544881e-06
sS'JKB'
p1047
F0.0006800408024481469
sS'SEH'
p1048
F0.0009430143198794321
sS'PDY'
p1049
F0.0
sS'PDW'
p1050
F0.0
sS'PDU'
p1051
F8.8535403681578e-05
sS'CLG'
p1052
F0.0019065054080665887
sS'PDR'
p1053
F0.004582472427551894
sS'PDL'
p1054
F0.0
sS'CLX'
p1055
F0.0012953444411670921
sS'VJPJ'
p1056
F0.0
sS'PDH'
p1057
F0.0006783484106552062
sS'CLT'
p1058
F0.02056747906949857
sS'CLU'
p1059
F0.0006794625364596706
sS'PDE'
p1060
F0.004073305622827166
sS'PDD'
p1061
F0.0
sS'CLR'
p1062
F0.0003438279798838116
sS'SKPI'
p1063
F0.00034022664942663
sS'RHMA'
p1064
F0.0013596189921055127
sS'BRGT'
p1065
F0.0003397890948286829
sS'BRGW'
p1066
F0.0
sS'BIA'
p1067
F1.927553294921051e-07
sS'NBG'
p1068
F0.0019012158658871015
sS'PNQ'
p1069
F0.0006800408024481469
sS'KAWR'
p1070
F0.0014375859164493952
sS'BRGA'
p1071
F0.0017872162840705617
sS'CHPT'
p1072
F0.000680040802448147
sS'BRGM'
p1073
F0.007455005123436658
sS'RGD'
p1074
F0.0
sS'BPA'
p1075
F0.0012473699806561755
sS'DO'
p1076
F0.0013235015967688675
sS'BPC'
p1077
F0.003395577884332924
sS'BPB'
p1078
F0.015891558935713014
sS'SWM'
p1079
F0.018949689863793542
sS'JYP'
p1080
F0.0013596189921055127
sS'BPF'
p1081
F0.0
sS'SWA'
p1082
F0.0010176318844410351
sS'DG'
p1083
F0.020854955457295876
sS'SWC'
p1084
F0.0
sS'NGNT'
p1085
F5.088740698591576e-07
sS'SWE'
p1086
F0.00036576746613426137
sS'BPL'
p1087
F0.18713982161603435
sS'JHS'
p1088
F0.13951469049369675
sS'BPQ'
p1089
F0.010848537550626473
sS'JYG'
p1090
F0.00033990474802637823
sS'BPR'
p1091
F0.0006800408024481469
sS'AUBR'
p1092
F0.0011406282256451554
sS'GMO'
p1093
F0.002403399843325366
sS'JYM'
p1094
F0.00022420158522258918
sS'DR'
p1095
F3.585249128553156e-07
sS'SWV'
p1096
F1.2529050522860753e-05
sS'TGP'
p1097
F0.0
sS'TGQ'
p1098
F0.00044616825050770983
sS'TGU'
p1099
F0.0
sS'NANA'
p1100
F1.927553294921051e-07
sS'GYN'
p1101
F0.0010548446928023902
sS'GYM'
p1102
F0.0
sS'MDPB'
p1103
F0.0
sS'KDMR'
p1104
F0.0
sS'NMKL'
p1105
F0.000289632529415988
sS'TGA'
p1106
F0.0
sS'KUTI'
p1107
F0.0013561686717076039
sS'BDHY'
p1108
F0.0
sS'NANR'
p1109
F0.00012257522032094092
sS'TGN'
p1110
F0.000514900240273092
sS'DHO'
p1111
F0.0
sS'DHN'
p1112
F0.05004406295179256
sS'GOH'
p1113
F0.0
sS'DHI'
p1114
F0.0
sS'DHG'
p1115
F0.0012650430389607311
sS'LMNR'
p1116
F0.0
sS'DHD'
p1117
F0.00254555962298196
sS'MLN'
p1118
F0.007605408505168089
sS'MLO'
p1119
F0.0
sS'DHA'
p1120
F0.0
sS'AJI'
p1121
F0.0013613595727308267
sS'MLP'
p1122
F0.0
sS'MLV'
p1123
F0.0
sS'LKMR'
p1124
F0.0006825466217315443
sS'MLZ'
p1125
F0.0
sS'DHT'
p1126
F1.1565319769526308e-07
sS'AJE'
p1127
F0.0
sS'PTKP'
p1128
F2.3130639539052615e-07
sS'NRI'
p1129
F1.0601543122065783e-06
sS'OML'
p1130
F0.012801336159777719
sS'NRO'
p1131
F0.0006578514754744438
sS'NRM'
p1132
F0.0013298948717377916
sS'NRL'
p1133
F0.0
sS'NRG'
p1134
F0.0
sS'NRE'
p1135
F0.0
sS'SRNT'
p1136
F0.0
sS'PTKC'
p1137
F0.01329946824342185
sS'BHUJ'
p1138
F0.0003399047480263783
sS'PTKD'
p1139
F0.006779590448896321
sS'NRS'
p1140
F8.095723838668416e-07
sS'NRR'
p1141
F0.0
sS'NRP'
p1142
F0.0
sS'NRW'
p1143
F0.0006616709782191062
sS'CKHS'
p1144
F0.0005281883612465912
sS'NRT'
p1145
F0.004338591349224395
sS'RGPM'
p1146
F0.0
sS'WC'
p1147
F0.0
sS'TQA'
p1148
F0.0012353591064298195
sS'TQM'
p1149
F0.0006800408024481469
sS'TQN'
p1150
F0.0005453662556033233
sS'WL'
p1151
F0.004569944552836126
sS'DKT'
p1152
F0.0
sS'WR'
p1153
F0.005864022678295659
sS'BARH'
p1154
F2.480716899483479e-05
sS'BARL'
p1155
F0.0003402902586853624
sS'MIL'
p1156
F8.095723838668416e-07
sS'HSA'
p1157
F1.3647077328041044e-06
sS'HSD'
p1158
F0.0
sS'KRMI'
p1159
F0.0
sS'HSK'
p1160
F0.0
sS'HSI'
p1161
F0.0
sS'HSR'
p1162
F0.005272817714339076
sS'KKHT'
p1163
F0.00033932648203790193
sS'RIG'
p1164
F0.0013633252466798125
sS'HSX'
p1165
F0.001011855231344115
sS'BJMD'
p1166
F0.0006800408024481469
sS'KNN'
p1167
F0.0005215000980593314
sS'BNZ'
p1168
F0.0002687736485765892
sS'KNL'
p1169
F9.90935865347466e-05
sS'KNJ'
p1170
F0.007455005123436657
sS'PASA'
p1171
F8.263450762927617e-05
sS'HAN'
p1172
F0.00015679231100130655
sS'BNR'
p1173
F0.000226566356001455
sS'KND'
p1174
F2.698574612889472e-07
sS'BNP'
p1175
F1.927553294921051e-07
sS'HAD'
p1176
F8.372557207119934e-06
sS'BNV'
p1177
F0.00032207369386171546
sS'BNU'
p1178
F0.0003575884191217303
sS'BNT'
p1179
F3.8068264310724656e-05
sS'BNI'
p1180
F0.0
sS'BNN'
p1181
F0.0017741419568260617
sS'BNC'
p1182
F0.00031641105674923514
sS'KNW'
p1183
F0.011438006827831504
sS'KNT'
p1184
F0.0
sS'HAS'
p1185
F0.0025859275555569616
sS'BNE'
p1186
F0.0
sS'MJBT'
p1187
F0.008804446634144987
sS'SYC'
p1188
F0.0
sS'SYA'
p1189
F1.1565319769526308e-07
sS'GDV'
p1190
F0.006731421105089328
sS'SYJ'
p1191
F3.276840601365787e-07
sS'GAYA'
p1192
F0.0115655501552225
sS'MLTR'
p1193
F0.0020387345689720977
sS'SYN'
p1194
F0.0
sS'MEM'
p1195
F1.7733490313273671e-06
sS'LXA'
p1196
F0.0
sS'DNWH'
p1197
F0.0020387345689720972
sS'RGP'
p1198
F0.0
sS'RGS'
p1199
F0.0005129412051026838
sS'RGU'
p1200
F0.0019649862213170746
sS'BELA'
p1201
F0.0
sS'CGN'
p1202
F0.00010421728123114903
sS'KRBA'
p1203
F0.0020380406497859257
sS'RGH'
p1204
F0.0
sS'RGJ'
p1205
F0.0013596189921055127
sS'RGL'
p1206
F2.083798497297591e-06
sS'RGO'
p1207
F0.002022024246156674
sS'MET'
p1208
F1.7899235024981464e-05
sS'DKJ'
p1209
F0.0048900788376247395
sS'SRUR'
p1210
F0.000842524739108901
sS'LDH'
p1211
F0.04370083059384028
sS'PDPL'
p1212
F0.0022966145935215346
sS'GDB'
p1213
F0.002400501350566395
sS'JRR'
p1214
F2.3130639539052615e-07
sS'VGN'
p1215
F0.0
sS'ADVI'
p1216
F0.000333509766562126
sS'LJN'
p1217
F0.02051421195443219
sS'VGE'
p1218
F2.3130639539052615e-07
sS'BRH'
p1219
F0.0020387345689720977
sS'DNEA'
p1220
F1.927553294921051e-07
sS'JOR'
p1221
F5.8414020442159176e-05
sS'KZJ'
p1222
F0.009651321263244236
sS'SAH'
p1223
F0.0
sS'SCKR'
p1224
F0.0
sS'LJR'
p1225
F0.0027173875330479013
sS'HLZ'
p1226
F0.0
sS'MOGA'
p1227
F0.0003257608100908904
sS'SBHR'
p1228
F0.0007712754323319246
sS'SRGT'
p1229
F0.00010965984140803202
sS'COR'
p1230
F0.006504944238759612
sS'PRI'
p1231
F0.0001176855268894156
sS'PEP'
p1232
F7.924997689689693e-07
sS'PER'
p1233
F0.0002472143850465001
sS'PES'
p1234
F0.0
sS'COA'
p1235
F0.0
sS'PEM'
p1236
F0.0
sS'PEH'
p1237
F0.00012597023074649024
sS'COI'
p1238
F0.0008829421386159019
sS'DAVM'
p1239
F0.0
sS'SRGM'
p1240
F0.0004687811045267923
sS'PEC'
p1241
F0.004750570748530626
sS'ZBD'
p1242
F1.2131152622031054e-05
sS'JOA'
p1243
F6.452804316695729e-05
sS'OKHA'
p1244
F0.0
sS'SNLR'
p1245
F0.0
sS'MRGA'
p1246
F0.0005092564564491962
sS'DRTP'
p1247
F0.0
sS'BRUD'
p1248
F0.0
sS'SGBJ'
p1249
F0.0
sS'RUM'
p1250
F0.0
sS'RUB'
p1251
F0.0
sS'JOL'
p1252
F0.0027173875330479013
sS'BLMR'
p1253
F0.0006827972036598841
sS'SNRR'
p1254
F1.4885802764501804e-05
sS'BLMK'
p1255
F1.387838372343157e-06
sS'RUR'
p1256
F0.0
sS'OEA'
p1257
F0.0009103908119863622
sS'SAT'
p1258
F0.00033949610672785496
sS'TELO'
p1259
F0.0
sS'DIL'
p1260
F1.7347979654289461e-07
sS'GNS'
p1261
F0.004750570748530626
sS'GNP'
p1262
F0.0002496430647592192
sS'MKC'
p1263
F0.009398578079036359
sS'MKB'
p1264
F0.0
sS'GNT'
p1265
F0.008767432615843377
sS'KUGT'
p1266
F0.004073305622827166
sS'MKO'
p1267
F0.0
sS'BRRG'
p1268
F0.0016121193008929611
sS'BTBR'
p1269
F0.0
sS'KSNG'
p1270
F0.007489866663112845
sS'JHL'
p1271
F0.025492145186885345
sS'JHN'
p1272
F1.927553294921051e-07
sS'GNC'
p1273
F0.00033698667769492573
sS'MKU'
p1274
F0.0011055375558792874
sS'GNA'
p1275
F0.0
sS'AII'
p1276
F0.010781444686346113
sS'GNG'
p1277
F0.000491523420527305
sS'JHW'
p1278
F0.0
sS'MKP'
p1279
F0.0019852785671019297
sS'CHD'
p1280
F0.0006662383564782105
sS'GNH'
p1281
F0.0
sS'DAKE'
p1282
F6.786834155430484e-05
sS'GTST'
p1283
F0.0
sS'NSL'
p1284
F0.0003493518703012906
sS'NSD'
p1285
F0.00019231029341392576
sS'MNSR'
p1286
F0.0
sS'CHH'
p1287
F0.0
sS'JRA'
p1288
F0.0
sS'PVPT'
p1289
F0.013186671137537177
sS'KCKI'
p1290
F0.0
sS'RKSH'
p1291
F0.0
sS'UTA'
p1292
F4.587576841912102e-07
sS'CHL'
p1293
F0.0
sS'UTL'
p1294
F0.0
sS'UTR'
p1295
F0.0006790384747347879
sS'VPDA'
p1296
F0.0
sS'SDT'
p1297
F0.0
sS'JAN'
p1298
F0.0
sS'BNSA'
p1299
F0.0006800408024481469
sS'PWS'
p1300
F0.0
sS'SDS'
p1301
F0.0011255452869260777
sS'JAL'
p1302
F0.0
sS'SDE'
p1303
F3.084085271873682e-07
sS'SDF'
p1304
F0.0
sS'SDB'
p1305
F0.0
sS'SDL'
p1306
F0.005154639117854033
sS'PWL'
p1307
F3.4756041581626337e-05
sS'SDI'
p1308
F0.00010912362796366405
sS'DGHA'
p1309
F0.0
sS'NAB'
p1310
F0.0007954974680046971
sS'KQR'
p1311
F0.0030055028277230947
sS'MRJ'
p1312
F0.014605176821275002
sS'KQU'
p1313
F0.00041791822349580946
sS'KQT'
p1314
F3.6623512603499975e-07
sS'HBD'
p1315
F0.0013418817439696598
sS'HBG'
p1316
F0.006779590448896321
sS'NAN'
p1317
F0.0
sS'NAM'
p1318
F0.0004534761881631223
sS'NAS'
p1319
F0.00033297096087292065
sS'BOJ'
p1320
F0.0014730940545774646
sS'NAW'
p1321
F0.0
sS'NAT'
p1322
F0.00024751656964837066
sS'KQK'
p1323
F0.0003287507781205976
sS'KQI'
p1324
F0.0003437984056821187
sS'BOD'
p1325
F0.00024255483078980096
sS'KQN'
p1326
F0.015747075178360815
sS'BOF'
p1327
F0.006779590448896321
sS'BOG'
p1328
F6.592232268629995e-07
sS'YDM'
p1329
F0.0
sS'HRPG'
p1330
F0.0
sS'DEHR'
p1331
F7.710213179684205e-08
sS'MLMR'
p1332
F1.594204133107972e-05
sS'SXT'
p1333
F0.001010795454983535
sS'HPLE'
p1334
F0.0027173875330479013
sS'RMJK'
p1335
F0.0
sS'BSPN'
p1336
F4.626127907810523e-07
sS'BQG'
p1337
F0.0
sS'SVM'
p1338
F0.0
sS'GOTN'
p1339
F0.0002963835333114389
sS'MGME'
p1340
F0.0
sS'BQA'
p1341
F0.002133100232864132
sS'BQI'
p1342
F4.350450172709714e-05
sS'AMRO'
p1343
F0.000687711650367689
sS'TIHU'
p1344
F1.1565319769526308e-07
sS'JVN'
p1345
F0.014741637132101994
sS'SVX'
p1346
F0.0002255699967848238
sS'SVV'
p1347
F0.0033955778843329245
sS'FSP'
p1348
F0.0
sS'BOKR'
p1349
F0.0
sS'APR'
p1350
F0.00869210716739493
sS'BTPD'
p1351
F0.0013596189921055127
sS'LKN'
p1352
F1.8921821440435957e-05
sS'LKO'
p1353
F0.07583578643165623
sS'VDS'
p1354
F0.0
sS'SMBX'
p1355
F0.0012429634666968955
sS'LKE'
p1356
F0.0003429770791417749
sS'LKA'
p1357
F0.0002962341005766491
sS'VDA'
p1358
F0.00034709259426313844
sS'FLK'
p1359
F1.7347979654289461e-07
sS'GVI'
p1360
F0.0
sS'VDE'
p1361
F0.0
sS'APT'
p1362
F0.0006226293761534207
sS'LKW'
p1363
F0.0006800408024481469
sS'LKU'
p1364
F0.0013623946688501992
sS'LKR'
p1365
F0.0012189718562452914
sS'LKS'
p1366
F0.0010985107291300227
sS'JMT'
p1367
F0.0
sS'GVL'
p1368
F0.0013585781133262553
sS'APK'
p1369
F7.344195302207478e-05
sS'TNR'
p1370
F0.0
sS'TRK'
p1371
F0.0
sS'TRL'
p1372
F5.8986092011375116e-05
sS'TRO'
p1373
F0.0
sS'MCA'
p1374
F0.0029159476800420157
sS'TRB'
p1375
F0.0
sS'HBLN'
p1376
F0.0
sS'AL'
p1377
F0.0
sS'GVD'
p1378
F0.0
sS'TRS'
p1379
F6.939191861715785e-07
sS'TRR'
p1380
F0.0
sS'TRT'
p1381
F0.0010840770785658302
sS'KCD'
p1382
F0.0
sS'KCG'
p1383
F0.04566672957000733
sS'HTC'
p1384
F0.00021874420246116068
sS'KCC'
p1385
F0.0
sS'BJNR'
p1386
F0.0010035268963790418
sS'HTL'
p1387
F3.084085271873682e-07
sS'KCI'
p1388
F0.0
sS'KCJ'
p1389
F0.0002970304309640313
sS'KCV'
p1390
F0.0013596189921055127
sS'HLKT'
p1391
F0.0
sS'HTZ'
p1392
F0.0007426409402440349
sS'KDPR'
p1393
F2.239421533150585e-06
sS'RANI'
p1394
F0.0008443194126790976
sS'TNM'
p1395
F0.0007986867418287159
sS'SAI'
p1396
F0.0
sS'TNL'
p1397
F0.010825139304276624
sS'ABKA'
p1398
F0.0
sS'SILO'
p1399
F0.0
sS'NH'
p1400
F0.0007759098560395059
sS'MAJN'
p1401
F0.03328608034739796
sS'NK'
p1402
F0.0014720668762313017
sS'NN'
p1403
F0.00014248851739081118
sS'NB'
p1404
F1.1565319769526308e-07
sS'ND'
p1405
F0.0005498196135817363
sS'RRB'
p1406
F0.005378943385924717
sS'NG'
p1407
F0.0
sS'MLHA'
p1408
F0.00033978909482868295
sS'NR'
p1409
F0.0
sS'ODC'
p1410
F0.001359618992105513
sS'RRS'
p1411
F0.0005614738077466205
sS'NU'
p1412
F0.0026080630689644586
sS'ODG'
p1413
F5.474251357575785e-07
sS'PUS'
p1414
F0.0028828837806723624
sS'RDP'
p1415
F0.0
sS'BCOB'
p1416
F0.0
sS'ELM'
p1417
F0.0
sS'J'
p1418
F0.004248154879532456
sS'KGS'
p1419
F7.324702520699995e-07
sS'KSX'
p1420
F6.018302151784449e-06
sS'AKOR'
p1421
F2.1203086244131563e-07
sS'KMDR'
p1422
F0.0
sS'RDM'
p1423
F0.0018602791581244294
sS'RDL'
p1424
F0.0007573395787595905
sS'HDE'
p1425
F0.0
sS'FBG'
p1426
F0.0006800408024481469
sS'SRTN'
p1427
F0.00033986619696047975
sS'BBMN'
p1428
F0.0
sS'SRTL'
p1429
F0.00033509365010173374
sS'KSC'
p1430
F0.0
sS'USL'
p1431
F0.00067923123006428
sS'BLDI'
p1432
F0.003032875125309235
sS'DMBR'
p1433
F0.0
sS'MHPE'
p1434
F2.3130639539052615e-07
sS'AZR'
p1435
F0.0006786181730578693
sS'NKP'
p1436
F0.00031414017539444937
sS'SGZ'
p1437
F0.00048601399769300713
sS'SGP'
p1438
F0.00038288960645468977
sS'SGS'
p1439
F0.00034036736081715925
sS'SGR'
p1440
F0.0004542394992678806
sS'BNTL'
p1441
F0.0019480915110202416
sS'BZG'
p1442
F0.0
sS'SGJ'
p1443
F0.0
sS'SGL'
p1444
F0.0017628061065509558
sS'SGO'
p1445
F0.010123959862551825
sS'SGE'
p1446
F0.0
sS'SGD'
p1447
F0.0004543243116128992
sS'SGG'
p1448
F0.0008382683241460647
sS'SGF'
p1449
F0.0
sS'BVRT'
p1450
F0.0027697203919719382
sS'NLP'
p1451
F0.003395577884332924
sS'NKW'
p1452
F0.001449670192579752
sS'CND'
p1453
F0.0
sS'NLR'
p1454
F0.0016043821387839118
sS'CNB'
p1455
F0.23772495642523397
sS'CNC'
p1456
F0.0
sS'CNA'
p1457
F0.008059454790949121
sS'CNO'
p1458
F0.0
sS'CNK'
p1459
F0.0003189048622547996
sS'CNI'
p1460
F0.0012468105968740642
sS'BMD'
p1461
F0.0
sS'MTHP'
p1462
F0.0
sS'MRTL'
p1463
F0.0
sS'BME'
p1464
F0.0003399047480263782
sS'PFM'
p1465
F0.0021525503523753286
sS'VDD'
p1466
F0.0
sS'DXN'
p1467
F0.00033201455487437333
sS'PFR'
p1468
F0.0
sS'BRAG'
p1469
F0.0
sS'INDB'
p1470
F0.0010193672844860488
sS'DXG'
p1471
F0.0
sS'KAYR'
p1472
F0.0003364354345209115
sS'SIR'
p1473
F0.00932319688710657
sS'SIQ'
p1474
F0.0
sS'SIP'
p1475
F0.0006189860330934238
sS'SIW'
p1476
F0.0
sS'JWP'
p1477
F0.0006224154761391305
sS'BMO'
p1478
F0.0008556430297457197
sS'CPK'
p1479
F0.004482193648172468
sS'SID'
p1480
F2.2032184492544354e-06
sS'JWB'
p1481
F0.0006796167407232643
sS'SAGR'
p1482
F0.0
sS'SIL'
p1483
F0.00034002040122407346
sS'BDVT'
p1484
F0.003395577884332924
sS'SLKR'
p1485
F0.0
sS'PRDP'
p1486
F0.0
sS'TAZ'
p1487
F3.4695959308578923e-07
sS'TAE'
p1488
F0.0
sS'MKH'
p1489
F0.0
sS'BDVL'
p1490
F0.0
sS'TKR'
p1491
F5.00155487277844e-06
sS'TAN'
p1492
F0.0
sS'JID'
p1493
F0.0003565665187076741
sS'MJG'
p1494
F9.792972064585912e-07
sS'MJA'
p1495
F0.00010410215010843035
sS'MJL'
p1496
F0.0
sS'DJX'
p1497
F0.0
sS'MJN'
p1498
F0.0020387345689720977
sS'DJA'
p1499
F1.927553294921051e-07
sS'GID'
p1500
F0.00010550057391943523
sS'SIPR'
p1501
F0.0
sS'MJS'
p1502
F0.0003587906061847517
sS'BBTR'
p1503
F0.0
sS'AHA'
p1504
F0.013889597861233473
sS'RUL'
p1505
F0.001019507995876578
sS'NPK'
p1506
F0.0
sS'NPD'
p1507
F0.0
sS'AHH'
p1508
F0.0
sS'AGR'
p1509
F0.0002182458404396721
sS'MJRI'
p1510
F0.006417106816114613
sS'JRLI'
p1511
F0.0033088971484773145
sS'CDGR'
p1512
F0.00025537437440135416
sS'JRLE'
p1513
F1.8504511631242092e-06
sS'NPS'
p1514
F0.0014277277386326966
sS'GUG'
p1515
F4.082938687388428e-05
sS'TSK'
p1516
F0.0027173875330479013
sS'NMGT'
p1517
F0.0
sS'TSI'
p1518
F0.000680040802448147
sS'TSF'
p1519
F0.00021617516087251584
sS'NMGY'
p1520
F0.0020338964102018455
sS'DHPR'
p1521
F0.0
sS'TSA'
p1522
F0.0
sS'BDDR'
p1523
F0.0
sS'GUR'
p1524
F0.0001134492661577476
sS'MDDP'
p1525
F0.0
sS'GUV'
p1526
F0.0
sS'DWLE'
p1527
F0.002038734568972098
sS'TSR'
p1528
F0.0
sS'KBJ'
p1529
F0.011671077021036418
sS'KBN'
p1530
F0.0
sS'KBL'
p1531
F0.0005515042730720823
sS'KBM'
p1532
F1.927553294921051e-07
sS'HLDD'
p1533
F0.0
sS'DLD'
p1534
F2.593385275938065e-06
sS'PGRL'
p1535
F0.0007045264754995157
sS'KBY'
p1536
F0.011497778302072274
sS'HUP'
p1537
F0.0009166560345330249
sS'DLJ'
p1538
F0.006443251674465548
sS'SHZ'
p1539
F0.0006800408024481469
sS'HLDR'
p1540
F5.372917127214222e-06
sS'KPP'
p1541
F2.2069620300529124e-05
sS'KPQ'
p1542
F7.710213179684205e-08
sS'HCP'
p1543
F2.4063766276969208e-05
sS'KPV'
p1544
F0.00399187515180933
sS'BLZ'
p1545
F0.0
sS'BLU'
p1546
F4.009310853435787e-07
sS'BLT'
p1547
F0.0020387345689720977
sS'BLW'
p1548
F0.0
sS'NFK'
p1549
F0.005482317410878889
sS'CKDL'
p1550
F1.1565319769526308e-07
sS'BLM'
p1551
F0.00135135472587539
sS'KPD'
p1552
F0.05411163108858741
sS'BLK'
p1553
F0.00022282871945279606
sS'KPG'
p1554
F0.0016687982674885777
sS'KPI'
p1555
F0.0
sS'BLG'
p1556
F0.0
sS'KPN'
p1557
F0.0
sS'DEOR'
p1558
F0.0
sS'DEOS'
p1559
F0.0010103059514938774
sS'GCT'
p1560
F0.0008901803690071568
sS'EKM'
p1561
F1.1565319769526308e-07
sS'KTHD'
p1562
F0.0006793468832619752
sS'EKI'
p1563
F0.007119013308598969
sS'SHG'
p1564
F0.0016308271662379373
sS'EKC'
p1565
F0.0
sS'RECH'
p1566
F3.084085271873682e-07
sS'REJ'
p1567
F0.0
sS'REI'
p1568
F0.0003222210769310255
sS'KTHU'
p1569
F0.0026103312230478706
sS'CLF'
p1570
F0.001108020269246457
sS'SVGA'
p1571
F6.990733502788244e-05
sS'EKR'
p1572
F0.0006800408024481468
sS'JHD'
p1573
F0.0006958721464800366
sS'KEPR'
p1574
F4.807492947206668e-05
sS'MKA'
p1575
F0.003495919509515157
sS'PDRD'
p1576
F0.0
sS'GNU'
p1577
F0.0
sS'DJHR'
p1578
F0.005331473313542718
sS'MKN'
p1579
F0.000364312777208231
sS'MONR'
p1580
F4.754888467911248e-05
sS'LTR'
p1581
F0.0
sS'DIG'
p1582
F4.2406172488263126e-07
sS'LTT'
p1583
F0.0005122814193745645
sS'KXJ'
p1584
F0.008129957185186214
sS'DIA'
p1585
F0.001096373218657092
sS'LTA'
p1586
F0.0020387345689720977
sS'SDBH'
p1587
F0.0007605590283427261
sS'LTD'
p1588
F0.0
sS'KXL'
p1589
F0.0
sS'RPAR'
p1590
F0.00630112717747471
sS'BTU'
p1591
F0.0004660562035478161
sS'RJPM'
p1592
F0.0033955778843329245
sS'SY'
p1593
F0.0023966641278664745
sS'KXN'
p1594
F0.00034147295031417447
sS'SV'
p1595
F0.003948545810183337
sS'ST'
p1596
F0.02836272771507813
sS'SI'
p1597
F0.0002954165637967482
sS'RPAN'
p1598
F0.007455005123436658
sS'SM'
p1599
F0.00010997315039765577
sS'SL'
p1600
F0.001246102252107283
sS'SC'
p1601
F0.03182783056803568
sS'MKS'
p1602
F0.0013596189921055127
sS'SA'
p1603
F0.04408017140527893
sS'KKTA'
p1604
F0.003395577884332924
sS'JUDW'
p1605
F0.0
sS'MKR'
p1606
F6.121105807541731e-05
sS'KNVT'
p1607
F0.0018544820103198402
sS'TBR'
p1608
F0.0011201469302282321
sS'GLPT'
p1609
F0.021081361253557678
sS'CAR'
p1610
F0.013013571181074478
sS'CAP'
p1611
F0.001336879725781131
sS'ANKL'
p1612
F1.7347979654289461e-07
sS'TBT'
p1613
F6.641963665493095e-05
sS'BNCE'
p1614
F0.0002892323580840411
sS'PUL'
p1615
F3.5611065754507e-05
sS'CAI'
p1616
F0.0
sS'HAPA'
p1617
F0.002373966927811587
sS'CAN'
p1618
F0.0255681383306888
sS'KHNM'
p1619
F0.001745235434451825
sS'SRID'
p1620
F0.0011879663531987681
sS'CAA'
p1621
F0.0003430125146673037
sS'CAG'
p1622
F1.0761254680787813e-06
sS'AIG'
p1623
F3.084085271873682e-07
sS'DUSI'
p1624
F0.0
sS'BTE'
p1625
F0.02687982588161462
sS'MRN'
p1626
F0.0003396599487579232
sS'BAKA'
p1627
F0.0
sS'CHOK'
p1628
F0.00015162113480616304
sS'NRPA'
p1629
F0.0006789999236688894
sS'PGI'
p1630
F0.0009737649760699414
sS'PGW'
p1631
F0.0003668264915183169
sS'PGT'
p1632
F0.027848379737293427
sS'PGR'
p1633
F0.00030541466386399454
sS'RKSN'
p1634
F2.245599588583025e-06
sS'DYD'
p1635
F0.0001771735375954515
sS'KUPR'
p1636
F0.00034730114797061666
sS'MKX'
p1637
F4.462965742223833e-05
sS'PNSA'
p1638
F0.001359618992105513
sS'SOA'
p1639
F0.00022708505367465275
sS'FGSB'
p1640
F0.000658586767122667
sS'ADTL'
p1641
F0.0
sS'CNPR'
p1642
F8.095723838668416e-07
sS'TUNI'
p1643
F0.0010687888176568992
sS'MBI'
p1644
F0.002038734568972098
sS'UDR'
p1645
F0.0
sS'TGRL'
p1646
F0.004144158392483968
sS'MAKM'
p1647
F0.0
sS'BDWL'
p1648
F0.0
sS'PNME'
p1649
F7.81061349182461e-05
sS'RSI'
p1650
F0.00036290378192954095
sS'UDZ'
p1651
F0.0011508533897463375
sS'SSA'
p1652
F0.0011880761655428615
sS'RSA'
p1653
F0.0020387345689720977
sS'OGL'
p1654
F0.002952134852230973
sS'BTJ'
p1655
F0.00031558407255443327
sS'UDN'
p1656
F0.001681284699148432
sS'MAKR'
p1657
F0.000520937255504961
sS'UDL'
p1658
F0.0025121164830917337
sS'UDM'
p1659
F9.252255815621046e-07
sS'MIH'
p1660
F0.0
sS'ZNA'
p1661
F0.00035924149744645734
sS'GHQ'
p1662
F0.00047452036343040565
sS'GHR'
p1663
F0.00022220068369164234
sS'MIN'
p1664
F0.00188960337241533
sS'DKZ'
p1665
F2.4054936253735835e-05
sS'MID'
p1666
F1.927553294921051e-07
sS'SOL'
p1667
F0.006103713161565204
sS'GHD'
p1668
F0.003074111374449161
sS'DKD'
p1669
F0.0003451338134257256
sS'DKE'
p1670
F0.0003360110903706376
sS'DKO'
p1671
F0.0008505170687430857
sS'GHH'
p1672
F0.0
sS'GHJ'
p1673
F4.780332171404206e-07
sS'PPR'
p1674
F0.0
sS'GAM'
p1675
F0.00019301836691381074
sS'CTYL'
p1676
F1.4225343316517358e-06
sS'JRMG'
p1677
F0.0003370952612785563
sS'KBPR'
p1678
F0.0014372611751340757
sS'MBY'
p1679
F0.0009667147537873855
sS'URD'
p1680
F0.0008181107857754825
sS'NDKD'
p1681
F0.00021691319295557649
sS'URL'
p1682
F0.0
sS'URI'
p1683
F0.00030891225377148186
sS'KPTN'
p1684
F0.000337063723306372
sS'DABN'
p1685
F0.0
sS'SFY'
p1686
F0.0005726161919683676
sS'SFW'
p1687
F0.0
sS'IPL'
p1688
F0.0
sS'KLTR'
p1689
F5.782659884763153e-07
sS'IPR'
p1690
F0.0
sS'SFM'
p1691
F5.930806123715655e-06
sS'SFH'
p1692
F1.739006809821264e-05
sS'SFG'
p1693
F0.0020363829539522937
sS'PYD'
p1694
F0.0
sS'SFC'
p1695
F0.0
sS'HDW'
p1696
F0.0006800408024481469
sS'KSV'
p1697
F0.0008060513270761977
sS'KSP'
p1698
F1.1565319769526308e-07
sS'NGB'
p1699
F0.0
sS'NGN'
p1700
F0.0
sS'NGO'
p1701
F0.008859368595968092
sS'NGI'
p1702
F2.8510430861450687e-05
sS'NGT'
p1703
F0.002039197181762879
sS'KSD'
p1704
F0.0027173875330479018
sS'KSG'
p1705
F0.0013106393848663705
sS'KSF'
p1706
F1.1179809110542097e-06
sS'NGP'
p1707
F0.2830863046435928
sS'HDB'
p1708
F0.0
sS'NGR'
p1709
F1.9903908357113535e-05
sS'KSB'
p1710
F0.0001248619913365837
sS'HDN'
p1711
F2.1340468224424123e-05
sS'KSN'
p1712
F0.0
sS'HDK'
p1713
F0.0
sS'KSH'
p1714
F0.0
sS'BAMR'
p1715
F0.0
sS'KSJ'
p1716
F0.0014129408061690698
sS'BMB'
p1717
F9.012080629443351e-05
sS'MGAE'
p1718
F3.9008003703327944e-05
sS'VLNK'
p1719
F0.0
sS'BMF'
p1720
F0.0
sS'HRNR'
p1721
F3.8551065898421027e-07
sS'SZM'
p1722
F0.0008140973606610715
sS'DNRP'
p1723
F0.0008925150173467556
sS'BMH'
p1724
F0.000338223921553207
sS'BMI'
p1725
F0.0017790482873589583
sS'TPTY'
p1726
F0.0011219343602333577
sS'BMR'
p1727
F0.00034002040122407346
sS'SOJN'
p1728
F0.00113619628969118
sS'BMT'
p1729
F0.0012601468588648238
sS'BMU'
p1730
F0.000678768617273499
sS'SZR'
p1731
F0.00033597253930473924
sS'TPTN'
p1732
F0.0
sS'DNRE'
p1733
F0.0
sS'SHR'
p1734
F0.0008508728931144988
sS'SHU'
p1735
F2.158140773268907e-05
sS'EE'
p1736
F0.001343574766826861
sS'ED'
p1737
F0.039033383172465304
sS'JTW'
p1738
F0.00010189272903900224
sS'JTO'
p1739
F0.0013596189921055127
sS'SHC'
p1740
F0.0
sS'JTI'
p1741
F0.0004291359987752613
sS'SHE'
p1742
F0.00017908744551202509
sS'SHF'
p1743
F0.0020387345689720977
sS'JTJ'
p1744
F0.0018464151002715455
sS'ET'
p1745
F0.06949777930447473
sS'JTG'
p1746
F0.001685992316001545
sS'SHK'
p1747
F0.0009627081251216846
sS'SHM'
p1748
F0.0
sS'JTB'
p1749
F3.084085271873682e-07
sS'GZN'
p1750
F0.0
sS'GZO'
p1751
F0.006105100999937547
sS'NASP'
p1752
F0.0
sS'RPUR'
p1753
F0.0
sS'BDWS'
p1754
F0.00014794098769429104
sS'MGF'
p1755
F0.0
sS'MGE'
p1756
F0.0
sS'BSKH'
p1757
F0.0013596189921055127
sS'RJPB'
p1758
F9.888348402944993e-07
sS'BBGN'
p1759
F5.320047093982101e-06
sS'GZB'
p1760
F0.020886360150870684
sS'MGN'
p1761
F0.001247239754962631
sS'REWA'
p1762
F0.0
sS'MGS'
p1763
F0.06779923354351597
sS'TBH'
p1764
F0.004750570748530626
sS'BDWD'
p1765
F4.009310853435787e-07
sS'TBM'
p1766
F4.6261279078105225e-07
sS'TBN'
p1767
F0.0
sS'KDJR'
p1768
F0.0006242478423575567
sS'MGX'
p1769
F0.0
sS'GHX'
p1770
F0.0
sS'LUR'
p1771
F0.0023601318468143683
sS'SNC'
p1772
F0.0
sS'VJP'
p1773
F0.0
sS'RVKH'
p1774
F4.208332087338405e-05
sS'WPR'
p1775
F0.0
sS'MLAR'
p1776
F0.0020387345689720972
sS'GHY'
p1777
F0.06323651618643603
sS'NRGR'
p1778
F0.00048243599305922965
sS'RMC'
p1779
F0.0
sS'SDAH'
p1780
F0.004917730209332834
sS'DTC'
p1781
F0.0006797709449868579
sS'LNN'
p1782
F1.9198430817413674e-06
sS'DKNT'
p1783
F0.0008617324485188743
sS'RMD'
p1784
F0.0020387345689720985
sS'TLU'
p1785
F0.0
sS'TLY'
p1786
F0.00044859178264505914
sS'GTK'
p1787
F1.1565319769526308e-07
sS'GTL'
p1788
F0.010460564683021817
sS'GTM'
p1789
F0.004305264954357956
sS'TLC'
p1790
F0.0
sS'GTS'
p1791
F0.0006656564581351493
sS'GTT'
p1792
F0.0
sS'TLD'
p1793
F0.00016908702941319183
sS'TLJ'
p1794
F1.1565319769526308e-07
sS'TLH'
p1795
F0.0003615127755771078
sS'KEM'
p1796
F0.0
sS'KEK'
p1797
F0.0
sS'KEJ'
p1798
F1.1565319769526308e-07
sS'BHLP'
p1799
F0.0001288992944542113
sS'KEH'
p1800
F0.0
sS'KEG'
p1801
F1.927553294921051e-07
sS'HVD'
p1802
F0.0
sS'KEA'
p1803
F8.041568246674483e-05
sS'BHLE'
p1804
F0.000680040802448147
sS'BTG'
p1805
F0.00022436614330087533
sS'HVR'
p1806
F0.0017502244896550128
sS'KMTI'
p1807
F0.0
sS'MRDW'
p1808
F5.782659884763154e-08
sS'SKND'
p1809
F0.006166734557549524
sS'DGHR'
p1810
F0.0020387345689720977
sS'CMW'
p1811
F0.0027173875330479013
sS'SINI'
p1812
F0.00021272483675958167
sS'MRDL'
p1813
F0.0
sS'TLV'
p1814
F0.000328764925518597
sS'RPR'
p1815
F5.397149225778943e-07
sS'UCR'
p1816
F0.0018193058619852176
sS'PNBE'
p1817
F0.08661560537299007
sS'RPZ'
p1818
F0.0018276559026590147
sS'MAHE'
p1819
F0.0
sS'RPD'
p1820
F1.849274089934573e-05
sS'UCA'
p1821
F1.927553294921051e-07
sS'SGAM'
p1822
F0.000559041912717307
sS'RPH'
p1823
F0.01634912542404415
sS'RPJ'
p1824
F0.0013560305047535849
sS'KRIH'
p1825
F4.973087500896313e-07
sS'ALJN'
p1826
F0.0031777333137546003
sS'VTJ'
p1827
F1.1565319769526308e-07
sS'RBZ'
p1828
F1.927553294921051e-07
sS'VTM'
p1829
F0.0
sS'RBS'
p1830
F0.00021487017250137558
sS'KTGA'
p1831
F0.0010185326539093478
sS'BEAS'
p1832
F0.0003399818501581751
sS'RBL'
p1833
F0.008388687098996267
sS'RBK'
p1834
F6.418998790383933e-05
sS'RBG'
p1835
F0.0006682384744997077
sS'RBD'
p1836
F1.9820639629256715e-06
sS'SDN'
p1837
F0.0003308336822204798
sS'RBA'
p1838
F0.0
sS'LGH'
p1839
F0.004459202700390344
sS'RMPB'
p1840
F2.3130639539052615e-07
sS'LGL'
p1841
F0.0
sS'KAJG'
p1842
F1.6711887066965517e-06
sS'ATMO'
p1843
F0.0
sS'OTP'
p1844
F7.085886088137493e-05
sS'SMNH'
p1845
F0.0
sS'LGT'
p1846
F0.0013593105835783253
sS'DZA'
p1847
F0.00022204251092482639
sS'NAC'
p1848
F0.00021342172442665366
sS'JU'
p1849
F0.017220477955026084
sS'JP'
p1850
F0.038046973891282206
sS'SEGM'
p1851
F0.0011714459038722333
sS'JM'
p1852
F0.0
sS'MHRG'
p1853
F0.003650676528716037
sS'NAD'
p1854
F0.005276611138181944
sS'BNVD'
p1855
F0.0007362810249340177
sS'HBJ'
p1856
F0.0007600277183904608
sS'SCC'
p1857
F0.0016986228315111842
sS'NAK'
p1858
F0.0009181250259530666
sS'BOR'
p1859
F0.00034055791322859996
sS'BNDP'
p1860
F0.004073999542013337
sS'IAA'
p1861
F0.0005342493830932478
sS'KKGM'
p1862
F6.939191861715785e-07
sS'BNDA'
p1863
F0.0013330669931586906
sS'BJ'
p1864
F0.0
sS'BNDM'
p1865
F0.00025452695575343287
sS'PHK'
p1866
F1.927553294921051e-07
sS'MZP'
p1867
F0.0008951925440619755
sS'KEI'
p1868
F2.6049755194105365e-05
sS'MZR'
p1869
F0.0
sS'KHMA'
p1870
F0.0020387345689720977
sS'PHA'
p1871
F0.000422834684185495
sS'PHD'
p1872
F0.000858330633528418
sS'CHNR'
p1873
F1.1565319769526308e-07
sS'MBF'
p1874
F0.0
sS'MXR'
p1875
F0.0006799637003163501
sS'MZC'
p1876
F0.0
sS'MZL'
p1877
F6.939191861715785e-07
sS'PHR'
p1878
F0.0030183124431625683
sS'SKT'
p1879
F2.120308624413156e-07
sS'MSDN'
p1880
F0.0
sS'RMGM'
p1881
F0.0006708632912677848
sS'KLAR'
p1882
F0.0
sS'SKP'
p1883
F0.0
sS'SKS'
p1884
F0.0
sS'STBJ'
p1885
F0.0007769798230918818
sS'SKY'
p1886
F0.0054273732614433055
sS'BOY'
p1887
F0.0016618452520565138
sS'BNXR'
p1888
F5.782659884763154e-08
sS'SKB'
p1889
F0.001572226986329263
sS'SKM'
p1890
F1.927553294921051e-07
sS'VMA'
p1891
F0.0018269707524688067
sS'SKI'
p1892
F0.0037349043663708263
sS'SKJ'
p1893
F0.0
sS'BDTS'
p1894
F8.377965880043548e-05
sS'JUD'
p1895
F2.4278514171165897e-05
sS'DMG'
p1896
F0.0
sS'TCR'
p1897
F0.029756914430159567
sS'BOE'
p1898
F0.0033512727563315193
sS'MFP'
p1899
F0.009391679761439151
sS'MFQ'
p1900
F7.160549877547337e-05
sS'AONI'
p1901
F0.0013596189921055127
sS'GED'
p1902
F0.0
sS'JGJ'
p1903
F0.0
sS'KAMG'
p1904
F1.3878383723431571e-06
sS'JGM'
p1905
F0.00039419056679735037
sS'MHH'
p1906
F4.818883237302628e-07
sS'GKP'
p1907
F0.02320427187779061
sS'MHD'
p1908
F2.259661548810735e-05
sS'DDP'
p1909
F0.0
sS'JGD'
p1910
F0.0003399047480263782
sS'MKDI'
p1911
F0.00016340916224230989
sS'GKH'
p1912
F5.432913032577418e-05
sS'GKK'
p1913
F4.626127907810523e-07
sS'GKJ'
p1914
F0.0013596189921055127
sS'DDN'
p1915
F0.0010180950993114008
sS'DDL'
p1916
F0.0
sS'BRMO'
p1917
F0.0008347505079848137
sS'JGR'
p1918
F2.699384915584523e-05
sS'DDE'
p1919
F0.00015771764741344686
sS'MHQ'
p1920
F0.00016044819596486602
sS'SSIA'
p1921
F2.3130639539052615e-07
sS'ANF'
p1922
F0.0013596189921055127
sS'ANG'
p1923
F0.00010612301856212043
sS'NVS'
p1924
F0.0008529013646164282
sS'SUJH'
p1925
F0.00019738690640805538
sS'ANH'
p1926
F0.0032539226518770526
sS'ANK'
p1927
F0.0
sS'NVG'
p1928
F0.005428529793420258
sS'ANV'
p1929
F0.00047403918858577145
sS'CKTD'
p1930
F0.0032693393005884214
sS'GDYA'
p1931
F1.811900097225788e-06
sS'ANY'
p1932
F0.001359618992105513
sS'GWD'
p1933
F6.506994211000296e-05
sS'TMR'
p1934
F1.927553294921051e-07
sS'GWA'
p1935
F0.0
sS'TMV'
p1936
F0.0
sS'TMX'
p1937
F3.084085271873682e-07
sS'GWL'
p1938
F0.005204554387994313
sS'TMZ'
p1939
F0.003396503109914486
sS'TMKA'
p1940
F0.004818350447505819
sS'GWV'
p1941
F0.0
sS'TME'
p1942
F0.0
sS'GWS'
p1943
F0.0
sS'NNR'
p1944
F0.00022284884226190428
sS'KDM'
p1945
F0.0
sS'KKDI'
p1946
F0.0015035179474147
sS'KOAA'
p1947
F0.005148919074593484
sS'HWH'
p1948
F0.03179864969519448
sS'KDG'
p1949
F0.0
sS'VVM'
p1950
F0.0013596189921055127
sS'KKDE'
p1951
F0.00022174757951818794
sS'NJP'
p1952
F0.10800513290072844
sS'BHME'
p1953
F6.092370136253584e-06
sS'KDZ'
p1954
F0.004751611627309883
sS'NJT'
p1955
F0.0007505753226666088
sS'ADR'
p1956
F0.0006692189675209472
sS'KDU'
p1957
F0.0
sS'KDP'
p1958
F1.9192974259873065e-06
sS'KRY'
p1959
F0.0013600969046370429
sS'NDL'
p1960
F0.0007577177580416926
sS'NDO'
p1961
F1.1565319769526308e-07
sS'KRR'
p1962
F0.005955389604619946
sS'KRS'
p1963
F0.0
sS'NDB'
p1964
F0.010828827491496766
sS'NDD'
p1965
F2.5906316283738932e-06
sS'KRJ'
p1966
F0.0010353038505212385
sS'KRH'
p1967
F0.00046142671779771956
sS'HEM'
p1968
F7.757237750313934e-05
sS'BALU'
p1969
F0.002737133232845883
sS'KRA'
p1970
F0.003395577884332924
sS'NDU'
p1971
F0.0
sS'KRG'
p1972
F0.0010163994772468972
sS'KRD'
p1973
F0.0028158771723755614
sS'KRE'
p1974
F0.0
sS'BJF'
p1975
F0.00021751337474156692
sS'BJE'
p1976
F0.0014365365720984595
sS'BJD'
p1977
F0.0
sS'SKLR'
p1978
F0.0008893260460902701
sS'BJO'
p1979
F0.0005857650647421531
sS'SGLA'
p1980
F0.0003583403641825565
sS'VVB'
p1981
F0.0
sS'BJW'
p1982
F0.0003329096571191101
sS'BJU'
p1983
F0.045507928169844
sS'BJR'
p1984
F0.00021681143601312165
sS'BJP'
p1985
F0.005641981224171117
sS'NNP'
p1986
F0.002561779757420207
sS'UHL'
p1987
F0.0010198298972768298
sS'KRNT'
p1988
F0.018938152440025044
sS'WSA'
p1989
F4.6965382037469715e-05
sS'HYB'
p1990
F0.0
sS'CBN'
p1991
F0.00023216508124784943
sS'WSJ'
p1992
F0.0015967388882335246
sS'HYT'
p1993
F0.00033882531818122243
sS'ARCL'
p1994
F0.0006800408024481469
sS'RWO'
p1995
F1.7347979654289461e-07
sS'FAN'
p1996
F0.0
sS'MQ'
p1997
F0.0
sS'LEDO'
p1998
F0.0
sS'UHP'
p1999
F0.0
sS'GJUT'
p2000
F5.782659884763153e-07
sS'LLR'
p2001
F6.625565204291393e-05
sS'VKR'
p2002
F0.00025113611006827616
sS'HMT'
p2003
F0.001567613573146725
sS'ADRA'
p2004
F0.00244066421839231
sS'VKI'
p2005
F1.1565319769526308e-07
sS'DMRT'
p2006
F0.0
sS'VKN'
p2007
F0.0003364354469970417
sS'VKA'
p2008
F0.0
sS'VKB'
p2009
F0.0036918452867581294
sS'SVA'
p2010
F1.349287306444736e-07
sS'SBLT'
p2011
F1.1565319769526308e-07
sS'MKPR'
p2012
F0.0
sS'BQR'
p2013
F0.0
sS'PURI'
p2014
F0.0
sS'AGTL'
p2015
F0.0
sS'KNPR'
p2016
F0.0
sS'PANP'
p2017
F0.0
sS'BQP'
p2018
F0.0019132179185481198
sS'CCT'
p2019
F0.0006800408024481469
sS'CCH'
p2020
F0.0006324154320344318
sS'DARA'
p2021
F0.0
sS'DMRX'
p2022
F0.0
sS'BZR'
p2023
F0.0
sS'MYY'
p2024
F0.0
sS'PUNE'
p2025
F0.08314030772074466
sS'SBPD'
p2026
F0.0013378047122820183
sS'PIL'
p2027
F0.0006962339446360633
sS'PIA'
p2028
F0.0
sS'MYS'
p2029
F0.0018785894765336786
sS'MYR'
p2030
F0.0003475433306467171
sS'BMKI'
p2031
F0.0017793918345316913
sS'MYA'
p2032
F0.0013445916247331801
sS'ASKN'
p2033
F0.0005805584541574302
sS'MYD'
p2034
F0.00033539427331626294
sS'SBPY'
p2035
F0.0006745394651189926
sS'POK'
p2036
F0.0
sS'CAER'
p2037
F0.0006913348292195237
sS'DOA'
p2038
F0.00017741181829910126
sS'CQA'
p2039
F0.004073305622827166
sS'SMR'
p2040
F0.004123758848161302
sS'GRKN'
p2041
F0.0020387345689720977
sS'DUBH'
p2042
F0.0
sS'AKT'
p2043
F0.0012909822942788478
sS'ON'
p2044
F0.0030692081476232135
sS'PLJE'
p2045
F0.0
sS'UBR'
p2046
F0.00022377444401861592
sS'ALER'
p2047
F0.0005233964080999775
sS'SML'
p2048
F0.0
sS'GLGT'
p2049
F0.0027116241486960873
sS'UBC'
p2050
F0.0
sS'UBL'
p2051
F0.012202167536647242
sS'SMK'
p2052
F0.0
sS'RQJ'
p2053
F2.4557028977294193e-06
sS'KANO'
p2054
F0.0003394421352355971
sS'CUPJ'
p2055
F0.0020911712086142745
sS'SMI'
p2056
F0.0006684370581151384
sS'DGLE'
p2057
F3.413608181205369e-05
sS'MWT'
p2058
F0.0
sS'DER'
p2059
F0.0
sS'DES'
p2060
F0.0006407630314567774
sS'GJS'
p2061
F0.00013252419410226046
sS'JDB'
p2062
F0.0
sS'NRDP'
p2063
F0.0001907721262605077
sS'GJL'
p2064
F0.0014588242429258132
sS'GJH'
p2065
F0.0006791772585720222
sS'MWK'
p2066
F0.0027173875330479013
sS'MWJ'
p2067
F0.00024349133356562288
sS'DEB'
p2068
F0.0
sS'DEC'
p2069
F0.003375705577976446
sS'DEE'
p2070
F0.000988809587009557
sS'MWM'
p2071
F0.0
sS'DEG'
p2072
F1.1565319769526308e-07
sS'AMI'
p2073
F0.0
sS'AMH'
p2074
F0.0011103085420975677
sS'KBRV'
p2075
F0.0
sS'NWP'
p2076
F0.00045397735201977877
sS'AML'
p2077
F0.0
sS'NWR'
p2078
F0.00010528200294512845
sS'SMC'
p2079
F0.0006800408024481469
sS'AMB'
p2080
F0.0002945865377935167
sS'AME'
p2081
F0.001349175925249444
sS'AMG'
p2082
F1.7649963003827091e-06
sS'NWD'
p2083
F0.0009673944660223824
sS'NWA'
p2084
F0.0027173875330479013
sS'NWB'
p2085
F0.0
sS'AMP'
p2086
F0.0
sS'KLNK'
p2087
F0.0009960489713489184
sS'DMGN'
p2088
F0.0
sS'BSX'
p2089
F0.0006154731071463547
sS'CBSA'
p2090
F0.0093717682093705
sS'RCTC'
p2091
F0.0027173875330479013
sS'ANGL'
p2092
F0.000795555247833021
sS'BNWC'
p2093
F0.00036586592030735
sS'MNAE'
p2094
F0.00016001463130741467
sS'KHRK'
p2095
F0.00031394357574540644
sS'KHRJ'
p2096
F7.536919731338442e-05
sS'KLRE'
p2097
F8.481234497652625e-07
sS'NEO'
p2098
F0.0
sS'KUX'
p2099
F0.0003399047480263782
sS'GNW'
p2100
F1.1565319769526308e-07
sS'BSP'
p2101
F0.04594259172698975
sS'NED'
p2102
F0.0010731847617690745
sS'KUR'
p2103
F0.01080769920937565
sS'KUN'
p2104
F0.00132073093163705
sS'KUH'
p2105
F0.00043725466526296113
sS'NEW'
p2106
F1.1565319769526307e-06
sS'KUE'
p2107
F1.927553294921051e-07
sS'KUD'
p2108
F0.0003404059118830577
sS'HSRA'
p2109
F8.53121168270017e-05
sS'KUA'
p2110
F0.0
sS'BHTN'
p2111
F2.3130639539052615e-07
sS'BKG'
p2112
F0.0
sS'MUGR'
p2113
F0.0
sS'CGS'
p2114
F0.0
sS'BKL'
p2115
F0.0
sS'RMNP'
p2116
F0.0001909918673361287
sS'BKN'
p2117
F0.005063601492255754
sS'BKO'
p2118
F0.00021791160057604936
sS'BKH'
p2119
F0.0
sS'BKI'
p2120
F0.0033461793330699457
sS'BKJ'
p2121
F0.0
sS'HMH'
p2122
F0.00543948628639011
sS'BKP'
p2123
F0.0075669587509661134
sS'GGA'
p2124
F0.00019540709555377456
sS'BUDI'
p2125
F0.004271225605655657
sS'BUDM'
p2126
F0.0
sS'BHTK'
p2127
F0.00023414240940171263
sS'KTE'
p2128
F0.01698212163781164
sS'BURN'
p2129
F5.591907208044993e-07
sS'GGC'
p2130
F0.00033485551488832924
sS'SJP'
p2131
F0.0014838138572800363
sS'BUPH'
p2132
F1.3627801795091834e-06
sS'DHRR'
p2133
F0.0
sS'SJT'
p2134
F0.0
sS'AADR'
p2135
F0.0
sS'KNLS'
p2136
F0.0
sS'MGG'
p2137
F3.4695959308578923e-07
sS'BONA'
p2138
F0.00018457090733101872
sS'CRLM'
p2139
F3.855106589842103e-07
sS'LGO'
p2140
F4.627009754593103e-06
sS'JRG'
p2141
F0.003395577884332924
sS'MED'
p2142
F0.0010574357067157955
sS'GDR'
p2143
F0.020103152122658414
sS'JRC'
p2144
F0.009716864759040468
sS'GADJ'
p2145
F0.0007397839232829331
sS'GDX'
p2146
F0.0
sS'GDZ'
p2147
F0.0013596189921055127
sS'JRK'
p2148
F1.1565319769526308e-07
sS'SMBL'
p2149
F0.0
sS'MEJ'
p2150
F0.002730317852112913
sS'KDHA'
p2151
F0.0001980674221796838
sS'GDA'
p2152
F0.0015524678862689132
sS'JRU'
p2153
F0.00019466013043715954
sS'MEP'
p2154
F9.854883274635423e-05
sS'GDG'
p2155
F0.003977700788506653
sS'SMBJ'
p2156
F7.103306032986374e-05
sS'GGJ'
p2157
F0.00019920955692964338
sS'GDL'
p2158
F0.007772477006216746
sS'MEX'
p2159
F1.459433209011653e-06
sS'GDO'
p2160
F0.00047927499138823856
sS'DHNE'
p2161
F0.004303504245540546
sS'LWR'
p2162
F0.0
sS'YNK'
p2163
F0.0015003464740898777
sS'BHLK'
p2164
F0.000593768639857002
sS'HLAR'
p2165
F1.927553294921051e-07
sS'TU'
p2166
F0.00028922866067986156
sS'TR'
p2167
F0.0
sS'TP'
p2168
F0.0007144771692505132
sS'VDL'
p2169
F0.0
sS'TN'
p2170
F0.000339789094828683
sS'TL'
p2171
F0.0
sS'TJ'
p2172
F0.0035899004424325095
sS'TK'
p2173
F0.002175881498156472
sS'MFKA'
p2174
F3.084085271873682e-07
sS'TA'
p2175
F0.0
sS'AB'
p2176
F0.0
sS'CHJ'
p2177
F0.0
sS'AD'
p2178
F0.0010271380141900614
sS'VZM'
p2179
F0.01977630355840675
sS'AF'
p2180
F0.07659462100123558
sS'AI'
p2181
F0.0003399047480263783
sS'AH'
p2182
F2.1184809306450363e-05
sS'AK'
p2183
F0.008526686118752002
sS'GVG'
p2184
F0.0
sS'AO'
p2185
F0.0013550410973583557
sS'AN'
p2186
F0.0005293477099709292
sS'TNA'
p2187
F5.78093932297895e-05
sS'AY'
p2188
F0.0014955116749605973
sS'BDCR'
p2189
F0.0006800408024481469
sS'SME'
p2190
F0.0
sS'AZ'
p2191
F0.0036882043020452205
sS'KGQ'
p2192
F0.004472381355023979
sS'KGP'
p2193
F0.05784311416040542
sS'RRME'
p2194
F0.00024981801476777073
sS'NKD'
p2195
F0.0
sS'NKE'
p2196
F0.0024082870609220992
sS'KGX'
p2197
F0.00023165076591642652
sS'NKJ'
p2198
F0.0
sS'NKM'
p2199
F3.5347221819670215e-05
sS'BVRM'
p2200
F0.0
sS'KGA'
p2201
F0.00013567108326130036
sS'KGB'
p2202
F0.0021941919764575536
sS'KGG'
p2203
F0.008158691690492206
sS'BHBK'
p2204
F0.0
sS'KGI'
p2205
F0.0006708632912677852
sS'KGM'
p2206
F0.0
sS'KGL'
p2207
F0.0
sS'CPH'
p2208
F0.006524147526980581
sS'CPJ'
p2209
F0.0012379322260334222
sS'GNVR'
p2210
F4.7973155636392984e-05
sS'CPN'
p2211
F0.0
sS'CKD'
p2212
F0.00023881491497766723
sS'CPA'
p2213
F0.0024324946500905546
sS'CPP'
p2214
F0.0006965541295479684
sS'RAJP'
p2215
F6.939191861715785e-07
sS'CPR'
p2216
F0.01069630728071771
sS'CPS'
p2217
F9.95407118486712e-05
sS'CPT'
p2218
F7.710213179684205e-08
sS'CPU'
p2219
F0.011241156152415352
sS'MRBL'
p2220
F0.0
sS'MANU'
p2221
F0.003395577884332924
sS'BGPL'
p2222
F0.00549254250252769
sS'KTSH'
p2223
F3.084085271873682e-07
sS'PAW'
p2224
F0.00012333483820090965
sS'NILE'
p2225
F3.413608181205369e-05
sS'NTSK'
p2226
F0.00745691340119863
sS'MANG'
p2227
F0.0006784216576804132
sS'UAA'
p2228
F0.0
sS'HZD'
p2229
F2.533418341938282e-06
sS'SHTT'
p2230
F0.0
sS'HNS'
p2231
F0.00021117215649759852
sS'PUN'
p2232
F0.0
sS'WRR'
p2233
F0.000656562131892823
sS'WRS'
p2234
F0.00020530813751298228
sS'HZR'
p2235
F0.00033951923736739406
sS'KTES'
p2236
F0.006104138477059265
sS'KYOP'
p2237
F0.00020380264066311056
sS'ADI'
p2238
F0.08436684878802368
sS'KESR'
p2239
F0.000837278074246965
sS'RMRB'
p2240
F0.0
sS'BGSF'
p2241
F0.00024519423306064924
sS'CHP'
p2242
F0.0
sS'LAU'
p2243
F0.00047168945791243867
sS'LAV'
p2244
F0.0004729692709936518
sS'LAR'
p2245
F0.0018307031030754426
sS'SNKL'
p2246
F0.0027173875330479018
sS'SGUJ'
p2247
F0.0025965794223848848
sS'DTO'
p2248
F0.0027550287463333407
sS'TNKU'
p2249
F0.004108521808492293
sS'BLTR'
p2250
F0.0013670230654862414
sS'PNVL'
p2251
F0.06309298197427787
sS'MMM'
p2252
F0.0003399047480263783
sS'SBC'
p2253
F0.007023338495805727
sS'PUX'
p2254
F0.0020388502221697926
sS'GVN'
p2255
F0.0
sS'MMH'
p2256
F0.0
sS'FTP'
p2257
F0.0026902044106177493
sS'FTS'
p2258
F7.214556618133078e-07
sS'BDN'
p2259
F0.0
sS'SBD'
p2260
F0.0007450072232220425
sS'IGP'
p2261
F0.00063281119642008
sS'PUT'
p2262
F0.000302938969887048
sS'FTG'
p2263
F1.1565319769526308e-07
sS'BDU'
p2264
F3.5929593417328393e-06
sS'CBF'
p2265
F1.1118011187811248e-05
sS'CBE'
p2266
F0.015111988090211262
sS'CBJ'
p2267
F0.0
sS'CBK'
p2268
F0.0
sS'MXT'
p2269
F0.0
sS'RUPC'
p2270
F0.0017769449002963125
sS'CBM'
p2271
F1.2065218595778252e-05
sS'MXN'
p2272
F0.017890990693001672
sS'SKZR'
p2273
F0.00909907604466976
sS'MXK'
p2274
F0.0
sS'MXH'
p2275
F0.0003802404392066473
sS'CBZ'
p2276
F0.006103713161565204
sS'MRPR'
p2277
F0.0026768799274194503
sS'MHV'
p2278
F0.0
sS'MXA'
p2279
F0.0027173875330479013
sS'BZU'
p2280
F0.005218389462767838
sS'SMZ'
p2281
F0.0
sS'SANR'
p2282
F1.991638183687257e-06
sS'SMT'
p2283
F0.0
sS'GIMB'
p2284
F0.0020387345689720985
sS'BZY'
p2285
F0.0
sS'PERN'
p2286
F0.0
sS'SMO'
p2287
F0.0
sS'FA'
p2288
F0.0017267507763881144
sS'KOJ'
p2289
F6.010111173563838e-06
sS'FD'
p2290
F0.005617246389060432
sS'MQO'
p2291
F0.0
sS'BZA'
p2292
F0.22857111903824098
sS'BZO'
p2293
F0.0
sS'BZN'
p2294
F7.710213179684205e-08
sS'BZM'
p2295
F0.0015171996471224933
sS'FK'
p2296
F0.0006307723187114102
sS'FL'
p2297
F0.002047802478495887
sS'FM'
p2298
F0.0003396888620573471
sS'CROA'
p2299
F0.0
sS'MDJ'
p2300
F0.00014380455451236458
sS'JSG'
p2301
F0.013919724525113454
sS'MDN'
p2302
F0.002344967872922875
sS'NPNR'
p2303
F0.0
sS'MDL'
p2304
F0.0002169525714427843
sS'GGR'
p2305
F0.0003141565510167344
sS'MDB'
p2306
F2.6985746128894714e-07
sS'JSM'
p2307
F0.0003397890948286829
sS'BRYA'
p2308
F0.0009709778769411982
sS'KON'
p2309
F0.0
sS'MDE'
p2310
F0.0002564278480926455
sS'JSV'
p2311
F0.0
sS'JSP'
p2312
F0.0003394421352355971
sS'MDVL'
p2313
F0.0
sS'JSR'
p2314
F0.0
sS'AMLA'
p2315
F0.007456971227797478
sS'MDR'
p2316
F0.000673151804655625
sS'MDS'
p2317
F0.002978429962372977
sS'MDP'
p2318
F0.002325729598206154
sS'GGN'
p2319
F0.0005868034831782984
sS'KZTW'
p2320
F0.0
sS'MDW'
p2321
F0.0
sS'MDU'
p2322
F0.031744386869017156
sS'JER'
p2323
F0.0012138879101819887
sS'JES'
p2324
F0.0012220182917547942
sS'LUSA'
p2325
F1.927553294921051e-07
sS'THUR'
p2326
F0.0
sS'BPHB'
p2327
F0.0002482851578916898
sS'MVI'
p2328
F6.962322501254838e-06
sS'MVJ'
p2329
F0.00318311137964753
sS'MVN'
p2330
F0.0003401360544217688
sS'MVO'
p2331
F0.0
sS'ALJ'
p2332
F0.0
sS'ALD'
p2333
F0.17558679332016322
sS'ALB'
p2334
F1.4610853975501567e-06
sS'NTV'
p2335
F0.0
sS'ALY'
p2336
F0.0002622997729328491
sS'SHNG'
p2337
F0.0
sS'ALU'
p2338
F0.0018674936534373678
sS'GQL'
p2339
F0.0
sS'YL'
p2340
F0.0007532690768705965
sS'HNL'
p2341
F0.0013995384264439495
sS'YA'
p2342
F0.001189019332170978
sS'HTK'
p2343
F0.0010199841015404232
sS'YG'
p2344
F0.00031549790284707383
sS'SYWN'
p2345
F1.0408787792573676e-06
sS'KSWR'
p2346
F0.0
sS'BAO'
p2347
F0.0
sS'YP'
p2348
F0.0
sS'BAL'
p2349
F1.9044226553819988e-06
sS'HIP'
p2350
F0.0
sS'HIR'
p2351
F3.3991025532150642e-06
sS'NHN'
p2352
F0.0010080583324860203
sS'NHH'
p2353
F0.0005333923899762625
sS'NHK'
p2354
F0.000566700668706791
sS'NHT'
p2355
F0.0009490914087361073
sS'KFA'
p2356
F0.0004086897081609242
sS'HIJ'
p2357
F0.01928632231878643
sS'BAI'
p2358
F0.0001867685197840936
sS'HIL'
p2359
F0.0013596189921055125
sS'KRPU'
p2360
F0.004071031109939159
sS'RGDA'
p2361
F0.01453138455563301
sS'KTX'
p2362
F0.0013596189921055127
sS'NZT'
p2363
F0.0027173875330479018
sS'KTU'
p2364
F0.00010149484493732829
sS'HGT'
p2365
F0.0011863410361000156
sS'KTW'
p2366
F0.0
sS'KTQ'
p2367
F2.9617106708058696e-06
sS'BANE'
p2368
F0.0
sS'NZB'
p2369
F0.005666278168370978
sS'ABR'
p2370
F0.018737209931400833
sS'KTO'
p2371
F0.0013596189921055127
sS'KTH'
p2372
F0.00031559635884763966
sS'HGH'
p2373
F0.0002935306696490695
sS'NZD'
p2374
F0.0003140059731075986
sS'JGNR'
p2375
F0.0006800408024481469
sS'BANO'
p2376
F1.5420426359368409e-06
sS'BANI'
p2377
F0.0
sS'NZM'
p2378
F0.07968005010561474
sS'JIND'
p2379
F0.0010270503283430997
sS'BSGN'
p2380
F0.0
sS'BHL'
p2381
F0.0034472306267118464
sS'BHC'
p2382
F0.00319953877142602
sS'BHB'
p2383
F0.0002711197878918322
sS'BHD'
p2384
F0.0
sS'BHZ'
p2385
F0.0016986756166821257
sS'BAGL'
p2386
F8.635438761246309e-07
sS'CAF'
p2387
F0.0003395577884332924
sS'HTE'
p2388
F0.0015945757111024501
sS'BHS'
p2389
F0.0008761820850209204
sS'BHT'
p2390
F2.3130639539052615e-07
sS'BHW'
p2391
F0.006312407337579409
sS'GNGD'
p2392
F0.0
sS'KKPM'
p2393
F0.0
sS'BAP'
p2394
F0.0
sS'MKRN'
p2395
F0.00025697481186725895
sS'DURE'
p2396
F0.001018943222761166
sS'MKRH'
p2397
F2.3130639539052615e-07
sS'MLNH'
p2398
F0.0006795781896573658
sS'VPZ'
p2399
F0.004750570748530626
sS'RAG'
p2400
F0.0
sS'BAQ'
p2401
F0.0007823919764617625
sS'RAA'
p2402
F0.0
sS'FGR'
p2403
F0.0006793314628356161
sS'LBA'
p2404
F0.0007081585740659648
sS'SBM'
p2405
F0.0
sS'LLGM'
p2406
F0.00034085503180077424
sS'RAY'
p2407
F0.0
sS'MURI'
p2408
F0.007527315630319233
sS'BFD'
p2409
F1.7347979654289461e-07
sS'BFJ'
p2410
F0.004750570748530626
sS'ATNR'
p2411
F0.0006799791207427093
sS'MURD'
p2412
F0.0
sS'BFM'
p2413
F0.0
sS'GMAN'
p2414
F0.0
sS'LPJ'
p2415
F0.0007329887639062934
sS'LPI'
p2416
F0.0006581402246946904
sS'LTHR'
p2417
F0.0003246331038710575
sS'PHN'
p2418
F0.0010765144362320069
sS'MDJN'
p2419
F0.0
sS'VID'
p2420
F0.000333509766562126
sS'MZS'
p2421
F0.0
sS'BIDR'
p2422
F0.0011004533186008772
sS'GHGL'
p2423
F2.3130639539052613e-07
sS'SDNR'
p2424
F0.004073305622827167
sS'STD'
p2425
F1.5760685410048056e-05
sS'FUT'
p2426
F0.0040370525614543944
sS'CLKA'
p2427
F0.0
sS'LHLL'
p2428
F0.0
sS'URPR'
p2429
F0.0
sS'BNGN'
p2430
F0.00021717742973873782
sS'ABD'
p2431
F9.252255815621046e-07
sS'BLGT'
p2432
F0.0006795781896573658
sS'BLGR'
p2433
F0.0018016480440534064
sS'PKR'
p2434
F0.006253597851922172
sS'PKQ'
p2435
F0.0027173875330479013
sS'KHBJ'
p2436
F0.0011501211352497119
sS'PKU'
p2437
F0.001936072145747141
sS'RUSD'
p2438
F0.001333011172924836
sS'DUMK'
p2439
F0.0
sS'RNGG'
p2440
F3.1419118707213138e-06
sS'PKF'
p2441
F0.0
sS'JAMA'
p2442
F0.0006800408024481469
sS'PKD'
p2443
F0.0
sS'ABI'
p2444
F0.0
sS'CHSM'
p2445
F8.376453265391504e-05
sS'PKO'
p2446
F0.0006800408024481469
sS'CSN'
p2447
F0.005898591489229227
sS'CSA'
p2448
F0.0
sS'CSB'
p2449
F0.0
sS'NBR'
p2450
F2.5058192833973667e-07
sS'BKSL'
p2451
F0.0
sS'CSZ'
p2452
F0.0
sS'LUNI'
p2453
F0.00480677867318271
sS'BKSC'
p2454
F0.002036314272238401
sS'TLWA'
p2455
F0.0
sS'KTM'
p2456
F0.0
sS'AKVD'
p2457
F1.395548585522841e-05
sS'KTRH'
p2458
F0.0
sS'THA'
p2459
F0.0
sS'HGL'
p2460
F0.0
sS'SGDP'
p2461
F0.003469966337462085
sS'BGK'
p2462
F0.0033087352994590515
sS'KTRR'
p2463
F1.0023277133589467e-06
sS'ABS'
p2464
F0.0010539536480832599
sS'KUDL'
p2465
F9.95263185920734e-06
sS'MUT'
p2466
F0.0003399047480263782
sS'MUW'
p2467
F7.980070640973152e-07
sS'MUV'
p2468
F6.72963060423888e-05
sS'KTJ'
p2469
F0.0
sS'MUR'
p2470
F0.001947099127964643
sS'NNGL'
p2471
F0.0003397890948286829
sS'KLPM'
p2472
F0.0
sS'KUDA'
p2473
F5.441207586805711e-07
sS'MUE'
p2474
F0.0020771794735881467
sS'MUD'
p2475
F0.0
sS'KAPG'
p2476
F0.0005010098120203466
sS'THVM'
p2477
F2.3204514867663532e-05
sS'JBN'
p2478
F0.0
sS'JL'
p2479
F0.022681212502352183
sS'ASR'
p2480
F0.002370601419758655
sS'DGA'
p2481
F0.002154279181587803
sS'DGG'
p2482
F0.0003404290425225966
sS'AST'
p2483
F0.0
sS'SKR'
p2484
F0.00017052100223519082
sS'NUR'
p2485
F0.00019118863247924336
sS'DGO'
p2486
F2.1203086244131563e-07
sS'NUQ'
p2487
F0.001290486931837002
sS'DGR'
p2488
F0.0024574314104638963
sS'NUJ'
p2489
F0.0
sS'SLGR'
p2490
F0.0037296421458756913
sS'DGU'
p2491
F0.0
sS'ASK'
p2492
F0.007866994954090344
sS'ORAI'
p2493
F0.03784503188554525
sS'NUD'
p2494
F0.002366973764457613
sS'ASH'
p2495
F0.0
sS'ASN'
p2496
F0.026463404977385148
sS'KPGM'
p2497
F0.0
sS'DUI'
p2498
F0.0034620088729082964
sS'DUJ'
p2499
F0.0
sS'CSTM'
p2500
F3.161187403670524e-07
sS'DUA'
p2501
F4.37996850434658e-06
sS'DUB'
p2502
F0.0006165876906324869
sS'DUD'
p2503
F4.490361036610307e-05
sS'BHTA'
p2504
F0.0
sS'PML'
p2505
F0.0
sS'R'
p2506
F0.04794400802737942
sS'BFR'
p2507
F0.0
sS'MCRD'
p2508
F0.0006800408024481471
sS'THDR'
p2509
F0.00046156365561303653
sS'MLPR'
p2510
F0.00016393403287941975
sS'NS'
p2511
F0.0
sS'KK'
p2512
F0.0006324154320344318
sS'KJ'
p2513
F0.0
sS'KI'
p2514
F0.0003383635043893226
sS'KH'
p2515
F2.3130639539052615e-07
sS'KO'
p2516
F1.927553294921051e-07
sS'KN'
p2517
F0.0
sS'ITA'
p2518
F0.0
sS'KS'
p2519
F3.2648163403355644e-06
sS'KP'
p2520
F1.927553294921051e-07
sS'MNGD'
p2521
F0.00166106616512352
sS'KT'
p2522
F0.001669416337064926
sS'SKA'
p2523
F0.0
sS'KY'
p2524
F0.00023822542794488423
sS'NW'
p2525
F0.00034261781659420933
sS'ITR'
p2526
F0.0
sS'GBP'
p2527
F3.084085271873682e-07
sS'AAM'
p2528
F0.003395577884332924
sS'AAL'
p2529
F0.0
sS'AAY'
p2530
F1.9705772972790066e-05
sS'BHRL'
p2531
F0.0
sS'NCH'
p2532
F0.0
sS'BIM'
p2533
F1.81381806786097e-05
sS'KWE'
p2534
F0.0
sS'BIK'
p2535
F0.0008430503827283129
sS'BIH'
p2536
F2.3560208559063586e-06
sS'BIG'
p2537
F0.001138257012043908
sS'BID'
p2538
F0.0
sS'KWM'
p2539
F0.00013235351944247003
sS'BIC'
p2540
F0.0012174269874105032
sS'KWO'
p2541
F0.0
sS'GOM'
p2542
F0.0027173875330479013
sS'KWP'
p2543
F1.1565319769526308e-07
sS'KWR'
p2544
F0.00022707734346144929
sS'BIX'
p2545
F0.0
sS'KWV'
p2546
F0.008330043409391879
sS'SLY'
p2547
F7.710213179684205e-08
sS'JUC'
p2548
F0.018615492623765616
sS'SLT'
p2549
F2.3130639539052615e-07
sS'SLW'
p2550
F0.0
sS'IZN'
p2551
F0.0
sS'SLN'
p2552
F0.002891308903829388
sS'SLO'
p2553
F0.002607472801128438
sS'SLH'
p2554
F0.0
sS'SLI'
p2555
F0.00162924456687513
sS'SLJ'
p2556
F0.0
sS'BHP'
p2557
F0.008549160356239642
sS'SLD'
p2558
F0.00032164742845145454
sS'SLF'
p2559
F0.0
sS'TRVL'
p2560
F0.0
sS'NCB'
p2561
F0.004039713113643221
sS'SLB'
p2562
F0.0
sS'MCN'
p2563
F0.0
sS'JPL'
p2564
F0.0005648435920820595
sS'MCI'
p2565
F0.0008262757683653282
sS'JPE'
p2566
F0.00023590227553893335
sS'JPD'
p2567
F0.0008032443889182285
sS'JPG'
p2568
F0.001580223315056034
sS'BYNR'
p2569
F5.0473264173055524e-05
sS'JPZ'
p2570
F0.0
sS'MCU'
p2571
F0.0
sS'MCS'
p2572
F0.0
sS'MCQ'
p2573
F0.0
sS'SVPR'
p2574
F0.004073305622827166
sS'KLRS'
p2575
F1.4842160370892093e-06
sS'BGH'
p2576
F0.00046918984761762036
sS'MFL'
p2577
F0.0
sS'WANI'
p2578
F0.001013145424875435
sS'SHDM'
p2579
F0.0
sS'BGM'
p2580
F0.0011565754536630216
sS'BGP'
p2581
F0.00918913195537041
sS'BGQ'
p2582
F3.27410364257473e-06
sS'BGS'
p2583
F0.0032061812367814263
sS'PYOL'
p2584
F0.0
sS'BGU'
p2585
F9.067210699308625e-06
sS'BGY'
p2586
F0.0
sS'BGZ'
p2587
F3.185134958653615e-05
sS'YLM'
p2588
F4.3578917980389615e-05
sS'TCN'
p2589
F0.0
sS'VNE'
p2590
F0.006779590448896321
sS'VNB'
p2591
F0.0006800408024481469
sS'VNA'
p2592
F0.0
sS'PRNA'
p2593
F0.0020387345689720977
sS'SDMD'
p2594
F4.498939206110083e-05
sS'WENA'
p2595
F8.095723838668416e-07
sS'DURG'
p2596
F0.00388159385068653
sS'BUI'
p2597
F0.012673500510106336
sS'DDA'
p2598
F0.0003397890948286829
sS'DLPH'
p2599
F1.387838372343157e-06
sS'GPH'
p2600
F0.0
sS'GPD'
p2601
F1.0587118245210373e-05
sS'SONI'
p2602
F0.0006800408024481468
sS'GPB'
p2603
F0.0010422394133098821
sS'GPZ'
p2604
F0.0054273732614433055
sS'THB'
p2605
F0.0008988295749532078
sS'GPR'
p2606
F0.0003396348905650892
sS'JJG'
p2607
F0.0013596189921055125
sS'HJP'
p2608
F0.011147722069393263
sS'NIL'
p2609
F0.0
sS'KIS'
p2610
F0.0
sS'KIR'
p2611
F0.1442564419727223
sS'NIA'
p2612
F4.178247131497797e-06
sS'KIT'
p2613
F0.0004881943879376397
sS'KIK'
p2614
F0.0
sS'KIN'
p2615
F0.0
sS'KIM'
p2616
F1.927553294921051e-07
sS'NIR'
p2617
F0.003395577884332924
sS'HJO'
p2618
F0.0013674834095487906
sS'NIQ'
p2619
F6.939191861715785e-07
sS'HJI'
p2620
F0.0006063234542372294
sS'NIU'
p2621
F0.0
sS'CRR'
p2622
F0.0002414829428931305
sS'CRP'
p2623
F0.0008187257432116149
sS'FDB'
p2624
F0.0014017210576376478
sS'ABLE'
p2625
F0.0
sS'FDK'
p2626
F0.0005890197942197588
sS'CRY'
p2627
F2.6890095294199545e-05
sS'FDN'
p2628
F0.0
sS'SMLA'
p2629
F0.0003310164120265471
sS'BKRO'
p2630
F3.130754502543936e-05
sS'CRJ'
p2631
F0.0025630407762786017
sS'MHJ'
p2632
F0.001531500214335427
sS'CRN'
p2633
F0.0013596189921055127
sS'BKRD'
p2634
F0.0
sS'PS'
p2635
F0.0
sS'PP'
p2636
F0.0054273732614433055
sS'JGN'
p2637
F0.0009888415300382876
sS'KRMR'
p2638
F0.0
sS'PB'
p2639
F2.3130639539052615e-07
sS'PC'
p2640
F0.00025057799953396095
sS'MALM'
p2641
F0.0004934219538752166
sS'DDR'
p2642
F0.0
sS'MALB'
p2643
F0.0004506246943221672
sS'PM'
p2644
F0.0002005061184657085
sS'BLS'
p2645
F0.009838845889080263
sS'FBD'
p2646
F0.0043886962786522715
sS'RV'
p2647
F0.00034039049145669824
sS'S'
p2648
F0.0
sS'MKSR'
p2649
F0.0007339250726472421
sS'SKN'
p2650
F0.0007584621727268813
sS'KTCH'
p2651
F0.0
sS'KMBL'
p2652
F0.0027177884641332454
sS'DOTL'
p2653
F2.3130639539052615e-07
sS'RNH'
p2654
F1.1565319769526308e-07
sS'RNO'
p2655
F0.0
sS'RNC'
p2656
F0.0011912585580903363
sS'RNG'
p2657
F1.159179714995105e-06
sS'RNY'
p2658
F0.03457714327129115
sS'OPL'
p2659
F4.587576841912102e-07
sS'RNR'
p2660
F5.397149225778943e-07
sS'RNQ'
p2661
F0.002920402152782281
sS'SPRD'
p2662
F0.0016971856179851517
sS'RNV'
p2663
F0.0013070840092128634
sS'KPRR'
p2664
F0.0
sS'DVL'
p2665
F0.0
sS'NDLS'
p2666
F0.14005243848173923
sS'UMR'
p2667
F0.003520248781412258
sS'DVD'
p2668
F0.04460486380400114
sS'DVG'
p2669
F0.007554975262460748
sS'BMLL'
p2670
F2.3130639539052615e-07
sS'MABD'
p2671
F0.0006631183259098525
sS'UMD'
p2672
F0.0036867452186851593
sS'MABA'
p2673
F0.0006794432609267215
sS'UMB'
p2674
F0.0711421800002151
sS'SWPR'
p2675
F0.0007119165290115182
sS'MHT'
p2676
F3.084085271873682e-07
sS'IKR'
p2677
F0.0
sS'ANDN'
p2678
F0.0006800408024481469
sS'ANDI'
p2679
F0.0
sS'MSMD'
p2680
F0.00033468107859714217
sS'IKK'
p2681
F1.1565319769526308e-07
sS'MBA'
p2682
F0.001136909139927741
sS'MZM'
p2683
F0.0012651835428407951
sS'ANVT'
p2684
F0.0060886763706275195
sS'ANVR'
p2685
F6.714985557593664e-07
sS'KER'
p2686
F0.0
sS'FZR'
p2687
F0.0029709119050069207
sS'BLDA'
p2688
F0.0003429642496160373
sS'PMKT'
p2689
F0.00034601095443929686
sS'OBR'
p2690
F0.0003395577884332924
sS'WTJ'
p2691
F1.1565319769526308e-07
sS'FZD'
p2692
F8.57676022328397e-05
sS'BILD'
p2693
F1.927553294921051e-07
sS'PLS'
p2694
F0.00033894097137891765
sS'ANB'
p2695
F0.0
sS'PLP'
p2696
F0.0023245799240900113
sS'CDM'
p2697
F0.003526933451183265
sS'PLY'
p2698
F0.0054273732614433055
sS'PLG'
p2699
F5.675246455179997e-05
sS'PSB'
p2700
F0.0
sS'MRND'
p2701
F5.909951832829654e-05
sS'RURA'
p2702
F7.710213179684205e-08
sS'PLO'
p2703
F0.0
sS'PLK'
p2704
F0.000173392874196916
sS'PLJ'
p2705
F0.00023182392338143157
sS'PLI'
p2706
F0.0
sS'BXY'
p2707
F1.8504511631242092e-06
sS'MOP'
p2708
F0.0
sS'BXP'
p2709
F0.0
sS'BXR'
p2710
F0.0027585224635902237
sS'BPK'
p2711
F0.00025984279832915537
sS'TLGP'
p2712
F0.0
sS'BXK'
p2713
F7.710213179684204e-07
sS'BXJ'
p2714
F2.062482025565524e-06
sS'BXM'
p2715
F2.564951601252294e-05
sS'PSD'
p2716
F0.00022406167574060362
sS'BXN'
p2717
F0.001564138212181698
sS'BXA'
p2718
F0.0006800408024481468
sS'PSE'
p2719
F0.0
sS'MNTT'
p2720
F0.0
sS'PPC'
p2721
F0.0
sS'MBM'
p2722
F0.0
sS'SOD'
p2723
F0.0003399047480263782
sS'SOG'
p2724
F0.003044429162343487
sS'PPD'
p2725
F3.4695959308578923e-07
sS'SOH'
p2726
F0.0006875408789033792
sS'PPI'
p2727
F0.002060412560774742
sS'MBG'
p2728
F0.024540567672155567
sS'PPO'
p2729
F0.00033833654573858194
sS'PPN'
p2730
F0.0
sS'MBB'
p2731
F0.0020387345689720977
sS'GAP'
p2732
F0.0
sS'SOP'
p2733
F0.0
sS'SOS'
p2734
F4.8491831103536497e-05
sS'SOR'
p2735
F0.0
sS'GAGA'
p2736
F1.9429737212804197e-06
sS'GAJ'
p2737
F1.1565319769526308e-07
sS'SOW'
p2738
F0.0
sS'PPT'
p2739
F0.00017348776103084655
sS'PPZ'
p2740
F0.0
sS'GAD'
p2741
F0.0
sS'PNU'
p2742
F0.005705383660289922
sS'MBS'
p2743
F0.0
sS'MTY'
p2744
F0.0010843732736195435
sS'ANR'
p2745
F5.591907208044993e-07
sS'MTR'
p2746
F0.00033820850112684764
sS'MTP'
p2747
F0.0
sS'MTPR'
p2748
F2.3130639539052615e-07
sS'MTU'
p2749
F0.0
sS'MTJ'
p2750
F0.02730969521451431
sS'SJN'
p2751
F0.0
sS'MTM'
p2752
F0.0013583468069308649
sS'JCL'
p2753
F0.0
sS'MTC'
p2754
F0.0077269329624208485
sS'HRR'
p2755
F7.826248656742725e-05
sS'MTD'
p2756
F0.003431095364458623
sS'ARQ'
p2757
F0.0013596189921055127
sS'JRNA'
p2758
F0.0013596189921055127
sS'ARV'
p2759
F2.8421684180428235e-05
sS'ARW'
p2760
F0.0001504957664081674
sS'ARA'
p2761
F0.004522433250756979
sS'SNGP'
p2762
F0.0
sS'MLD'
p2763
F0.0006780972895511194
sS'ARD'
p2764
F0.0
sS'WZJ'
p2765
F0.00033145196788688866
sS'ARJ'
p2766
F0.0012475595142846733
sS'TNGL'
p2767
F0.0
sS'BD'
p2768
F0.0016762798744379003
sS'BE'
p2769
F0.008059382451823234
sS'BF'
p2770
F0.0
sS'BG'
p2771
F0.0005287826318632913
sS'BPO'
p2772
F0.0006800408024481469
sS'TMQ'
p2773
F7.981939783562165e-06
sS'BL'
p2774
F0.0023719323504059206
sS'TIU'
p2775
F0.0002265029325795693
sS'BN'
p2776
F3.3362276004997826e-06
sS'TIW'
p2777
F7.5225563995097534e-06
sS'BH'
p2778
F0.0008262897319202644
sS'BCN'
p2779
F0.0012552035620331204
sS'TIR'
p2780
F0.0014076940611312077
sS'TIS'
p2781
F1.1565319769526308e-07
sS'BU'
p2782
F0.0
sS'BV'
p2783
F0.0003399047480263782
sS'VYA'
p2784
F0.000621433280759585
sS'BP'
p2785
F3.855106589842102e-08
sS'KMC'
p2786
F0.0015823210966529324
sS'TIG'
p2787
F0.009945128570351559
sS'VYN'
p2788
F0.0
sS'TIA'
p2789
F5.782659884763153e-07
sS'BORA'
p2790
F0.0015963153772381804
sS'NNO'
p2791
F3.901367868920208e-06
sS'NNN'
p2792
F0.0
sS'NNL'
p2793
F0.0010074153876852446
sS'EKMA'
p2794
F0.0003856854049269849
sS'KHS'
p2795
F2.120308624413156e-07
sS'KHT'
p2796
F2.29774366018459e-06
sS'KHU'
p2797
F0.0
sS'NNA'
p2798
F0.004477108335835171
sS'KHM'
p2799
F1.1565319769526308e-07
sS'BDBA'
p2800
F0.0006800408024481469
sS'NNW'
p2801
F0.0
sS'HKG'
p2802
F0.0
sS'TDPR'
p2803
F0.005139865587046877
sS'RSNR'
p2804
F0.0005444833085900056
sS'NAVI'
p2805
F0.0001304550134745281
sS'GTJT'
p2806
F0.0004930409762686689
sS'KMJ'
p2807
F0.0
sS'CKNI'
p2808
F1.2199882552647935e-06
sS'NXN'
p2809
F0.00022207667528725125
sS'BPP'
p2810
F3.084085271873682e-07
sS'KVG'
p2811
F0.0
sS'BVQ'
p2812
F0.0
sS'BVP'
p2813
F0.00022571649083524538
sS'SQR'
p2814
F0.00033380834509718574
sS'KVM'
p2815
F0.0006796938428550611
sS'KVK'
p2816
F0.00033544164345153534
sS'BVC'
p2817
F0.002369213581386312
sS'KVU'
p2818
F9.08703696177067e-08
sS'KVR'
p2819
F1.1565319769526308e-07
sS'SQN'
p2820
F0.0
sS'SQL'
p2821
F1.927553294921051e-07
sS'BVI'
p2822
F0.004897243403649528
sS'BVH'
p2823
F0.001441329663945034
sS'KVZ'
p2824
F2.211654624064675e-06
sS'BVN'
p2825
F0.0004674393253844113
sS'BVL'
p2826
F1.1565319769526308e-07
sS'JUJA'
p2827
F0.0
sS'MJZ'
p2828
F0.0027173875330479013
sS'JTTN'
p2829
F0.002038252680648367
sS'KAL'
p2830
F0.0
sS'ARGD'
p2831
F0.0
sS'CNS'
p2832
F0.0
sS'ROI'
p2833
F0.0
sS'ROK'
p2834
F0.03820088108270106
sS'ROA'
p2835
F0.0
sS'ICL'
p2836
F0.0
sS'LLJ'
p2837
F6.644459784097146e-06
sS'LLI'
p2838
F3.084085271873682e-07
sS'OSN'
p2839
F3.2048940751425615e-05
sS'ROP'
p2840
F0.0047507635038601176
sS'ROU'
p2841
F0.04528899508028445
sS'BDC'
p2842
F0.003358765730126441
sS'BDM'
p2843
F0.00021738305356209603
sS'BDL'
p2844
F0.00020996294539102562
sS'RHN'
p2845
F1.1565319769526308e-07
sS'BDH'
p2846
F0.0
sS'BDJ'
p2847
F5.992746283015228e-05
sS'GSPR'
p2848
F3.6623512603499975e-07
sS'BDW'
p2849
F0.0
sS'BJUD'
p2850
F0.0
sS'MUPA'
p2851
F2.3130639539052615e-07
sS'BDY'
p2852
F0.0
sS'MLDT'
p2853
F0.035348889230644595
sS'DKGS'
p2854
F0.0003416665317379361
sS'SDLP'
p2855
F0.0035522335817760858
sS'LRJ'
p2856
F0.0038879703272103622
sS'UR'
p2857
F0.0006744839786230306
sS'CNE'
p2858
F0.0006793854343278738
sS'UJ'
p2859
F3.0648097389244715e-06
sS'UD'
p2860
F0.03833439248743203
sS'UA'
p2861
F1.8681846534374825e-05
sS'DBRG'
p2862
F0.0010192901823542519
sS'NRZB'
p2863
F1.1565319769526308e-07
sS'MMY'
p2864
F0.0009602275183293366
sS'IDR'
p2865
F6.8909117717415375e-06
sS'IDH'
p2866
F0.0012348896399730297
sS'IDG'
p2867
F1.5188024673319881e-05
sS'PMT'
p2868
F0.0
sS'PMU'
p2869
F0.0
sS'PMP'
p2870
F0.00016490925577966275
sS'CGL'
p2871
F0.0014741160702150876
sS'PMR'
p2872
F0.00034426619533032036
sS'VRB'
p2873
F0.0
sS'PMY'
p2874
F0.0006590972571200611
sS'ULG'
p2875
F0.010152037693690193
sS'CGY'
p2876
F0.0
sS'UDGR'
p2877
F0.0007093423278221858
sS'KCA'
p2878
F0.0
sS'KPZ'
p2879
F0.0
sS'TVI'
p2880
F0.0020387345689720977
sS'PMN'
p2881
F0.0
sS'CGR'
p2882
F2.3130639539052615e-07
sS'PMK'
p2883
F0.002717387533047902
sS'VHGN'
p2884
F0.0005166316402058242
sS'MINJ'
p2885
F0.0
sS'CUR'
p2886
F0.002307996424430917
sS'MINA'
p2887
F0.00014794098769429104
sS'CUX'
p2888
F0.0
sS'SBBJ'
p2889
F0.0
sS'CUK'
p2890
F1.927553294921051e-07
sS'MMZ'
p2891
F0.0
sS'KDRP'
p2892
F0.003395577884332924
sS'NOMD'
p2893
F0.0
sS'KRLR'
p2894
F0.0023782923574053897
sS'TATA'
p2895
F0.09587533090370959
sS'KRLI'
p2896
F0.0
sS'PNGM'
p2897
F0.0020387345689720977
sS'DINR'
p2898
F0.0
sS'AIT'
p2899
F7.049641912459558e-05
sS'NSU'
p2900
F0.0
sS'MSZ'
p2901
F0.01879302734207974
sS'KART'
p2902
F6.939191861715785e-07
sS'CJ'
p2903
F1.1129324642100296e-05
sS'MSW'
p2904
F0.0003399047480263782
sS'MST'
p2905
F1.1565319769526308e-07
sS'BPZ'
p2906
F0.0009405582859492822
sS'MSR'
p2907
F0.0003427569020678329
sS'CIL'
p2908
F0.0003358546465523091
sS'ASAF'
p2909
F0.00032198072957466054
sS'NDJ'
p2910
F0.0
sS'MSK'
p2911
F0.0004603268043614856
sS'MSH'
p2912
F0.001412947596334584
sS'DAA'
p2913
F0.0003399047480263782
sS'DAB'
p2914
F0.0010113450053703605
sS'BRJN'
p2915
F0.00012754616612363026
sS'SRJ'
p2916
F0.0007511649936796729
sS'AQG'
p2917
F0.00034002040122407346
sS'BCA'
p2918
F0.0003348209850753066
sS'DAS'
p2919
F0.002717387533047902
sS'BTJL'
p2920
F5.025761293279439e-05
sS'BCRD'
p2921
F2.3130639539052615e-07
sS'DWR'
p2922
F0.011697134407601667
sS'DWP'
p2923
F7.86441744327789e-07
sS'SRI'
p2924
F6.245272675544207e-07
sS'DWX'
p2925
F0.003876741692217557
sS'ULT'
p2926
F4.202066182927892e-07
sS'TUVR'
p2927
F0.0
sS'SNTD'
p2928
F0.0
sS'ULL'
p2929
F0.0
sS'ULB'
p2930
F6.716696486725962e-05
sS'DWK'
p2931
F0.001359618992105513
sS'DWO'
p2932
F1.6191447677336832e-06
sS'ULD'
p2933
F0.0
sS'PKW'
p2934
F0.0
sS'PTRE'
p2935
F2.9453014346393666e-06
sS'ABKP'
p2936
F0.0
sS'PTRU'
p2937
F0.001019020324892963
sS'NGG'
p2938
F7.710213179684203e-07
sS'SELU'
p2939
F1.297968801570144e-05
sS'PTRD'
p2940
F4.2406172488263126e-07
sS'IJK'
p2941
F1.1565319769526308e-07
sS'KTV'
p2942
F0.0
s.