(dp0
S'SSPN'
p1
F0.006849156044670428
sS'AGN'
p2
F0.0
sS'NYY'
p3
F0.0
sS'AGI'
p4
F0.0
sS'NYP'
p5
F0.0
sS'AGC'
p6
F0.0812495646722853
sS'NYN'
p7
F0.0
sS'NYO'
p8
F0.0
sS'AGY'
p9
F0.0
sS'NYG'
p10
F0.0
sS'KOTA'
p11
F0.10970258410531449
sS'SPX'
p12
F0.00679111234937661
sS'KYJ'
p13
F0.0003830883889391934
sS'BWR'
p14
F0.0
sS'SRY'
p15
F0.0
sS'BWT'
p16
F0.0021127905086949453
sS'KYN'
p17
F0.06929256344175895
sS'KYM'
p18
F0.0
sS'SPP'
p19
F0.0
sS'SPT'
p20
F0.0
sS'KYF'
p21
F0.0
sS'KYE'
p22
F0.0
sS'KRG'
p23
F0.0
sS'SPJ'
p24
F0.013628659654988275
sS'SPK'
p25
F0.0
sS'KRD'
p26
F0.0
sS'SPN'
p27
F0.0
sS'BWH'
p28
F0.0
sS'BWI'
p29
F0.0
sS'KYQ'
p30
F0.006802721088435374
sS'SPC'
p31
F0.0
sS'BWL'
p32
F0.0
sS'BWM'
p33
F0.0
sS'BWN'
p34
F0.0013466137308165587
sS'KYT'
p35
F0.0
sS'UMRI'
p36
F0.0
sS'GR'
p37
F0.001358222469875322
sS'GP'
p38
F0.0
sS'TLHD'
p39
F0.00029021847646908594
sS'BYT'
p40
F0.0
sS'TRTR'
p41
F5.8043695293817184e-05
sS'GY'
p42
F0.00017413108588145156
sS'BYN'
p43
F0.0
sS'BYL'
p44
F0.0
sS'GD'
p45
F0.006802721088435374
sS'GB'
p46
F0.0
sS'BYD'
p47
F0.0
sS'GK'
p48
F0.013535789742518168
sS'TLHR'
p49
F0.0
sS'GH'
p50
F0.0
sS'MAQ'
p51
F0.006802721088435374
sS'MAP'
p52
F0.0
sS'MAS'
p53
F0.006802721088435374
sS'MAU'
p54
F0.013431311090989297
sS'PQE'
p55
F0.00679111234937661
sS'JNU'
p56
F0.0
sS'MAY'
p57
F0.0
sS'SNL'
p58
F0.0
sS'PQL'
p59
F0.0
sS'SNK'
p60
F0.0
sS'PQN'
p61
F0.0
sS'SNI'
p62
F0.0
sS'SNV'
p63
F0.0
sS'SNT'
p64
F2.3217478117526874e-05
sS'MAD'
p65
F0.0
sS'SNP'
p66
F0.0007313505607020966
sS'JND'
p67
F0.013535789742518168
sS'MAI'
p68
F0.0
sS'JNH'
p69
F0.0
sS'JNO'
p70
F0.00679111234937661
sS'MAO'
p71
F0.0680736458405888
sS'JNL'
p72
F0.0
sS'BEH'
p73
F0.0
sS'BEB'
p74
F0.00679111234937661
sS'SVRP'
p75
F0.0
sS'BEA'
p76
F0.0
sS'BEG'
p77
F0.0
sS'BEY'
p78
F0.0
sS'BER'
p79
F0.0
sS'BSRX'
p80
F0.0
sS'MLGH'
p81
F0.0
sS'VLI'
p82
F0.0
sS'TTR'
p83
F0.0
sS'GMDN'
p84
F0.0
sS'LSI'
p85
F0.0
sS'VLY'
p86
F0.0
sS'MPLM'
p87
F0.0
sS'LSR'
p88
F0.0
sS'TTL'
p89
F0.00679111234937661
sS'TTB'
p90
F0.0
sS'VLR'
p91
F0.0008010029950546772
sS'BIRD'
p92
F0.0
sS'LSX'
p93
F0.0
sS'ZN'
p94
F0.0
sS'KSRA'
p95
F0.0
sS'SPZ'
p96
F0.0
sS'GRX'
p97
F0.0
sS'GRY'
p98
F0.0
sS'GRD'
p99
F0.006802721088435374
sS'GRA'
p100
F0.0
sS'GRO'
p101
F0.0
sS'GRL'
p102
F0.0
sS'ZW'
p103
F1.1608739058763437e-05
sS'BSDP'
p104
F0.0
sS'NMM'
p105
F0.00679111234937661
sS'NOI'
p106
F0.0
sS'NOK'
p107
F0.0
sS'KKU'
p108
F0.0
sS'ARV'
p109
F0.0
sS'KKW'
p110
F0.0
sS'KKP'
p111
F0.00679111234937661
sS'KKM'
p112
F0.0
sS'HLN'
p113
F0.0
sS'KKN'
p114
F0.0
sS'KKI'
p115
F0.0
sS'TDU'
p116
F0.0
sS'KKJ'
p117
F0.0
sS'APDJ'
p118
F0.006802721088435374
sS'KKA'
p119
F0.0
sS'NOQ'
p120
F0.006802721088435374
sS'KKB'
p121
F0.0
sS'VAPM'
p122
F0.0
sS'STPD'
p123
F0.0
sS'VAPI'
p124
F0.0
sS'BZLE'
p125
F0.0
sS'VBL'
p126
F0.0
sS'VBW'
p127
F0.0
sS'PRNR'
p128
F0.0
sS'CTC'
p129
F0.006860764783729191
sS'CTO'
p130
F0.006802721088435374
sS'BRJN'
p131
F0.0
sS'MTJ'
p132
F0.04815304961575074
sS'WHM'
p133
F0.005351628706089944
sS'PNDM'
p134
F0.0
sS'ABSA'
p135
F0.00679111234937661
sS'SID'
p136
F0.0
sS'MDL'
p137
F0.0
sS'DBEC'
p138
F0.0
sS'RLO'
p139
F0.0
sS'LMP'
p140
F0.013535789742518168
sS'LMT'
p141
F0.0
sS'SPE'
p142
F0.0
sS'LMK'
p143
F0.0
sS'LMN'
p144
F0.0
sS'LMO'
p145
F0.00679111234937661
sS'LMG'
p146
F0.04031715075108542
sS'DPU'
p147
F0.0
sS'MOTC'
p148
F0.0
sS'DPS'
p149
F0.00679111234937661
sS'DPR'
p150
F0.0
sS'MOTH'
p151
F0.0
sS'JID'
p152
F0.00013930486870516125
sS'MVLK'
p153
F0.0
sS'UKL'
p154
F0.0
sS'DPA'
p155
F0.0
sS'SDGM'
p156
F1.1608739058763437e-05
sS'DPL'
p157
F0.0
sS'DPJ'
p158
F0.0
sS'UKA'
p159
F0.0
sS'LD'
p160
F0.01985094379048548
sS'KAMG'
p161
F0.0
sS'LC'
p162
F0.020280467135659723
sS'LM'
p163
F0.0
sS'BNLW'
p164
F0.0
sS'LS'
p165
F0.0
sS'BLPU'
p166
F0.0
sS'BLPR'
p167
F0.0
sS'TPH'
p168
F0.0
sS'ANTU'
p169
F0.0
sS'CLDR'
p170
F0.0
sS'RDHP'
p171
F0.0
sS'NLDA'
p172
F0.0
sS'KWAE'
p173
F4.643495623505375e-05
sS'PNP'
p174
F0.00045274082329177403
sS'NLDM'
p175
F0.02029207587471849
sS'BINA'
p176
F0.004550625711035267
sS'PNW'
p177
F0.0
sS'PNK'
p178
F0.0
sS'BKNG'
p179
F0.0
sS'PNC'
p180
F0.0
sS'SRNR'
p181
F0.0
sS'PNE'
p182
F0.0
sS'PND'
p183
F0.0
sS'PNF'
p184
F0.0
sS'KUDL'
p185
F0.0
sS'CTKT'
p186
F0.0
sS'SIPR'
p187
F0.0
sS'JPG'
p188
F0.00679111234937661
sS'JOP'
p189
F0.0
sS'JOQ'
p190
F0.0
sS'JOR'
p191
F0.0
sS'PRF'
p192
F0.0
sS'SAN'
p193
F0.0
sS'PRB'
p194
F0.0
sS'SAC'
p195
F0.00679111234937661
sS'PRL'
p196
F0.0
sS'SAA'
p197
F0.0
sS'MUR'
p198
F0.0
sS'SAG'
p199
F0.0
sS'PRH'
p200
F0.0
sS'NGR'
p201
F0.0
sS'PRT'
p202
F0.0
sS'JOB'
p203
F0.0
sS'JOC'
p204
F0.00010447865152887093
sS'PRP'
p205
F0.0
sS'PRR'
p206
F0.008927120336189084
sS'BLW'
p207
F0.0
sS'SAP'
p208
F0.0
sS'SAW'
p209
F0.0
sS'SAV'
p210
F0.0
sS'SAU'
p211
F0.0
sS'NRKR'
p212
F0.0
sS'SNF'
p213
F0.0
sS'GRRU'
p214
F0.0
sS'CHE'
p215
F0.0
sS'JNR'
p216
F5.8043695293817184e-05
sS'MRT'
p217
F0.0
sS'CHI'
p218
F0.0
sS'JAT'
p219
F0.013570615959694459
sS'SKTN'
p220
F0.006802721088435374
sS'MRR'
p221
F0.0
sS'KASR'
p222
F0.0
sS'MRL'
p223
F0.0
sS'JAO'
p224
F0.0
sS'CHR'
p225
F0.0
sS'JAM'
p226
F0.020245640918483434
sS'JAJ'
p227
F0.006802721088435374
sS'CHV'
p228
F0.0
sS'MRK'
p229
F0.0
sS'MRE'
p230
F0.0
sS'CHZ'
p231
F0.0
sS'MRG'
p232
F0.00679111234937661
sS'MRA'
p233
F0.0
sS'MRB'
p234
F0.0
sS'JAA'
p235
F0.0
sS'BRKA'
p236
F0.010865779759002577
sS'BTKP'
p237
F0.0
sS'DBA'
p238
F0.0
sS'VSKP'
p239
F0.006802721088435374
sS'DBB'
p240
F0.006802721088435374
sS'DBD'
p241
F0.0
sS'DBG'
p242
F0.013570615959694459
sS'DBY'
p243
F0.00679111234937661
sS'SNN'
p244
F0.0
sS'API'
p245
F0.00679111234937661
sS'APN'
p246
F0.0
sS'DBR'
p247
F0.0
sS'DBU'
p248
F0.0
sS'ATP'
p249
F0.0
sS'VNUP'
p250
F0.0
sS'THVM'
p251
F0.0
sS'RPRD'
p252
F0.0
sS'TKG'
p253
F0.0
sS'TKD'
p254
F0.0
sS'TKE'
p255
F0.013535789742518168
sS'HMY'
p256
F0.00679111234937661
sS'NLV'
p257
F0.0
sS'TKN'
p258
F0.0
sS'TKJ'
p259
F0.0
sS'JNA'
p260
F0.0
sS'TKH'
p261
F0.00679111234937661
sS'HML'
p262
F0.00679111234937661
sS'NLE'
p263
F0.0
sS'NLD'
p264
F0.00679111234937661
sS'KUGT'
p265
F0.00679111234937661
sS'TKQ'
p266
F0.0
sS'NLI'
p267
F0.0
sS'HMG'
p268
F0.0
sS'DLB'
p269
F0.0
sS'MAG'
p270
F0.0
sS'AFK'
p271
F0.0
sS'DLK'
p272
F0.0
sS'GCH'
p273
F0.0
sS'DLI'
p274
F0.022857607206705207
sS'SNQ'
p275
F0.0
sS'DLO'
p276
F0.0
sS'DLN'
p277
F0.0
sS'DLR'
p278
F0.0
sS'DLQ'
p279
F0.0
sS'DGA'
p280
F0.0
sS'HPU'
p281
F0.0032504469364537623
sS'AFR'
p282
F0.0
sS'DGG'
p283
F0.0
sS'KXH'
p284
F0.0
sS'BTT'
p285
F0.0
sS'BTW'
p286
F0.0
sS'BTV'
p287
F0.0
sS'BTQ'
p288
F0.00679111234937661
sS'BTP'
p289
F0.0
sS'BTS'
p290
F0.0
sS'MAM'
p291
F0.0
sS'BTY'
p292
F0.00679111234937661
sS'BTX'
p293
F0.0
sS'SSR'
p294
F0.0
sS'SSM'
p295
F0.0
sS'BTD'
p296
F0.013559007220635695
sS'AJNI'
p297
F0.0
sS'BTA'
p298
F0.0
sS'SNX'
p299
F0.0
sS'BTC'
p300
F0.006802721088435374
sS'BTO'
p301
F0.0
sS'MAN'
p302
F0.0
sS'BTI'
p303
F0.020083118571660747
sS'BTH'
p304
F0.0020315293352836015
sS'BTK'
p305
F0.0
sS'SSB'
p306
F0.0006268719091732256
sS'KKLR'
p307
F2.3217478117526874e-05
sS'PGTN'
p308
F0.006802721088435374
sS'KMME'
p309
F0.0
sS'RMR'
p310
F0.006802721088435374
sS'RMP'
p311
F0.0
sS'RMT'
p312
F0.0
sS'RMU'
p313
F0.00025539225929279563
sS'LNT'
p314
F0.0
sS'TSI'
p315
F0.00679111234937661
sS'SEE'
p316
F0.0
sS'LNR'
p317
F0.0
sS'RMB'
p318
F0.0
sS'LNL'
p319
F0.001091221471523763
sS'RMA'
p320
F0.0
sS'RMF'
p321
F0.0
sS'BGVN'
p322
F0.0
sS'LNK'
p323
F0.0
sS'TETA'
p324
F0.0
sS'KGLE'
p325
F0.0
sS'RMN'
p326
F0.0
sS'RMM'
p327
F0.006802721088435374
sS'BBN'
p328
F0.006802721088435374
sS'BBM'
p329
F0.0
sS'NMGY'
p330
F0.0
sS'BBK'
p331
F0.0008358292122309675
sS'KJG'
p332
F0.0
sS'KJH'
p333
F0.0
sS'KJI'
p334
F0.0
sS'KJN'
p335
F0.0
sS'BBA'
p336
F0.0
sS'KJM'
p337
F0.004341668407977526
sS'KJT'
p338
F0.0
sS'BBU'
p339
F0.0
sS'KJY'
p340
F0.0001509136077639247
sS'BBS'
p341
F0.05790439042511202
sS'BSQP'
p342
F0.0
sS'MDNR'
p343
F0.0
sS'TUP'
p344
F0.0
sS'VMD'
p345
F0.0
sS'MBNL'
p346
F0.0
sS'TUV'
p347
F0.00679111234937661
sS'DNKL'
p348
F6.965243435258063e-05
sS'MDDP'
p349
F0.0
sS'TUL'
p350
F0.0
sS'MBNR'
p351
F0.0
sS'TUN'
p352
F0.0
sS'TUA'
p353
F0.0
sS'BWIP'
p354
F0.00679111234937661
sS'KRND'
p355
F0.0
sS'DRLA'
p356
F0.0
sS'KPNA'
p357
F0.0
sS'KRNR'
p358
F0.0
sS'BEHS'
p359
F0.00679111234937661
sS'BEHR'
p360
F4.643495623505375e-05
sS'ANSB'
p361
F0.020234032179424672
sS'POZ'
p362
F0.0
sS'PDY'
p363
F0.006802721088435374
sS'TKRI'
p364
F0.0
sS'POT'
p365
F0.0
sS'JAIS'
p366
F0.0
sS'BET'
p367
F0.0
sS'FYZ'
p368
F0.0
sS'SLH'
p369
F0.0
sS'CYN'
p370
F0.0
sS'SKGH'
p371
F0.0
sS'FKM'
p372
F0.00679111234937661
sS'FKA'
p373
F0.006802721088435374
sS'FKG'
p374
F0.0
sS'DHG'
p375
F0.00032504469364537625
sS'CWA'
p376
F0.006802721088435374
sS'SMET'
p377
F0.013570615959694459
sS'WKI'
p378
F0.004248798495507418
sS'QSR'
p379
F0.0
sS'WKR'
p380
F0.0
sS'PAP'
p381
F0.0
sS'AGTL'
p382
F0.006802721088435374
sS'PAR'
p383
F0.004202363539272364
sS'PAU'
p384
F0.006883982261846718
sS'PAV'
p385
F0.0
sS'CKB'
p386
F0.0
sS'PAY'
p387
F0.0
sS'PAZ'
p388
F0.0
sS'CKI'
p389
F0.0
sS'CKK'
p390
F0.00679111234937661
sS'CKU'
p391
F0.0
sS'KATI'
p392
F0.00679111234937661
sS'DRZ'
p393
F0.006802721088435374
sS'PAD'
p394
F0.0
sS'CKP'
p395
F0.013570615959694459
sS'CKR'
p396
F0.0
sS'PAK'
p397
F0.0
sS'KHTU'
p398
F0.0
sS'PAN'
p399
F0.0
sS'PAO'
p400
F0.0
sS'AWY'
p401
F0.0
sS'BMCK'
p402
F0.0
sS'PNYA'
p403
F0.0
sS'AWR'
p404
F0.007986812472429244
sS'AMSA'
p405
F0.0
sS'DCA'
p406
F0.0
sS'MQS'
p407
F0.0
sS'MQR'
p408
F0.0
sS'MQU'
p409
F0.0
sS'MQX'
p410
F0.0
sS'AWB'
p411
F0.0021127905086949453
sS'SGNR'
p412
F0.006802721088435374
sS'UJP'
p413
F0.0
sS'UJN'
p414
F0.04262728982377934
sS'DQG'
p415
F0.0
sS'GRCP'
p416
F0.00679111234937661
sS'DQN'
p417
F0.0
sS'UJA'
p418
F0.0
sS'SGLA'
p419
F0.0
sS'ANAS'
p420
F0.0
sS'PLCJ'
p421
F0.009670079635949944
sS'ALMR'
p422
F0.0
sS'BLQR'
p423
F0.0
sS'CCH'
p424
F0.0
sS'KPP'
p425
F0.0
sS'GBD'
p426
F0.0
sS'DMC'
p427
F0.006802721088435374
sS'OBVP'
p428
F0.0
sS'GBA'
p429
F0.0
sS'DMM'
p430
F0.021127905086949457
sS'DMN'
p431
F0.0
sS'DMO'
p432
F0.006802721088435374
sS'DMP'
p433
F0.00679111234937661
sS'DMR'
p434
F0.00679111234937661
sS'DMV'
p435
F0.02029207587471849
sS'DMW'
p436
F0.0
sS'JEUR'
p437
F0.0
sS'ITA'
p438
F0.0
sS'GBX'
p439
F0.0
sS'BUX'
p440
F0.0
sS'BUP'
p441
F0.0
sS'BUQ'
p442
F0.00679111234937661
sS'FDN'
p443
F0.0
sS'BUW'
p444
F0.0
sS'BUT'
p445
F0.0
sS'DRD'
p446
F0.0
sS'BUH'
p447
F0.0
sS'PRLI'
p448
F0.00017413108588145156
sS'BLT'
p449
F0.00679111234937661
sS'BUA'
p450
F0.0
sS'BUG'
p451
F0.0020315293352836015
sS'RNPR'
p452
F0.0
sS'RDUM'
p453
F0.0
sS'KPRD'
p454
F0.0
sS'JMKT'
p455
F2.3217478117526874e-05
sS'ZB'
p456
F0.006675024958788976
sS'MOZ'
p457
F0.0025887488101042464
sS'JLW'
p458
F0.0
sS'KURJ'
p459
F0.006802721088435374
sS'JLS'
p460
F0.0
sS'JLR'
p461
F4.643495623505375e-05
sS'BRVR'
p462
F0.0034129692832764505
sS'MOR'
p463
F0.0
sS'ACND'
p464
F0.0
sS'PSA'
p465
F0.0
sS'MOU'
p466
F0.0
sS'MOT'
p467
F0.0
sS'JLD'
p468
F0.0
sS'MOI'
p469
F0.0
sS'MOO'
p470
F0.0
sS'MON'
p471
F0.0
sS'MOM'
p472
F0.0
sS'MOL'
p473
F0.0
sS'PSR'
p474
F0.0
sS'JLL'
p475
F0.0
sS'NRLR'
p476
F0.00679111234937661
sS'JLN'
p477
F0.0
sS'MOG'
p478
F0.0
sS'MOF'
p479
F0.0
sS'HNA'
p480
F0.0
sS'ETP'
p481
F0.0
sS'KMD'
p482
F0.0
sS'BCH'
p483
F0.0
sS'ETW'
p484
F0.0
sS'OMLF'
p485
F0.0
sS'DO'
p486
F0.0
sS'KML'
p487
F5.8043695293817184e-05
sS'BPC'
p488
F0.00679111234937661
sS'AKT'
p489
F0.0
sS'BSPX'
p490
F0.0
sS'KMU'
p491
F0.0
sS'KMT'
p492
F0.006431241438554944
sS'KMS'
p493
F0.0
sS'BCY'
p494
F0.0
sS'KMQ'
p495
F0.0
sS'KPI'
p496
F0.0
sS'BCT'
p497
F0.006802721088435374
sS'BCU'
p498
F0.0
sS'BSPR'
p499
F0.00679111234937661
sS'KMZ'
p500
F0.008056464906781826
sS'ETM'
p501
F0.0
sS'VRR'
p502
F0.0
sS'TORI'
p503
F0.0
sS'TVP'
p504
F0.0
sS'TVR'
p505
F0.014197487868867684
sS'TVL'
p506
F0.0
sS'VRG'
p507
F0.0
sS'DG'
p508
F0.06273362587355762
sS'VRI'
p509
F0.0785795546887697
sS'VRH'
p510
F0.0
sS'SWC'
p511
F0.0
sS'TVC'
p512
F0.009890645678066448
sS'VRL'
p513
F0.013570615959694459
sS'SRC'
p514
F0.007893942559959137
sS'CI'
p515
F0.0
sS'CH'
p516
F0.0
sS'SRF'
p517
F0.00679111234937661
sS'SRE'
p518
F0.008752989250307631
sS'CC'
p519
F0.0
sS'RDDE'
p520
F0.0
sS'SRO'
p521
F0.0
sS'CE'
p522
F0.0
sS'CD'
p523
F0.00011608739058763437
sS'SRR'
p524
F0.039899236144969936
sS'MYA'
p525
F0.0
sS'SRP'
p526
F0.0
sS'SRW'
p527
F0.0
sS'SRT'
p528
F0.0
sS'SRU'
p529
F0.0
sS'NGAN'
p530
F0.00679111234937661
sS'ADIJ'
p531
F0.003401360544217687
sS'SORO'
p532
F0.0
sS'CW'
p533
F0.0
sS'CT'
p534
F0.0
sS'BPQ'
p535
F0.010900605976178868
sS'NMT'
p536
F0.0
sS'TDO'
p537
F0.0
sS'TDN'
p538
F0.0
sS'TDL'
p539
F0.0007197418216433331
sS'HLX'
p540
F0.0
sS'NMZ'
p541
F0.0
sS'NMX'
p542
F0.0
sS'TDD'
p543
F0.0
sS'BTTR'
p544
F0.0
sS'SBPY'
p545
F0.0
sS'TDP'
p546
F0.0
sS'NMJ'
p547
F0.00679111234937661
sS'NMK'
p548
F0.0
sS'NMH'
p549
F3.482621717629031e-05
sS'PBKS'
p550
F0.00679111234937661
sS'BGUA'
p551
F0.0
sS'CVR'
p552
F0.0
sS'CVP'
p553
F0.03107659446030972
sS'PDKN'
p554
F0.0
sS'VARD'
p555
F0.0
sS'PDKT'
p556
F0.006558937568201342
sS'FHT'
p557
F0.0
sS'SDGH'
p558
F4.643495623505375e-05
sS'JYM'
p559
F1.1608739058763437e-05
sS'KKAH'
p560
F0.0
sS'QRP'
p561
F0.0
sS'KTMA'
p562
F0.00679111234937661
sS'GADJ'
p563
F0.0
sS'WJR'
p564
F0.0
sS'VG'
p565
F0.04656265236470015
sS'KMNR'
p566
F0.0
sS'HPP'
p567
F0.0036567528035104826
sS'VM'
p568
F0.10288825427782035
sS'VN'
p569
F0.0
sS'HPT'
p570
F0.0008242204731722041
sS'VR'
p571
F0.0
sS'VS'
p572
F0.0
sS'VV'
p573
F0.0
sS'KMNC'
p574
F0.0
sS'RJT'
p575
F0.04685287084116923
sS'RJR'
p576
F4.643495623505375e-05
sS'RJP'
p577
F0.0
sS'RJY'
p578
F0.016960367764853383
sS'RJG'
p579
F0.0
sS'CNDB'
p580
F0.0
sS'RJA'
p581
F0.0
sS'RJO'
p582
F0.0
sS'RJN'
p583
F0.0
sS'CNDM'
p584
F0.0
sS'RJK'
p585
F0.0
sS'WDA'
p586
F0.0
sS'SIHO'
p587
F0.0
sS'DRU'
p588
F0.0
sS'WDM'
p589
F0.0
sS'DRI'
p590
F0.0
sS'DRH'
p591
F0.0
sS'WDR'
p592
F0.0
sS'DRL'
p593
F0.0
sS'KRSL'
p594
F0.00679111234937661
sS'KRSA'
p595
F0.0
sS'THAN'
p596
F0.0
sS'CTR'
p597
F0.0
sS'BLND'
p598
F0.0
sS'BANE'
p599
F0.0
sS'AYRN'
p600
F0.0
sS'ALLP'
p601
F0.006930417218081772
sS'RXL'
p602
F0.006802721088435374
sS'BGKT'
p603
F0.013733138306517146
sS'KWV'
p604
F0.00668663369784774
sS'SVHE'
p605
F0.0
sS'KRAR'
p606
F0.0
sS'SMPA'
p607
F0.0
sS'MMVR'
p608
F0.0
sS'SMPR'
p609
F0.0
sS'STLR'
p610
F0.0
sS'KTHU'
p611
F0.0
sS'KHED'
p612
F0.0
sS'SRPJ'
p613
F0.0
sS'DHO'
p614
F0.0
sS'HX'
p615
F0.00017413108588145156
sS'URGA'
p616
F0.0
sS'PAIL'
p617
F0.0
sS'DHN'
p618
F0.04556430080564649
sS'RDRA'
p619
F0.00679111234937661
sS'HP'
p620
F0.0
sS'SWR'
p621
F0.0
sS'HW'
p622
F0.020315293352836016
sS'SURI'
p623
F0.006802721088435374
sS'HN'
p624
F0.0
sS'DPUR'
p625
F0.00679111234937661
sS'HG'
p626
F0.0
sS'HD'
p627
F0.0
sS'MLG'
p628
F0.0
sS'SCM'
p629
F0.0
sS'SCL'
p630
F0.006802721088435374
sS'SCI'
p631
F0.0
sS'GOK'
p632
F0.0
sS'PTH'
p633
F0.0
sS'MNP'
p634
F0.0
sS'MNQ'
p635
F0.0
sS'JMP'
p636
F0.01961876900931021
sS'JMV'
p637
F0.0
sS'PTB'
p638
F0.0
sS'PTA'
p639
F0.0
sS'JMU'
p640
F0.0
sS'MNI'
p641
F0.0
sS'MNJ'
p642
F0.0
sS'MNM'
p643
F0.013756355784634673
sS'MNO'
p644
F0.0
sS'SCT'
p645
F0.006802721088435374
sS'PTU'
p646
F0.0
sS'SCQ'
p647
F0.0
sS'MNE'
p648
F0.0
sS'MNF'
p649
F0.0
sS'SLW'
p650
F0.0
sS'CJN'
p651
F0.0
sS'PBP'
p652
F0.0
sS'CJM'
p653
F0.0
sS'MLN'
p654
F0.013535789742518168
sS'SRBA'
p655
F0.0
sS'KEPR'
p656
F0.0
sS'MABD'
p657
F0.00035987091082166655
sS'MLO'
p658
F0.0
sS'PBE'
p659
F0.013559007220635695
sS'SUNR'
p660
F0.0
sS'DHA'
p661
F0.0
sS'PBM'
p662
F0.0
sS'PBL'
p663
F0.0
sS'PBN'
p664
F0.002240486638341343
sS'PBH'
p665
F0.008799424206542686
sS'RWTB'
p666
F0.00679111234937661
sS'MPA'
p667
F0.0
sS'CDMR'
p668
F0.0
sS'MPL'
p669
F0.0
sS'AMPA'
p670
F0.0
sS'MLP'
p671
F0.0
sS'BPRD'
p672
F0.0
sS'AVN'
p673
F0.0
sS'MPU'
p674
F0.0
sS'AVD'
p675
F0.0
sS'GOY'
p676
F0.0
sS'BTIC'
p677
F0.0
sS'BPRH'
p678
F0.0
sS'MPY'
p679
F0.0
sS'SUD'
p680
F0.0
sS'SUA'
p681
F0.0
sS'DHW'
p682
F0.0
sS'SUR'
p683
F0.013454528569106823
sS'DEEG'
p684
F0.0
sS'KWE'
p685
F0.0
sS'MLY'
p686
F0.0
sS'TEL'
p687
F0.0
sS'TEN'
p688
F0.025945531796336282
sS'TEA'
p689
F0.0
sS'NBQ'
p690
F0.08508044856167724
sS'AJE'
p691
F0.0
sS'NBI'
p692
F0.0
sS'NBH'
p693
F0.0
sS'NBL'
p694
F0.0
sS'NBA'
p695
F0.0
sS'NBG'
p696
F0.0
sS'NBD'
p697
F0.00679111234937661
sS'BRWD'
p698
F0.0034129692832764505
sS'ADT'
p699
F0.0
sS'GMH'
p700
F0.0
sS'GMO'
p701
F0.00412110236586102
sS'ADQ'
p702
F0.0
sS'DNM'
p703
F0.0
sS'DNN'
p704
F0.0
sS'GMD'
p705
F0.0
sS'ADF'
p706
F0.0
sS'DNT'
p707
F0.0
sS'ADB'
p708
F0.011945392491467578
sS'DNR'
p709
F0.006802721088435374
sS'GMS'
p710
F0.0
sS'GMR'
p711
F0.0
sS'ADH'
p712
F0.0
sS'NAZJ'
p713
F0.0
sS'BRZ'
p714
F0.0
sS'KZT'
p715
F0.0
sS'BRW'
p716
F0.00679111234937661
sS'BRU'
p717
F0.0
sS'KZY'
p718
F0.00679111234937661
sS'BRS'
p719
F0.0
sS'BRR'
p720
F0.0
sS'KZB'
p721
F0.00679111234937661
sS'GTNR'
p722
F0.0
sS'KZA'
p723
F0.0
sS'BRK'
p724
F0.0
sS'BRH'
p725
F0.00679111234937661
sS'KZJ'
p726
F0.006767894871259084
sS'SCKR'
p727
F0.0
sS'BRE'
p728
F0.0
sS'BRD'
p729
F0.0
sS'BRC'
p730
F0.1379814724524622
sS'TWB'
p731
F0.0
sS'TWG'
p732
F0.0
sS'JPD'
p733
F0.0
sS'DISA'
p734
F0.0
sS'SEB'
p735
F0.0
sS'VRB'
p736
F0.0
sS'DEB'
p737
F0.0
sS'RKSH'
p738
F0.006802721088435374
sS'BHKD'
p739
F0.0
sS'VEER'
p740
F0.0
sS'TLKH'
p741
F0.0
sS'RKD'
p742
F0.0
sS'WIRR'
p743
F0.0
sS'RKB'
p744
F0.0
sS'RKM'
p745
F0.0
sS'KLD'
p746
F0.0
sS'KLG'
p747
F0.0
sS'KLB'
p748
F0.0
sS'AMH'
p749
F0.006802721088435374
sS'KLL'
p750
F0.0003830883889391934
sS'HOJ'
p751
F0.0
sS'KLJ'
p752
F0.0
sS'KLK'
p753
F0.013570615959694459
sS'KLT'
p754
F0.0
sS'KLU'
p755
F0.0
sS'KLP'
p756
F0.0
sS'GOGH'
p757
F0.0
sS'PTK'
p758
F0.006802721088435374
sS'DND'
p759
F0.0
sS'PTJ'
p760
F0.022277170253767038
sS'VST'
p761
F0.0
sS'VSU'
p762
F0.0
sS'MCS'
p763
F0.0
sS'DSPN'
p764
F0.0
sS'SCE'
p765
F0.00679111234937661
sS'VSG'
p766
F0.006802721088435374
sS'ASAF'
p767
F0.0
sS'BLAX'
p768
F0.0
sS'AMB'
p769
F0.0
sS'SVKS'
p770
F0.00679111234937661
sS'AME'
p771
F0.0
sS'HCNR'
p772
F0.0
sS'OYR'
p773
F0.0
sS'SHSK'
p774
F0.0
sS'LTRR'
p775
F0.00026700099835155907
sS'SVKD'
p776
F0.00679111234937661
sS'MNV'
p777
F0.0
sS'RYS'
p778
F0.0
sS'RYP'
p779
F0.0
sS'RBGJ'
p780
F0.0
sS'JMK'
p781
F0.0
sS'BWSN'
p782
F0.0
sS'HTZU'
p783
F0.0
sS'SMQL'
p784
F0.0
sS'STKT'
p785
F0.0
sS'KHDB'
p786
F0.0
sS'NLKR'
p787
F0.0
sS'BGTA'
p788
F0.0
sS'VAK'
p789
F0.0
sS'WANI'
p790
F0.0
sS'NWB'
p791
F0.0
sS'GMIA'
p792
F0.0
sS'VAA'
p793
F0.0
sS'MWRN'
p794
F0.0
sS'LHU'
p795
F0.0
sS'ADTP'
p796
F0.0
sS'DLGN'
p797
F0.0
sS'BGQ'
p798
F0.0
sS'MND'
p799
F0.0
sS'TAPA'
p800
F0.0
sS'JJKR'
p801
F0.00011608739058763437
sS'JMD'
p802
F0.0034129692832764505
sS'RASP'
p803
F0.0
sS'BGU'
p804
F3.482621717629031e-05
sS'PCZ'
p805
F0.00679111234937661
sS'RLA'
p806
F0.00679111234937661
sS'PCV'
p807
F0.0
sS'CMA'
p808
F0.0
sS'SV'
p809
F0.0003482621717629031
sS'PCH'
p810
F0.0
sS'PCN'
p811
F0.0
sS'KCVL'
p812
F0.006802721088435374
sS'CMU'
p813
F0.0
sS'ST'
p814
F0.014487706345336769
sS'BGZ'
p815
F0.0
sS'MAUR'
p816
F0.0
sS'PBR'
p817
F0.006802721088435374
sS'SGRL'
p818
F0.01020408163265306
sS'SGRM'
p819
F0.0
sS'UVD'
p820
F0.0
sS'SGRA'
p821
F0.0
sS'MKDD'
p822
F0.0
sS'ABFC'
p823
F0.0
sS'SL'
p824
F0.0
sS'DSS'
p825
F0.0
sS'DSO'
p826
F0.0
sS'MAGH'
p827
F0.0
sS'DSJ'
p828
F0.0
sS'GRMT'
p829
F0.0
sS'GRMP'
p830
F0.00679111234937661
sS'GRMR'
p831
F0.0
sS'DSA'
p832
F0.0
sS'NDAE'
p833
F4.643495623505375e-05
sS'MA'
p834
F0.0
sS'MB'
p835
F0.05731234473311509
sS'RWH'
p836
F0.0
sS'ML'
p837
F0.0
sS'MO'
p838
F0.0
sS'PLMD'
p839
F0.0
sS'RWL'
p840
F0.00679111234937661
sS'MK'
p841
F0.0
sS'MJ'
p842
F0.009565600984421073
sS'OKA'
p843
F0.0
sS'MW'
p844
F0.0
sS'MV'
p845
F0.018690069884609133
sS'UHR'
p846
F0.0
sS'MS'
p847
F0.14918390564416892
sS'GLH'
p848
F0.0
sS'DES'
p849
F0.0
sS'DOL'
p850
F0.0
sS'GLA'
p851
F0.0
sS'AKP'
p852
F0.0
sS'BRPL'
p853
F0.0
sS'AKV'
p854
F0.0
sS'DOD'
p855
F0.0
sS'DOE'
p856
F0.0
sS'AKJ'
p857
F0.0
sS'BRPT'
p858
F0.0
sS'AKN'
p859
F0.0
sS'CAPE'
p860
F0.006802721088435374
sS'GLP'
p861
F0.0
sS'DOS'
p862
F0.0
sS'AKE'
p863
F0.0
sS'AKD'
p864
F0.0
sS'PVRD'
p865
F0.0
sS'HKG'
p866
F0.0
sS'MHAD'
p867
F0.0034129692832764505
sS'BSZ'
p868
F0.0
sS'BST'
p869
F0.0
sS'BHTR'
p870
F0.0
sS'KKHT'
p871
F0.0
sS'BSR'
p872
F0.05482807457453971
sS'BSL'
p873
F0.17436326066262683
sS'ZRDE'
p874
F0.0
sS'BSI'
p875
F0.00679111234937661
sS'BSE'
p876
F0.0
sS'BSB'
p877
F0.055350467832184065
sS'BSC'
p878
F0.003401360544217687
sS'AUB'
p879
F0.0
sS'NZB'
p880
F0.004167537322096074
sS'BDWS'
p881
F0.0
sS'SBR'
p882
F0.0
sS'SBP'
p883
F0.01040143019665204
sS'SBV'
p884
F0.00679111234937661
sS'SBT'
p885
F0.00016252234682268812
sS'PUK'
p886
F0.0
sS'SBZ'
p887
F0.0
sS'JJR'
p888
F0.0
sS'MMS'
p889
F0.0
sS'MMR'
p890
F0.025005223932576443
sS'SBB'
p891
F0.006489285133848761
sS'MML'
p892
F0.0
sS'JJK'
p893
F0.0
sS'SBG'
p894
F0.009275382507951986
sS'MMK'
p895
F0.0
sS'SBE'
p896
F0.0
sS'MME'
p897
F0.0
sS'MMD'
p898
F0.0
sS'SBI'
p899
F0.006408023960437418
sS'MMA'
p900
F0.0
sS'SBO'
p901
F0.0
sS'MMB'
p902
F0.0
sS'KOI'
p903
F0.0
sS'SHNR'
p904
F0.0
sS'BAT'
p905
F0.0
sS'BAU'
p906
F0.0
sS'KOO'
p907
F0.0
sS'ERS'
p908
F0.013315223700401663
sS'BAZ'
p909
F0.0
sS'BAY'
p910
F0.0008242204731722041
sS'SJNP'
p911
F0.0
sS'BAB'
p912
F0.0
sS'WADI'
p913
F0.001358222469875322
sS'ERL'
p914
F0.0
sS'KOP'
p915
F0.006802721088435374
sS'ERN'
p916
F0.015277100601332683
sS'BAM'
p917
F0.03963223514661837
sS'KOU'
p918
F0.0
sS'KOV'
p919
F0.0
sS'VPT'
p920
F0.03765874950662859
sS'BJRI'
p921
F0.00679111234937661
sS'YFP'
p922
F0.0
sS'SONI'
p923
F0.00679111234937661
sS'VPO'
p924
F0.0
sS'CPDR'
p925
F0.0
sS'JSME'
p926
F0.011492651668175802
sS'YPR'
p927
F0.02621253279468784
sS'KNE'
p928
F0.0071509832601982775
sS'STA'
p929
F0.14390192937243157
sS'STL'
p930
F0.0
sS'BNW'
p931
F0.012920526572403706
sS'STN'
p932
F0.0
sS'SADP'
p933
F0.0
sS'STW'
p934
F0.0
sS'STP'
p935
F0.013535789742518168
sS'GANG'
p936
F0.0
sS'STR'
p937
F0.0
sS'GANL'
p938
F0.0
sS'BTRA'
p939
F0.0
sS'NCR'
p940
F0.00679111234937661
sS'KDNL'
p941
F0.00679111234937661
sS'QLN'
p942
F0.01597362494485849
sS'NCJ'
p943
F0.015149404471686286
sS'QLM'
p944
F0.0
sS'QLD'
p945
F0.0
sS'MNDR'
p946
F0.0
sS'NRPA'
p947
F0.0
sS'ROZA'
p948
F0.0
sS'SPTR'
p949
F0.0034129692832764505
sS'KNT'
p950
F0.0
sS'RU'
p951
F0.02145294978059483
sS'WTR'
p952
F0.0
sS'RS'
p953
F0.0
sS'RE'
p954
F0.004028232453390913
sS'RG'
p955
F0.0
sS'KTKL'
p956
F0.0
sS'BNE'
p957
F0.0
sS'RC'
p958
F0.0011376564277588168
sS'RM'
p959
F0.0034129692832764505
sS'RN'
p960
F0.006141022962085858
sS'BXR'
p961
F0.0
sS'NED'
p962
F0.007174200738315804
sS'RK'
p963
F6.965243435258063e-05
sS'TPF'
p964
F0.0
sS'KOLR'
p965
F0.0
sS'AVRD'
p966
F0.0
sS'HRT'
p967
F0.0
sS'HRW'
p968
F0.0
sS'TPK'
p969
F0.00679111234937661
sS'TPJ'
p970
F0.08408209700262358
sS'HRS'
p971
F0.0
sS'HRR'
p972
F0.0
sS'TPU'
p973
F0.006802721088435374
sS'TPT'
p974
F0.0
sS'HRI'
p975
F0.0002786097374103225
sS'HRG'
p976
F0.0
sS'TPZ'
p977
F0.0
sS'TPY'
p978
F0.00679111234937661
sS'HRB'
p979
F0.0
sS'KAD'
p980
F0.0
sS'KAJ'
p981
F0.00679111234937661
sS'KAH'
p982
F0.0
sS'KAN'
p983
F0.0
sS'RTGH'
p984
F4.643495623505375e-05
sS'KAR'
p985
F0.0
sS'KAP'
p986
F0.0
sS'NIRA'
p987
F0.0
sS'KAT'
p988
F0.0
sS'RHA'
p989
F0.00679111234937661
sS'RHE'
p990
F0.0
sS'RHG'
p991
F0.0
sS'DING'
p992
F0.0
sS'NIA'
p993
F0.0
sS'WFD'
p994
F0.0
sS'SCH'
p995
F0.0
sS'MRHT'
p996
F0.0
sS'NEW'
p997
F0.0
sS'KTYM'
p998
F0.0153351442966265
sS'MTDM'
p999
F0.006802721088435374
sS'PLNI'
p1000
F0.006802721088435374
sS'RTA'
p1001
F0.0
sS'RTM'
p1002
F0.032341947017714937
sS'DMNJ'
p1003
F0.0
sS'RTI'
p1004
F0.0
sS'SNSI'
p1005
F0.006802721088435374
sS'RTP'
p1006
F0.0
sS'UGR'
p1007
F0.0
sS'ANND'
p1008
F0.0
sS'SVJR'
p1009
F0.0
sS'G'
p1010
F0.0174943697615565
sS'KRCD'
p1011
F1.1608739058763437e-05
sS'KIUL'
p1012
F0.023484479115878434
sS'RFJ'
p1013
F0.0
sS'DEC'
p1014
F0.0007661767778783868
sS'ROHA'
p1015
F0.0
sS'TUNI'
p1016
F0.0
sS'ANPR'
p1017
F0.0
sS'STJT'
p1018
F0.0
sS'CLDY'
p1019
F0.0
sS'TLMR'
p1020
F0.00679111234937661
sS'ATE'
p1021
F0.0003018272155278494
sS'ATL'
p1022
F0.0
sS'PPI'
p1023
F0.0
sS'UREN'
p1024
F0.0
sS'ATH'
p1025
F0.0
sS'BKI'
p1026
F0.0
sS'DDCE'
p1027
F0.0
sS'ATT'
p1028
F0.006802721088435374
sS'ATU'
p1029
F0.0
sS'ATS'
p1030
F0.0
sS'ISM'
p1031
F0.0
sS'ISA'
p1032
F0.0
sS'JKPR'
p1033
F0.0
sS'RGU'
p1034
F0.0028325323303382785
sS'PVP'
p1035
F0.0
sS'SEU'
p1036
F0.0
sS'PVR'
p1037
F0.0
sS'PVU'
p1038
F0.0
sS'KOJ'
p1039
F4.643495623505375e-05
sS'SEG'
p1040
F0.0
sS'JKN'
p1041
F0.0
sS'SED'
p1042
F0.0
sS'JHN'
p1043
F0.0
sS'PVD'
p1044
F0.0
sS'SEO'
p1045
F0.0
sS'JKE'
p1046
F0.0
sS'SEM'
p1047
F0.0
sS'SASN'
p1048
F0.0
sS'JKA'
p1049
F0.0
sS'JKB'
p1050
F0.00679111234937661
sS'SEH'
p1051
F0.0
sS'KUA'
p1052
F0.0
sS'CLJ'
p1053
F0.0
sS'PDW'
p1054
F0.0
sS'PDU'
p1055
F0.0
sS'CLG'
p1056
F0.0
sS'PDR'
p1057
F0.0
sS'PDL'
p1058
F0.0
sS'CLX'
p1059
F0.0
sS'VJPJ'
p1060
F0.0
sS'PDH'
p1061
F0.0
sS'CLT'
p1062
F0.03507000069652434
sS'CLU'
p1063
F0.0
sS'PDE'
p1064
F0.00679111234937661
sS'PDD'
p1065
F0.0
sS'CLR'
p1066
F0.0
sS'SKPI'
p1067
F0.0
sS'RHMA'
p1068
F0.00679111234937661
sS'BRGT'
p1069
F0.0
sS'BRGW'
p1070
F0.0
sS'TET'
p1071
F0.0
sS'PNQ'
p1072
F0.00679111234937661
sS'KAWR'
p1073
F0.006802721088435374
sS'BRGA'
p1074
F0.0036567528035104826
sS'CHPT'
p1075
F0.00679111234937661
sS'BRGM'
p1076
F0.00679111234937661
sS'RGD'
p1077
F0.006802721088435374
sS'BPA'
p1078
F0.0
sS'MULK'
p1079
F0.0
sS'DL'
p1080
F0.0
sS'BPB'
p1081
F0.013559007220635695
sS'SWM'
p1082
F0.02809314852220752
sS'JYP'
p1083
F0.00679111234937661
sS'BPF'
p1084
F0.0
sS'SWA'
p1085
F0.0
sS'BPH'
p1086
F0.0
sS'DD'
p1087
F6.965243435258063e-05
sS'NGNT'
p1088
F0.0
sS'SWE'
p1089
F0.0
sS'BPL'
p1090
F0.2062176406398737
sS'JHS'
p1091
F0.1477328132618235
sS'MGLP'
p1092
F0.0
sS'JYG'
p1093
F0.006802721088435374
sS'BPR'
p1094
F0.00679111234937661
sS'AUBR'
p1095
F0.0
sS'DNA'
p1096
F0.01607810359638736
sS'BPZ'
p1097
F0.013280397483225372
sS'DR'
p1098
F0.006802721088435374
sS'SWV'
p1099
F0.006802721088435374
sS'TGP'
p1100
F0.0
sS'TGQ'
p1101
F0.0
sS'TGU'
p1102
F0.0
sS'NANA'
p1103
F0.0
sS'GYN'
p1104
F0.00046434956235053747
sS'GYM'
p1105
F0.0
sS'MDPB'
p1106
F0.0
sS'KDMR'
p1107
F0.0
sS'NMKL'
p1108
F0.0
sS'TGA'
p1109
F0.0
sS'BDHY'
p1110
F0.0
sS'NANR'
p1111
F0.0
sS'TGN'
p1112
F0.0
sS'MLB'
p1113
F0.0
sS'GOL'
p1114
F0.0
sS'GOH'
p1115
F0.0
sS'DHI'
p1116
F0.0034129692832764505
sS'MLJ'
p1117
F0.0
sS'LMNR'
p1118
F0.0
sS'DHD'
p1119
F0.0
sS'GOA'
p1120
F0.00679111234937661
sS'AJU'
p1121
F0.0
sS'GOC'
p1122
F0.0
sS'AJI'
p1123
F0.0
sS'AJJ'
p1124
F0.0
sS'MLV'
p1125
F0.0
sS'LKMR'
p1126
F0.0
sS'MLZ'
p1127
F0.0
sS'DHT'
p1128
F0.0
sS'GOP'
p1129
F0.0
sS'PTKP'
p1130
F0.0
sS'NRI'
p1131
F0.0
sS'NRO'
p1132
F0.0
sS'NRM'
p1133
F0.0
sS'NRL'
p1134
F0.0
sS'NRG'
p1135
F0.0
sS'NRE'
p1136
F0.0
sS'SRNT'
p1137
F0.0
sS'PTKC'
p1138
F0.020280467135659723
sS'BHUJ'
p1139
F0.006802721088435374
sS'PTKD'
p1140
F0.00679111234937661
sS'NRS'
p1141
F0.0
sS'NRR'
p1142
F0.0
sS'NRP'
p1143
F0.0
sS'NRW'
p1144
F0.0
sS'CKHS'
p1145
F0.0
sS'NRT'
p1146
F0.0
sS'RGPM'
p1147
F0.0
sS'WC'
p1148
F0.0
sS'TQA'
p1149
F0.0
sS'TQM'
p1150
F0.0034129692832764505
sS'TQN'
p1151
F0.0
sS'WL'
p1152
F0.0022056604211650533
sS'ZNA'
p1153
F0.0
sS'WR'
p1154
F0.0
sS'BARH'
p1155
F0.0
sS'BARL'
p1156
F0.0
sS'GHQ'
p1157
F0.0
sS'HSA'
p1158
F0.0
sS'HSD'
p1159
F0.0
sS'PC'
p1160
F0.0
sS'HSK'
p1161
F0.0
sS'HSI'
p1162
F0.0
sS'HSR'
p1163
F0.007104548303963223
sS'HSP'
p1164
F0.0
sS'RIG'
p1165
F0.006802721088435374
sS'HSX'
p1166
F0.006802721088435374
sS'BJMD'
p1167
F0.00679111234937661
sS'KNN'
p1168
F0.0
sS'BNZ'
p1169
F0.0007661767778783868
sS'KNL'
p1170
F6.965243435258063e-05
sS'KNJ'
p1171
F0.00679111234937661
sS'PASA'
p1172
F0.0
sS'HAN'
p1173
F0.0
sS'BNR'
p1174
F0.0
sS'KND'
p1175
F0.0
sS'BNP'
p1176
F0.0
sS'HAD'
p1177
F0.0
sS'BNV'
p1178
F0.0
sS'BNU'
p1179
F0.0
sS'BNT'
p1180
F0.0
sS'BNI'
p1181
F0.0
sS'BNN'
p1182
F0.0006152631701144621
sS'BNC'
p1183
F0.0
sS'KNW'
p1184
F0.0
sS'HAR'
p1185
F0.0
sS'HAS'
p1186
F0.0009054816465835481
sS'KNP'
p1187
F0.0
sS'MJBT'
p1188
F0.00679111234937661
sS'SYC'
p1189
F0.0
sS'SYA'
p1190
F0.0
sS'GDV'
p1191
F0.00679111234937661
sS'SYJ'
p1192
F0.0
sS'GAYA'
p1193
F0.00820737851454575
sS'SYN'
p1194
F0.0
sS'GDX'
p1195
F0.0
sS'LXA'
p1196
F0.0
sS'PM'
p1197
F0.0
sS'DNWH'
p1198
F0.00679111234937661
sS'RGP'
p1199
F0.0
sS'RGS'
p1200
F0.0
sS'KRBP'
p1201
F0.0
sS'BELA'
p1202
F0.0
sS'KRBA'
p1203
F0.010192472893594299
sS'RGH'
p1204
F0.0
sS'RGJ'
p1205
F0.00679111234937661
sS'RGL'
p1206
F0.0
sS'ROA'
p1207
F0.0
sS'RGO'
p1208
F0.0
sS'GDA'
p1209
F0.0
sS'GHH'
p1210
F0.0
sS'SRUR'
p1211
F0.0
sS'LDH'
p1212
F0.04658586984281767
sS'PDPL'
p1213
F0.00679111234937661
sS'JRU'
p1214
F0.0
sS'MEP'
p1215
F0.0
sS'VGN'
p1216
F0.0
sS'ADVI'
p1217
F0.0
sS'LJN'
p1218
F0.026200924055629078
sS'VGE'
p1219
F0.0
sS'KZE'
p1220
F0.0
sS'DNEA'
p1221
F0.0
sS'PRG'
p1222
F0.003401360544217687
sS'BRG'
p1223
F0.0
sS'SAH'
p1224
F0.0
sS'KZK'
p1225
F0.0
sS'LJR'
p1226
F0.00679111234937661
sS'MOGA'
p1227
F0.0
sS'GDO'
p1228
F0.0
sS'SBHR'
p1229
F0.0005804369529381719
sS'SRGT'
p1230
F0.00032504469364537625
sS'COR'
p1231
F0.013535789742518168
sS'PRI'
p1232
F0.0
sS'PEP'
p1233
F0.0
sS'PER'
p1234
F0.00012769612964639782
sS'PES'
p1235
F0.0
sS'COA'
p1236
F0.006802721088435374
sS'PEM'
p1237
F0.0
sS'PEH'
p1238
F0.0
sS'COI'
p1239
F2.3217478117526874e-05
sS'DAVM'
p1240
F0.0
sS'SRGM'
p1241
F0.0
sS'PEC'
p1242
F0.00679111234937661
sS'ZBD'
p1243
F0.0
sS'JOA'
p1244
F0.0
sS'OKHA'
p1245
F0.006802721088435374
sS'SNLR'
p1246
F0.0
sS'KSP'
p1247
F0.0
sS'MCN'
p1248
F0.0
sS'UDL'
p1249
F0.0
sS'MRGA'
p1250
F0.0
sS'DRTP'
p1251
F0.0
sS'BRUD'
p1252
F0.0
sS'SGBJ'
p1253
F0.0
sS'RUM'
p1254
F0.0
sS'RUB'
p1255
F0.0
sS'JOL'
p1256
F0.00679111234937661
sS'BLMR'
p1257
F0.0
sS'SNRR'
p1258
F0.0
sS'BLMK'
p1259
F0.0
sS'RUR'
p1260
F0.0
sS'JRC'
p1261
F0.0070000696524343525
sS'OEA'
p1262
F0.0
sS'SAT'
p1263
F0.0
sS'TELO'
p1264
F0.0
sS'DIL'
p1265
F0.0
sS'GNS'
p1266
F0.00679111234937661
sS'GNP'
p1267
F0.0
sS'MKC'
p1268
F0.0014162661651691392
sS'MKB'
p1269
F0.0
sS'GNT'
p1270
F0.006802721088435374
sS'GNU'
p1271
F0.0
sS'MKO'
p1272
F0.0
sS'BRRG'
p1273
F0.0
sS'BTBR'
p1274
F0.0
sS'KSNG'
p1275
F0.01351257226440064
sS'JHL'
p1276
F0.01817928536602354
sS'RPAR'
p1277
F0.020234032179424672
sS'GNC'
p1278
F0.006802721088435374
sS'MKU'
p1279
F0.0
sS'GNA'
p1280
F0.0
sS'AII'
p1281
F0.01597362494485849
sS'GNG'
p1282
F0.0
sS'JHW'
p1283
F0.0
sS'MKP'
p1284
F0.006883982261846718
sS'CHD'
p1285
F0.00025539225929279563
sS'GNH'
p1286
F0.0
sS'DAKE'
p1287
F0.0
sS'GTST'
p1288
F0.0
sS'NSL'
p1289
F0.006802721088435374
sS'DLJ'
p1290
F0.00679111234937661
sS'NSD'
p1291
F0.0
sS'MNSR'
p1292
F0.0
sS'CHH'
p1293
F0.0
sS'PVPT'
p1294
F0.015393187991920318
sS'KCKI'
p1295
F0.0
sS'CNGR'
p1296
F0.0
sS'UTA'
p1297
F0.0
sS'CHL'
p1298
F0.0
sS'UTL'
p1299
F0.0
sS'UTR'
p1300
F0.0
sS'VPDA'
p1301
F0.0
sS'SDT'
p1302
F0.0
sS'JAN'
p1303
F0.0
sS'BNSA'
p1304
F0.00679111234937661
sS'PWS'
p1305
F0.0
sS'SDS'
p1306
F0.00046434956235053747
sS'JAL'
p1307
F0.0
sS'SDE'
p1308
F0.0
sS'SDF'
p1309
F0.0
sS'SDB'
p1310
F0.0
sS'LAU'
p1311
F0.0
sS'SDL'
p1312
F0.002414617724222795
sS'PWL'
p1313
F0.0
sS'SDI'
p1314
F0.0
sS'DGHA'
p1315
F0.006802721088435374
sS'NAB'
p1316
F0.0
sS'KQR'
p1317
F0.0011492651668175804
sS'MRJ'
p1318
F0.013570615959694459
sS'KQU'
p1319
F0.0019734856399897843
sS'KQT'
p1320
F0.0
sS'HBD'
p1321
F0.0
sS'HBG'
p1322
F0.00679111234937661
sS'NAN'
p1323
F0.0
sS'NAM'
p1324
F0.0
sS'NAS'
p1325
F0.0
sS'BOJ'
p1326
F0.0
sS'NAW'
p1327
F0.0
sS'NAT'
p1328
F0.0
sS'KQK'
p1329
F0.0
sS'KQI'
p1330
F0.0
sS'BOD'
p1331
F0.0
sS'KQN'
p1332
F0.0
sS'BOF'
p1333
F0.00679111234937661
sS'BOG'
p1334
F0.0
sS'YDM'
p1335
F0.0
sS'HRPG'
p1336
F0.0
sS'DEHR'
p1337
F0.0
sS'MLMR'
p1338
F0.0
sS'SXT'
p1339
F0.0
sS'HPLE'
p1340
F0.00679111234937661
sS'RMJK'
p1341
F0.0
sS'BQG'
p1342
F0.0
sS'SVM'
p1343
F0.0
sS'GOTN'
p1344
F0.0
sS'MGME'
p1345
F0.0
sS'BQA'
p1346
F0.0011260476887000534
sS'BQI'
p1347
F0.0
sS'AMRO'
p1348
F1.1608739058763437e-05
sS'TIHU'
p1349
F0.0
sS'JVN'
p1350
F0.01321074504887279
sS'SVX'
p1351
F0.0
sS'SVV'
p1352
F0.00679111234937661
sS'FSP'
p1353
F0.0
sS'BOKR'
p1354
F0.0
sS'UMD'
p1355
F0.00668663369784774
sS'APR'
p1356
F0.008033247428664299
sS'BTPD'
p1357
F0.00679111234937661
sS'LKN'
p1358
F0.0
sS'LKO'
p1359
F0.05757934573146665
sS'VDS'
p1360
F0.0
sS'SMBX'
p1361
F0.0
sS'LKE'
p1362
F0.0
sS'LKA'
p1363
F0.0
sS'VDA'
p1364
F0.0
sS'FLK'
p1365
F0.0
sS'AB'
p1366
F0.0
sS'VDE'
p1367
F0.0
sS'APT'
p1368
F0.0
sS'LKW'
p1369
F0.00679111234937661
sS'LKU'
p1370
F0.013570615959694459
sS'LKR'
p1371
F0.0
sS'LKS'
p1372
F0.0
sS'JMT'
p1373
F0.0
sS'VZM'
p1374
F0.0179703280629658
sS'APK'
p1375
F0.00012769612964639782
sS'AF'
p1376
F0.07669893896125003
sS'TRK'
p1377
F0.0
sS'TRL'
p1378
F0.0
sS'TRO'
p1379
F0.0
sS'TRB'
p1380
F0.0
sS'HBLN'
p1381
F0.0
sS'GVG'
p1382
F0.0
sS'AO'
p1383
F0.0
sS'TRS'
p1384
F0.0
sS'TRR'
p1385
F0.0
sS'TRT'
p1386
F0.0
sS'KCD'
p1387
F0.0
sS'KCG'
p1388
F0.03881962341250493
sS'HTC'
p1389
F0.0
sS'KCC'
p1390
F0.0
sS'BJNR'
p1391
F0.0
sS'HTL'
p1392
F0.0
sS'KCI'
p1393
F0.0
sS'KCJ'
p1394
F0.0
sS'KCV'
p1395
F0.00679111234937661
sS'HLKT'
p1396
F0.0
sS'HTZ'
p1397
F0.0
sS'KDPR'
p1398
F0.0
sS'RANI'
p1399
F0.0
sS'AY'
p1400
F0.0
sS'SAI'
p1401
F0.0
sS'BDCR'
p1402
F0.00679111234937661
sS'ABKA'
p1403
F0.0
sS'SILO'
p1404
F0.0
sS'NH'
p1405
F0.0026700099835155907
sS'MAJN'
p1406
F0.05163567133337977
sS'NK'
p1407
F0.001567179772933064
sS'NN'
p1408
F0.0
sS'NB'
p1409
F0.0
sS'ND'
p1410
F0.0
sS'RRB'
p1411
F0.013535789742518168
sS'NG'
p1412
F0.0
sS'MLHA'
p1413
F0.0
sS'NR'
p1414
F0.0
sS'ODC'
p1415
F0.00679111234937661
sS'RRS'
p1416
F0.0
sS'NU'
p1417
F0.0
sS'ODG'
p1418
F0.0
sS'RDP'
p1419
F0.006802721088435374
sS'BCOB'
p1420
F0.0
sS'ELM'
p1421
F0.0
sS'J'
p1422
F0.0021127905086949453
sS'RRME'
p1423
F0.0
sS'NGI'
p1424
F0.0
sS'AKOR'
p1425
F0.0
sS'KMDR'
p1426
F0.0
sS'RDM'
p1427
F1.1608739058763437e-05
sS'RDL'
p1428
F0.0
sS'KSG'
p1429
F0.0
sS'FBG'
p1430
F0.00679111234937661
sS'SRTN'
p1431
F0.0
sS'SRTL'
p1432
F0.0
sS'KSC'
p1433
F0.0
sS'USL'
p1434
F0.0
sS'ANVT'
p1435
F0.012943744050521233
sS'DMBR'
p1436
F0.0
sS'MHPE'
p1437
F0.0
sS'AZR'
p1438
F0.0
sS'KGA'
p1439
F0.0
sS'SGZ'
p1440
F0.0
sS'SGP'
p1441
F0.0
sS'SGS'
p1442
F0.0
sS'SGR'
p1443
F0.0
sS'BNTL'
p1444
F0.0005804369529381719
sS'SGJ'
p1445
F0.0
sS'SGL'
p1446
F0.00675628613220032
sS'SGO'
p1447
F0.00824220473172204
sS'SGE'
p1448
F0.0
sS'SGD'
p1449
F0.0
sS'SGG'
p1450
F0.0
sS'SGF'
p1451
F0.0
sS'KSN'
p1452
F0.0
sS'KGG'
p1453
F0.00679111234937661
sS'NLP'
p1454
F0.00679111234937661
sS'BHBK'
p1455
F0.0
sS'CND'
p1456
F0.0
sS'NLR'
p1457
F0.0
sS'CNB'
p1458
F0.21173179169278633
sS'CNC'
p1459
F0.0
sS'CNA'
p1460
F0.013721529567458382
sS'CNO'
p1461
F0.0
sS'CNK'
p1462
F0.0
sS'CNI'
p1463
F0.0
sS'HRNR'
p1464
F0.0
sS'MTHP'
p1465
F0.0
sS'MRTL'
p1466
F0.0
sS'SZM'
p1467
F1.1608739058763437e-05
sS'PFM'
p1468
F0.0
sS'DXN'
p1469
F0.0
sS'PFR'
p1470
F0.0
sS'BRAG'
p1471
F0.0
sS'INDB'
p1472
F0.006802721088435374
sS'DXG'
p1473
F0.0
sS'KAYR'
p1474
F0.0
sS'SIR'
p1475
F0.020234032179424672
sS'SIQ'
p1476
F0.0
sS'SIP'
p1477
F0.0
sS'SIW'
p1478
F0.0
sS'JWP'
p1479
F0.0
sS'TPTY'
p1480
F0.0068143298274941375
sS'GNVR'
p1481
F0.0
sS'JWO'
p1482
F0.0
sS'JWB'
p1483
F0.0
sS'SAGR'
p1484
F0.0
sS'SIL'
p1485
F0.0
sS'BDVT'
p1486
F0.013535789742518168
sS'SLKR'
p1487
F0.0
sS'SOJN'
p1488
F0.0
sS'TAZ'
p1489
F0.0
sS'TAE'
p1490
F0.0
sS'BDVL'
p1491
F0.0
sS'TKR'
p1492
F0.0
sS'TAN'
p1493
F0.0
sS'MJF'
p1494
F0.0
sS'MJG'
p1495
F0.0
sS'MJA'
p1496
F0.0
sS'MJL'
p1497
F0.0
sS'DJX'
p1498
F0.0
sS'MJN'
p1499
F0.00679111234937661
sS'DJA'
p1500
F0.0
sS'GID'
p1501
F0.0
sS'DJG'
p1502
F0.0
sS'MJS'
p1503
F0.0
sS'BBTR'
p1504
F0.0
sS'AHA'
p1505
F0.019444637923428758
sS'RUL'
p1506
F0.0
sS'NPK'
p1507
F0.0
sS'NPD'
p1508
F0.0
sS'AHH'
p1509
F0.0
sS'AGR'
p1510
F0.0
sS'MJRI'
p1511
F0.011852522578997469
sS'JRLI'
p1512
F0.0
sS'CDGR'
p1513
F0.0
sS'JRLE'
p1514
F0.0
sS'NPS'
p1515
F4.643495623505375e-05
sS'GUG'
p1516
F0.0
sS'TSK'
p1517
F0.00679111234937661
sS'NMGT'
p1518
F0.0
sS'GUD'
p1519
F0.0
sS'TSF'
p1520
F0.0
sS'GUH'
p1521
F0.0
sS'SHR'
p1522
F0.0
sS'TSA'
p1523
F0.0
sS'BDDR'
p1524
F0.0
sS'GUR'
p1525
F0.0
sS'GUP'
p1526
F0.00679111234937661
sS'DHNE'
p1527
F0.0
sS'GUV'
p1528
F0.006802721088435374
sS'DWLE'
p1529
F0.00679111234937661
sS'TSR'
p1530
F0.0
sS'KBJ'
p1531
F0.02100020895730306
sS'KBN'
p1532
F0.0
sS'KBL'
p1533
F0.0
sS'KBM'
p1534
F0.0
sS'HLDD'
p1535
F0.0
sS'DLD'
p1536
F0.0
sS'PGRL'
p1537
F0.0
sS'KBY'
p1538
F0.00679111234937661
sS'HUP'
p1539
F0.0
sS'BSYA'
p1540
F0.0
sS'JTW'
p1541
F0.0
sS'HLDR'
p1542
F0.0
sS'HCR'
p1543
F0.0
sS'KPQ'
p1544
F0.0
sS'HCP'
p1545
F0.0
sS'KPV'
p1546
F0.020025074876366927
sS'BLZ'
p1547
F0.0
sS'BLU'
p1548
F0.0
sS'KPY'
p1549
F0.0
sS'KPZ'
p1550
F0.0
sS'NFK'
p1551
F0.0019502681618722574
sS'CKDL'
p1552
F0.0
sS'BLM'
p1553
F0.0
sS'KPD'
p1554
F0.019734856399897843
sS'BLK'
p1555
F0.0
sS'KPG'
p1556
F6.965243435258063e-05
sS'BLD'
p1557
F0.0
sS'BLG'
p1558
F0.0
sS'KPN'
p1559
F0.0
sS'DEOR'
p1560
F0.0
sS'DEOS'
p1561
F0.000185739824940215
sS'GCT'
p1562
F0.0
sS'EKM'
p1563
F0.0
sS'KTHD'
p1564
F0.0
sS'EKI'
p1565
F0.00679111234937661
sS'JTJ'
p1566
F0.0
sS'EKC'
p1567
F0.0
sS'RECH'
p1568
F0.0
sS'REJ'
p1569
F0.0
sS'REI'
p1570
F0.0
sS'REN'
p1571
F0.0
sS'CLF'
p1572
F0.0
sS'SVGA'
p1573
F0.00023217478117526873
sS'EKR'
p1574
F0.00679111234937661
sS'JHD'
p1575
F0.0
sS'LFG'
p1576
F0.013535789742518168
sS'MKA'
p1577
F0.0009170903856423116
sS'PDRD'
p1578
F0.0
sS'MKN'
p1579
F0.0
sS'NTSK'
p1580
F0.013559007220635695
sS'LTR'
p1581
F0.0
sS'DIG'
p1582
F0.0
sS'LTT'
p1583
F0.007301896867962202
sS'KXJ'
p1584
F0.00679111234937661
sS'DIA'
p1585
F0.0
sS'LTA'
p1586
F0.00679111234937661
sS'SDBH'
p1587
F0.0
sS'LTD'
p1588
F0.0
sS'KXL'
p1589
F0.0
sS'MKH'
p1590
F0.0
sS'BTU'
p1591
F0.0
sS'MGF'
p1592
F0.0
sS'SY'
p1593
F0.0179703280629658
sS'KXN'
p1594
F0.0
sS'TDLE'
p1595
F0.0
sS'GUNA'
p1596
F0.005340019967031181
sS'SI'
p1597
F0.0
sS'RPAN'
p1598
F0.00679111234937661
sS'RUPC'
p1599
F0.00025539225929279563
sS'SM'
p1600
F0.0
sS'MLTR'
p1601
F0.00679111234937661
sS'SC'
p1602
F0.02925402242808386
sS'MKS'
p1603
F0.00679111234937661
sS'SA'
p1604
F0.044937428896473265
sS'KKTA'
p1605
F0.00679111234937661
sS'JUDW'
p1606
F0.0
sS'MKR'
p1607
F0.0
sS'KNVT'
p1608
F0.005223932576443547
sS'BBGN'
p1609
F0.0
sS'HZD'
p1610
F0.0
sS'CAR'
p1611
F0.006222284135497203
sS'CAP'
p1612
F0.0
sS'ANKL'
p1613
F0.0
sS'MGN'
p1614
F0.0
sS'BNCE'
p1615
F0.0
sS'PUL'
p1616
F0.0
sS'CAI'
p1617
F0.0
sS'HAPA'
p1618
F0.006802721088435374
sS'CAN'
p1619
F0.04102528383366999
sS'KHNM'
p1620
F0.0
sS'SRID'
p1621
F0.0
sS'CAA'
p1622
F0.0
sS'CAG'
p1623
F0.0
sS'AIG'
p1624
F0.0
sS'SHTT'
p1625
F0.006802721088435374
sS'BTE'
p1626
F0.009577209723479835
sS'MRN'
p1627
F0.0
sS'BAKA'
p1628
F0.006802721088435374
sS'CHOK'
p1629
F0.0
sS'PGK'
p1630
F0.0013698312089340855
sS'PGI'
p1631
F0.0
sS'PGW'
p1632
F0.0
sS'PGT'
p1633
F0.02438996076246198
sS'PGR'
p1634
F0.0
sS'RKSN'
p1635
F0.0
sS'DYD'
p1636
F0.0
sS'KUPR'
p1637
F0.0
sS'MKX'
p1638
F0.0
sS'PNSA'
p1639
F0.00679111234937661
sS'PPC'
p1640
F0.0
sS'FGSB'
p1641
F0.0
sS'ADTL'
p1642
F0.0
sS'CNPR'
p1643
F0.0
sS'RAIR'
p1644
F0.0
sS'SOD'
p1645
F0.0
sS'UDR'
p1646
F0.0
sS'TGRL'
p1647
F0.0
sS'MAKM'
p1648
F0.0
sS'MGX'
p1649
F0.0
sS'PNME'
p1650
F0.0
sS'RSI'
p1651
F0.0
sS'UDZ'
p1652
F0.006802721088435374
sS'SSA'
p1653
F6.965243435258063e-05
sS'RSA'
p1654
F0.00679111234937661
sS'OGL'
p1655
F0.0
sS'BTJ'
p1656
F0.0
sS'UDN'
p1657
F0.006802721088435374
sS'MAKR'
p1658
F0.0
sS'RSR'
p1659
F0.0
sS'UDM'
p1660
F0.0
sS'MIH'
p1661
F0.0
sS'DKT'
p1662
F0.0
sS'MIL'
p1663
F0.0
sS'GHR'
p1664
F0.0
sS'MIN'
p1665
F0.0
sS'IZN'
p1666
F0.006802721088435374
sS'DKZ'
p1667
F0.0
sS'MID'
p1668
F0.0
sS'PPN'
p1669
F0.0
sS'GHD'
p1670
F0.0005688282138794084
sS'DKD'
p1671
F0.0
sS'DKE'
p1672
F0.0
sS'BE'
p1673
F0.007011678391493116
sS'DKO'
p1674
F0.00023217478117526873
sS'DKJ'
p1675
F0.00679111234937661
sS'GHJ'
p1676
F0.0
sS'SOP'
p1677
F0.0
sS'SOS'
p1678
F0.0
sS'JRMG'
p1679
F0.0
sS'KBPR'
p1680
F0.0005804369529381719
sS'GAJ'
p1681
F0.0
sS'URD'
p1682
F0.0
sS'NDKD'
p1683
F0.0
sS'URL'
p1684
F0.0
sS'RHN'
p1685
F0.0
sS'URI'
p1686
F0.0
sS'KPTN'
p1687
F0.0
sS'DABN'
p1688
F0.0
sS'SFY'
p1689
F0.0
sS'SFW'
p1690
F0.0
sS'IPL'
p1691
F0.0
sS'KLTR'
p1692
F0.0
sS'IPR'
p1693
F0.006802721088435374
sS'SFM'
p1694
F0.0
sS'SFH'
p1695
F0.0
sS'SFG'
p1696
F0.0
sS'PYD'
p1697
F0.0
sS'SFC'
p1698
F0.0
sS'HDW'
p1699
F0.00679111234937661
sS'KSV'
p1700
F0.0
sS'NGA'
p1701
F0.0
sS'NGB'
p1702
F0.0
sS'NGN'
p1703
F0.0
sS'NGO'
p1704
F0.017134498850734835
sS'KSX'
p1705
F0.0
sS'NGT'
p1706
F0.013559007220635695
sS'KSD'
p1707
F0.013535789742518168
sS'HDE'
p1708
F0.0
sS'KSF'
p1709
F0.0
sS'NGP'
p1710
F0.28655011492651666
sS'HDB'
p1711
F0.006802721088435374
sS'HDA'
p1712
F0.0
sS'KSB'
p1713
F0.0
sS'HDN'
p1714
F0.0
sS'HDL'
p1715
F0.0
sS'HDK'
p1716
F0.0
sS'KSH'
p1717
F0.0
sS'BAMR'
p1718
F0.0
sS'KSJ'
p1719
F2.3217478117526874e-05
sS'BMB'
p1720
F0.0
sS'MGAE'
p1721
F0.0
sS'VLNK'
p1722
F0.006802721088435374
sS'BMF'
p1723
F0.0
sS'BMD'
p1724
F0.0
sS'BME'
p1725
F0.006802721088435374
sS'DNRP'
p1726
F1.1608739058763437e-05
sS'BMH'
p1727
F0.0
sS'BMI'
p1728
F0.0
sS'BMO'
p1729
F0.0
sS'BMR'
p1730
F0.0
sS'PRDP'
p1731
F0.006802721088435374
sS'BMT'
p1732
F1.1608739058763437e-05
sS'BMU'
p1733
F0.0
sS'SZR'
p1734
F0.0
sS'TPTN'
p1735
F0.0
sS'DNRE'
p1736
F0.0
sS'DHPR'
p1737
F0.0
sS'SHU'
p1738
F0.0
sS'EE'
p1739
F0.0
sS'ED'
p1740
F0.04645817371317128
sS'SHZ'
p1741
F0.00679111234937661
sS'PMN'
p1742
F0.0
sS'JTO'
p1743
F0.00679111234937661
sS'SHC'
p1744
F0.006802721088435374
sS'JTI'
p1745
F0.0
sS'SHE'
p1746
F0.0
sS'SHF'
p1747
F0.0034129692832764505
sS'SHG'
p1748
F0.000185739824940215
sS'ET'
p1749
F0.010970258410531447
sS'JTG'
p1750
F0.0
sS'SHK'
p1751
F0.0
sS'SHM'
p1752
F0.006802721088435374
sS'JTB'
p1753
F0.0
sS'GZN'
p1754
F0.0
sS'GZO'
p1755
F0.00679111234937661
sS'NASP'
p1756
F0.0
sS'RPUR'
p1757
F0.0
sS'MGG'
p1758
F0.0
sS'RJPM'
p1759
F0.00679111234937661
sS'MGE'
p1760
F0.0
sS'BSKH'
p1761
F0.00679111234937661
sS'RJPB'
p1762
F0.006802721088435374
sS'TBR'
p1763
F0.0
sS'GZB'
p1764
F0.03363051705323768
sS'TBT'
p1765
F0.0
sS'REWA'
p1766
F0.006802721088435374
sS'MGS'
p1767
F0.03884284089062246
sS'TBH'
p1768
F0.00679111234937661
sS'BDWD'
p1769
F0.0
sS'TBM'
p1770
F0.0
sS'TBN'
p1771
F0.0
sS'KDJR'
p1772
F0.0
sS'BDWL'
p1773
F0.0
sS'GHX'
p1774
F0.0
sS'LUR'
p1775
F0.006849156044670428
sS'SNC'
p1776
F0.0
sS'VJP'
p1777
F0.0
sS'RVKH'
p1778
F0.0
sS'SDAH'
p1779
F0.006802721088435374
sS'MLAR'
p1780
F0.00679111234937661
sS'GHY'
p1781
F0.05320285110631283
sS'RMC'
p1782
F0.0
sS'WPR'
p1783
F0.0
sS'BLTR'
p1784
F0.0
sS'LNN'
p1785
F0.0
sS'DKNT'
p1786
F0.0
sS'RMD'
p1787
F0.00679111234937661
sS'TLU'
p1788
F0.0
sS'TLY'
p1789
F0.0
sS'GTK'
p1790
F0.0
sS'GTL'
p1791
F0.002542313853869193
sS'GTM'
p1792
F0.0028325323303382785
sS'TLC'
p1793
F0.0
sS'GTS'
p1794
F0.0
sS'GTT'
p1795
F0.0
sS'TLD'
p1796
F0.0
sS'TLJ'
p1797
F0.0
sS'TLH'
p1798
F0.0
sS'KEM'
p1799
F0.0
sS'KEK'
p1800
F0.0
sS'KEJ'
p1801
F0.0
sS'BHLP'
p1802
F0.0
sS'KEH'
p1803
F0.0
sS'KEG'
p1804
F0.0
sS'ARW'
p1805
F0.0
sS'HVD'
p1806
F0.0
sS'KEA'
p1807
F0.0
sS'BHLE'
p1808
F0.00679111234937661
sS'BTG'
p1809
F0.0
sS'HVR'
p1810
F0.0
sS'KMTI'
p1811
F0.0
sS'MRDW'
p1812
F0.0
sS'SKND'
p1813
F0.0
sS'DGHR'
p1814
F0.00679111234937661
sS'CMW'
p1815
F0.00679111234937661
sS'SINI'
p1816
F0.0
sS'MRDL'
p1817
F0.0
sS'TLV'
p1818
F0.0
sS'RPR'
p1819
F0.0
sS'UCR'
p1820
F0.0
sS'PNBE'
p1821
F0.10891318984931857
sS'RPZ'
p1822
F0.006779503610317848
sS'MAHE'
p1823
F0.0
sS'RPD'
p1824
F0.0
sS'UCA'
p1825
F0.0
sS'SGAM'
p1826
F0.0
sS'RPH'
p1827
F0.02779132130667967
sS'RPJ'
p1828
F0.0
sS'KRIH'
p1829
F0.0
sS'ALJN'
p1830
F1.1608739058763437e-05
sS'VTJ'
p1831
F0.0
sS'RBZ'
p1832
F0.0
sS'VTM'
p1833
F0.0
sS'RBS'
p1834
F0.0
sS'KTGA'
p1835
F0.0
sS'BEAS'
p1836
F0.0
sS'RBL'
p1837
F0.006802721088435374
sS'RBK'
p1838
F0.0
sS'RBG'
p1839
F0.0
sS'RBD'
p1840
F0.0
sS'SDN'
p1841
F0.0
sS'RBA'
p1842
F0.0
sS'LGH'
p1843
F0.007847507603724083
sS'RMPB'
p1844
F0.0
sS'LGL'
p1845
F0.006802721088435374
sS'KAJG'
p1846
F0.0
sS'ATMO'
p1847
F0.0
sS'OTP'
p1848
F0.0
sS'SMNH'
p1849
F0.006802721088435374
sS'LGT'
p1850
F0.0
sS'DZA'
p1851
F0.0
sS'NAC'
p1852
F0.0
sS'JU'
p1853
F0.02174316825706392
sS'JP'
p1854
F0.03973671379814724
sS'SEGM'
p1855
F0.0
sS'JM'
p1856
F0.0
sS'MHRG'
p1857
F0.00012769612964639782
sS'NAD'
p1858
F0.010459473891945856
sS'BNVD'
p1859
F0.006744677393141557
sS'HBJ'
p1860
F0.006802721088435374
sS'GOM'
p1861
F0.00679111234937661
sS'SCC'
p1862
F0.0
sS'NAK'
p1863
F0.0
sS'JGR'
p1864
F0.0
sS'BOR'
p1865
F0.0
sS'BNDP'
p1866
F0.00679111234937661
sS'IAA'
p1867
F0.0
sS'KKGM'
p1868
F0.0
sS'BNDA'
p1869
F0.003134359545866128
sS'TIR'
p1870
F0.0
sS'BNDM'
p1871
F0.0
sS'PHK'
p1872
F0.0
sS'PUT'
p1873
F0.0
sS'MZP'
p1874
F0.0029950546771609667
sS'KEI'
p1875
F0.0
sS'MZR'
p1876
F0.0
sS'KHMA'
p1877
F0.00679111234937661
sS'PHA'
p1878
F0.0
sS'PHD'
p1879
F0.0
sS'CHNR'
p1880
F0.0
sS'MZC'
p1881
F0.0
sS'MZL'
p1882
F0.0
sS'PHR'
p1883
F0.0
sS'SKT'
p1884
F0.0
sS'MSDN'
p1885
F0.0
sS'RMGM'
p1886
F0.0
sS'KLAR'
p1887
F0.0
sS'SKP'
p1888
F0.0
sS'SKS'
p1889
F0.0
sS'FTP'
p1890
F0.0
sS'SKY'
p1891
F0.00679111234937661
sS'BOY'
p1892
F0.0
sS'BNXR'
p1893
F0.0
sS'SKB'
p1894
F0.0
sS'SKM'
p1895
F0.0
sS'VMA'
p1896
F0.0
sS'SKI'
p1897
F0.00679111234937661
sS'SMO'
p1898
F0.0
sS'SKJ'
p1899
F0.0
sS'BDTS'
p1900
F0.006802721088435374
sS'JUD'
p1901
F0.0
sS'TCR'
p1902
F0.030705114810429292
sS'BOE'
p1903
F0.00679111234937661
sS'MFP'
p1904
F0.018434677625316337
sS'MFQ'
p1905
F0.0
sS'AONI'
p1906
F0.00679111234937661
sS'GED'
p1907
F0.0
sS'KVK'
p1908
F0.0
sS'JGJ'
p1909
F0.0
sS'MHJ'
p1910
F0.0013698312089340855
sS'JGM'
p1911
F0.0
sS'MHH'
p1912
F0.0
sS'GKP'
p1913
F0.015625362773095588
sS'MHD'
p1914
F0.0
sS'DDP'
p1915
F0.0
sS'JGD'
p1916
F0.0
sS'MKDI'
p1917
F0.0
sS'GKH'
p1918
F0.0
sS'GKK'
p1919
F0.0
sS'GKJ'
p1920
F0.00679111234937661
sS'DDN'
p1921
F0.006802721088435374
sS'DDL'
p1922
F0.0
sS'BRMO'
p1923
F0.0
sS'MHT'
p1924
F0.0
sS'DDE'
p1925
F0.0
sS'MHQ'
p1926
F0.0
sS'SSIA'
p1927
F0.0
sS'ANF'
p1928
F0.00679111234937661
sS'ANG'
p1929
F0.0
sS'NVS'
p1930
F0.0
sS'SUJH'
p1931
F0.0
sS'ANH'
p1932
F0.0
sS'ANK'
p1933
F0.0
sS'NVG'
p1934
F0.00679111234937661
sS'ANV'
p1935
F0.0
sS'CKTD'
p1936
F0.0003018272155278494
sS'GDYA'
p1937
F0.0
sS'ANY'
p1938
F0.00679111234937661
sS'GWD'
p1939
F0.0
sS'TMR'
p1940
F0.0
sS'KHS'
p1941
F0.0
sS'GWA'
p1942
F0.0
sS'TMV'
p1943
F0.0
sS'TMX'
p1944
F0.0
sS'GWL'
p1945
F0.013570615959694459
sS'TMZ'
p1946
F0.013559007220635695
sS'TMKA'
p1947
F0.0
sS'GWV'
p1948
F0.0
sS'TME'
p1949
F0.0
sS'GWS'
p1950
F0.0
sS'KDM'
p1951
F0.0
sS'KKDI'
p1952
F0.006802721088435374
sS'KOAA'
p1953
F0.010900605976178868
sS'HWH'
p1954
F0.04520442989482482
sS'KDG'
p1955
F0.0
sS'VVM'
p1956
F0.00679111234937661
sS'KKDE'
p1957
F0.0
sS'NJP'
p1958
F0.1162383041953983
sS'BHME'
p1959
F0.0
sS'KDZ'
p1960
F0.00679111234937661
sS'NJT'
p1961
F0.0
sS'ADR'
p1962
F0.0
sS'SOL'
p1963
F0.00679111234937661
sS'KDP'
p1964
F0.0
sS'KRY'
p1965
F0.0
sS'NDL'
p1966
F0.0
sS'NDO'
p1967
F0.0
sS'KRR'
p1968
F0.009449513593833437
sS'KRS'
p1969
F0.0
sS'NDB'
p1970
F0.009159295117364352
sS'NDD'
p1971
F0.0
sS'KRJ'
p1972
F0.0035522741519816116
sS'KRH'
p1973
F0.0
sS'HEM'
p1974
F0.0
sS'BALU'
p1975
F0.0
sS'KRA'
p1976
F0.00679111234937661
sS'NDU'
p1977
F0.0
sS'NDT'
p1978
F0.006802721088435374
sS'NDW'
p1979
F0.0
sS'KRE'
p1980
F0.0
sS'BJF'
p1981
F0.0
sS'BJE'
p1982
F0.006802721088435374
sS'BJD'
p1983
F0.0
sS'BJO'
p1984
F0.0
sS'TRAN'
p1985
F0.0
sS'VVB'
p1986
F0.0
sS'BJW'
p1987
F0.0
sS'BJU'
p1988
F0.04557590954470525
sS'BJR'
p1989
F0.0
sS'BJP'
p1990
F0.0055838034872652135
sS'UHL'
p1991
F0.013570615959694459
sS'KRNT'
p1992
F0.025504399712103273
sS'WSA'
p1993
F0.0
sS'HYB'
p1994
F0.006802721088435374
sS'CBN'
p1995
F0.0
sS'WSJ'
p1996
F4.643495623505375e-05
sS'HYT'
p1997
F0.0
sS'ARCL'
p1998
F0.00679111234937661
sS'RWO'
p1999
F0.0
sS'FAN'
p2000
F0.0
sS'KPGM'
p2001
F0.0
sS'MQ'
p2002
F0.006802721088435374
sS'LEDO'
p2003
F0.006802721088435374
sS'UHP'
p2004
F0.006802721088435374
sS'GJUT'
p2005
F0.0
sS'VKR'
p2006
F0.0
sS'HMT'
p2007
F1.1608739058763437e-05
sS'ADRA'
p2008
F0.001729702119755752
sS'VKI'
p2009
F0.0
sS'DMRT'
p2010
F0.0
sS'VKN'
p2011
F0.0
sS'VKA'
p2012
F0.0
sS'VKB'
p2013
F0.013431311090989297
sS'SVA'
p2014
F0.0
sS'MRPR'
p2015
F0.0036567528035104826
sS'SBLT'
p2016
F0.0
sS'MKPR'
p2017
F0.0
sS'BQR'
p2018
F0.0
sS'PURI'
p2019
F0.006802721088435374
sS'KNPS'
p2020
F0.00679111234937661
sS'KNPR'
p2021
F0.0
sS'PANP'
p2022
F0.0
sS'BQP'
p2023
F0.0
sS'CCT'
p2024
F0.013570615959694459
sS'BGBR'
p2025
F0.0
sS'DARA'
p2026
F0.0
sS'DMRX'
p2027
F0.0
sS'SMZ'
p2028
F0.0
sS'MYY'
p2029
F0.0
sS'PUNE'
p2030
F0.08922476840565578
sS'SBPD'
p2031
F0.0
sS'PIL'
p2032
F0.0
sS'PIA'
p2033
F0.0
sS'MYS'
p2034
F0.0069652434352580625
sS'MYR'
p2035
F0.0
sS'BMKI'
p2036
F0.0047247567969167185
sS'PIP'
p2037
F0.0
sS'ASKN'
p2038
F0.0
sS'MYD'
p2039
F0.0
sS'MYG'
p2040
F0.0
sS'POK'
p2041
F0.0
sS'CAER'
p2042
F0.0
sS'DOA'
p2043
F0.0
sS'CQA'
p2044
F0.00679111234937661
sS'GIMB'
p2045
F0.013570615959694459
sS'GRKN'
p2046
F0.00679111234937661
sS'DUBH'
p2047
F0.0
sS'SIOB'
p2048
F0.013535789742518168
sS'ON'
p2049
F0.00017413108588145156
sS'PLJE'
p2050
F0.0
sS'UBR'
p2051
F0.0
sS'ALER'
p2052
F0.0
sS'SLD'
p2053
F0.0
sS'GLGT'
p2054
F0.0
sS'NCH'
p2055
F0.0
sS'UBC'
p2056
F0.0
sS'UBL'
p2057
F0.01715771632885236
sS'FD'
p2058
F0.008625293120661234
sS'RQJ'
p2059
F0.0
sS'KANO'
p2060
F0.0
sS'CUPJ'
p2061
F0.0
sS'BZA'
p2062
F0.24273873371874347
sS'DGLE'
p2063
F0.0
sS'MWT'
p2064
F0.0
sS'DER'
p2065
F0.0
sS'MWX'
p2066
F0.0
sS'GJS'
p2067
F0.0
sS'KTO'
p2068
F0.00679111234937661
sS'JDB'
p2069
F0.006802721088435374
sS'NRDP'
p2070
F0.0
sS'GJL'
p2071
F0.0
sS'GJH'
p2072
F0.0
sS'MWK'
p2073
F0.0034129692832764505
sS'MWJ'
p2074
F0.0
sS'GJD'
p2075
F0.0
sS'MWH'
p2076
F0.0
sS'DEE'
p2077
F0.00705811334772817
sS'MWM'
p2078
F0.0
sS'DEG'
p2079
F0.0
sS'AMI'
p2080
F0.006802721088435374
sS'NWU'
p2081
F0.0
sS'KBRV'
p2082
F0.0
sS'NWP'
p2083
F0.0
sS'AML'
p2084
F0.0
sS'NWR'
p2085
F0.0
sS'FL'
p2086
F0.0
sS'ORGA'
p2087
F0.0
sS'BVNR'
p2088
F0.0
sS'AMG'
p2089
F0.0
sS'NWD'
p2090
F0.0
sS'NWA'
p2091
F0.00679111234937661
sS'CHA'
p2092
F0.0
sS'AMP'
p2093
F0.0
sS'DMGN'
p2094
F0.0
sS'BSX'
p2095
F0.000847437951289731
sS'CBSA'
p2096
F0.00679111234937661
sS'KL'
p2097
F0.0
sS'BZM'
p2098
F0.0
sS'ANGL'
p2099
F0.00029021847646908594
sS'KVZ'
p2100
F0.0
sS'BNWC'
p2101
F0.0
sS'GPR'
p2102
F0.0
sS'MNAE'
p2103
F0.0
sS'KHRK'
p2104
F0.0
sS'KHRJ'
p2105
F0.0
sS'KLRE'
p2106
F0.0
sS'NEO'
p2107
F0.0
sS'KUX'
p2108
F0.0
sS'GNW'
p2109
F0.0
sS'BSP'
p2110
F0.050080100299505464
sS'KUU'
p2111
F0.0
sS'KUR'
p2112
F0.016565670636855424
sS'KUN'
p2113
F0.0
sS'KUH'
p2114
F0.0
sS'KUF'
p2115
F0.0
sS'KUE'
p2116
F0.0
sS'KUD'
p2117
F0.0
sS'HSRA'
p2118
F0.0
sS'HFG'
p2119
F0.0
sS'BHTN'
p2120
F0.0
sS'BKG'
p2121
F0.0
sS'MUGR'
p2122
F0.006802721088435374
sS'BKL'
p2123
F0.0
sS'RMNP'
p2124
F0.0
sS'BKN'
p2125
F0.014197487868867684
sS'BKO'
p2126
F0.0
sS'BKH'
p2127
F0.0
sS'SALE'
p2128
F0.0
sS'BKJ'
p2129
F0.0
sS'HMH'
p2130
F0.0013698312089340855
sS'BKP'
p2131
F0.00679111234937661
sS'JSP'
p2132
F0.0
sS'BUDI'
p2133
F0.0
sS'BUDM'
p2134
F0.0
sS'BHTK'
p2135
F0.0
sS'BURN'
p2136
F0.0
sS'JSR'
p2137
F0.0
sS'SJP'
p2138
F0.0005804369529381719
sS'DHRR'
p2139
F0.0
sS'SJT'
p2140
F0.0
sS'AADR'
p2141
F0.006802721088435374
sS'KNLS'
p2142
F0.0
sS'KUTI'
p2143
F0.0
sS'MDP'
p2144
F0.00679111234937661
sS'CRLM'
p2145
F0.0
sS'LGO'
p2146
F0.0
sS'JRG'
p2147
F0.00679111234937661
sS'MED'
p2148
F0.0
sS'GDR'
p2149
F0.0069652434352580625
sS'GADH'
p2150
F0.0
sS'JRA'
p2151
F0.0
sS'MEM'
p2152
F0.0
sS'GDZ'
p2153
F0.00679111234937661
sS'JRK'
p2154
F0.0
sS'SMBL'
p2155
F0.0
sS'MEJ'
p2156
F0.00679111234937661
sS'KDHA'
p2157
F0.0
sS'MET'
p2158
F0.0
sS'GDB'
p2159
F0.006326762787026073
sS'JRR'
p2160
F0.0
sS'GDG'
p2161
F0.0014394836432866662
sS'SMBJ'
p2162
F0.0
sS'MDU'
p2163
F0.05694086508323466
sS'GDL'
p2164
F0.013489354786283114
sS'MEX'
p2165
F0.0
sS'VDD'
p2166
F0.0
sS'YNK'
p2167
F0.0
sS'LWR'
p2168
F0.0
sS'SDLP'
p2169
F0.00017413108588145156
sS'CPP'
p2170
F0.0
sS'BHLK'
p2171
F0.00016252234682268812
sS'TU'
p2172
F0.0
sS'TR'
p2173
F0.0
sS'TP'
p2174
F0.0
sS'VDL'
p2175
F0.0
sS'TN'
p2176
F0.006802721088435374
sS'TL'
p2177
F0.0
sS'TJ'
p2178
F0.015625362773095588
sS'TK'
p2179
F0.00029021847646908594
sS'MFKA'
p2180
F0.0
sS'TA'
p2181
F0.0
sS'GVI'
p2182
F0.0
sS'CHJ'
p2183
F0.0
sS'AD'
p2184
F0.0
sS'GVL'
p2185
F0.0
sS'TNR'
p2186
F0.0
sS'AI'
p2187
F0.0
sS'AH'
p2188
F0.0
sS'AK'
p2189
F0.01415105291263263
sS'AL'
p2190
F0.0
sS'GVD'
p2191
F0.0
sS'AN'
p2192
F0.0
sS'TNA'
p2193
F0.0008010029950546772
sS'TNM'
p2194
F0.0
sS'TNL'
p2195
F0.00679111234937661
sS'AZ'
p2196
F0.006802721088435374
sS'KGQ'
p2197
F0.0007545680388196235
sS'KGP'
p2198
F0.0907106870051775
sS'KGS'
p2199
F0.0
sS'NKD'
p2200
F0.0
sS'NKE'
p2201
F0.0020315293352836015
sS'KGX'
p2202
F0.0
sS'NKJ'
p2203
F0.0
sS'NKM'
p2204
F0.0
sS'BVRM'
p2205
F0.0
sS'NKP'
p2206
F0.0
sS'KGB'
p2207
F0.0
sS'BVRT'
p2208
F0.00679111234937661
sS'NKW'
p2209
F0.0
sS'KGI'
p2210
F0.0
sS'KGM'
p2211
F0.006802721088435374
sS'KGL'
p2212
F0.0
sS'CPH'
p2213
F0.010169255415476771
sS'CPJ'
p2214
F0.0
sS'CPK'
p2215
F0.00679111234937661
sS'CPN'
p2216
F0.0
sS'CKD'
p2217
F0.0003830883889391934
sS'CPA'
p2218
F0.006802721088435374
sS'SKLR'
p2219
F0.0005804369529381719
sS'RAJP'
p2220
F0.0
sS'CPR'
p2221
F0.007661767778783869
sS'CPS'
p2222
F0.0
sS'CPT'
p2223
F0.0
sS'CPU'
p2224
F0.0063499802651436005
sS'MRBL'
p2225
F0.0
sS'MANU'
p2226
F0.00679111234937661
sS'LLJ'
p2227
F0.0
sS'KTSH'
p2228
F0.0
sS'PAW'
p2229
F0.0
sS'NILE'
p2230
F0.0
sS'PSE'
p2231
F0.0
sS'MONR'
p2232
F0.0
sS'MANG'
p2233
F0.0
sS'UAA'
p2234
F0.0
sS'GLPT'
p2235
F0.052471500545610734
sS'DUSI'
p2236
F0.0
sS'PUN'
p2237
F0.0
sS'WRR'
p2238
F0.0
sS'WRS'
p2239
F0.0
sS'HZR'
p2240
F0.0
sS'KTES'
p2241
F0.0006500893872907525
sS'KYOP'
p2242
F0.0
sS'ADI'
p2243
F0.10209886002182443
sS'KESR'
p2244
F0.0
sS'RMRB'
p2245
F0.0
sS'BGSF'
p2246
F0.0
sS'THV'
p2247
F0.0
sS'CHP'
p2248
F0.0
sS'KATL'
p2249
F0.0
sS'LAV'
p2250
F0.0
sS'LAR'
p2251
F0.0
sS'SNKL'
p2252
F0.00679111234937661
sS'SGUJ'
p2253
F0.006802721088435374
sS'DTO'
p2254
F0.003505839195746558
sS'TNKU'
p2255
F0.006767894871259084
sS'DTC'
p2256
F0.0
sS'PNVL'
p2257
F0.07232244433609622
sS'MMM'
p2258
F0.0
sS'SBC'
p2259
F0.014081400478280048
sS'PUX'
p2260
F0.00679111234937661
sS'GVN'
p2261
F0.0
sS'MMH'
p2262
F0.0
sS'STBJ'
p2263
F0.0
sS'FTS'
p2264
F0.0
sS'BDN'
p2265
F0.0
sS'SBD'
p2266
F0.0
sS'IGP'
p2267
F0.0
sS'JJG'
p2268
F0.00679111234937661
sS'FTG'
p2269
F0.0
sS'GSPR'
p2270
F0.0
sS'CBF'
p2271
F0.0
sS'CBE'
p2272
F0.013570615959694459
sS'CBJ'
p2273
F0.0
sS'CBK'
p2274
F0.0
sS'MXT'
p2275
F0.0
sS'MXR'
p2276
F0.0
sS'CBM'
p2277
F0.0
sS'MXN'
p2278
F0.013535789742518168
sS'SKZR'
p2279
F0.006802721088435374
sS'MXK'
p2280
F0.0
sS'MXH'
p2281
F0.0
sS'CBZ'
p2282
F0.00679111234937661
sS'PUS'
p2283
F0.0
sS'MXA'
p2284
F0.00679111234937661
sS'BZU'
p2285
F0.0025887488101042464
sS'BZR'
p2286
F0.0
sS'SMT'
p2287
F0.0
sS'SMR'
p2288
F0.00679111234937661
sS'BZY'
p2289
F0.0
sS'PERN'
p2290
F0.0
sS'BZG'
p2291
F0.0
sS'FA'
p2292
F0.0
sS'SML'
p2293
F0.006802721088435374
sS'SMK'
p2294
F0.0
sS'MQO'
p2295
F0.0
sS'SMI'
p2296
F0.0068143298274941375
sS'BZO'
p2297
F0.0
sS'BZN'
p2298
F0.0
sS'SME'
p2299
F0.0
sS'FK'
p2300
F0.0
sS'SMC'
p2301
F0.00679111234937661
sS'FM'
p2302
F0.0
sS'CROA'
p2303
F0.0
sS'MDJ'
p2304
F0.0
sS'JSG'
p2305
F0.014034965522044996
sS'MDN'
p2306
F0.0
sS'NPNR'
p2307
F0.0
sS'RCTC'
p2308
F0.00679111234937661
sS'GGR'
p2309
F0.0
sS'MDB'
p2310
F0.0
sS'JSM'
p2311
F0.006802721088435374
sS'BRYA'
p2312
F0.0
sS'KON'
p2313
F0.0
sS'MDE'
p2314
F0.0
sS'JSV'
p2315
F0.0
sS'GGA'
p2316
F0.0
sS'MDVL'
p2317
F0.0
sS'GGC'
p2318
F0.0
sS'AMLA'
p2319
F0.00679111234937661
sS'MDR'
p2320
F0.0
sS'MDS'
p2321
F0.0034129692832764505
sS'BONA'
p2322
F0.0
sS'GGN'
p2323
F0.0
sS'KZTW'
p2324
F0.0
sS'MDW'
p2325
F0.0
sS'GGJ'
p2326
F0.0
sS'JER'
p2327
F0.0
sS'JES'
p2328
F0.0
sS'LUSA'
p2329
F0.0
sS'THUR'
p2330
F0.0
sS'BPHB'
p2331
F0.0
sS'MVI'
p2332
F0.0
sS'MVJ'
p2333
F0.013547398481576932
sS'MVN'
p2334
F0.0
sS'MVO'
p2335
F0.0
sS'ALJ'
p2336
F0.0
sS'ALD'
p2337
F0.17417752083768662
sS'ALB'
p2338
F0.0
sS'NTV'
p2339
F0.006802721088435374
sS'ALY'
p2340
F0.006802721088435374
sS'SHNG'
p2341
F0.0
sS'ALU'
p2342
F0.0
sS'GQL'
p2343
F0.0
sS'YL'
p2344
F0.0
sS'YA'
p2345
F0.0
sS'HTK'
p2346
F0.0
sS'YG'
p2347
F0.0
sS'SYWN'
p2348
F0.0
sS'KSWR'
p2349
F0.0
sS'BAO'
p2350
F0.0
sS'YP'
p2351
F0.0
sS'BAL'
p2352
F0.0
sS'BVN'
p2353
F0.0
sS'HIP'
p2354
F0.0
sS'HIR'
p2355
F0.0
sS'RSNR'
p2356
F0.0
sS'NHN'
p2357
F0.0
sS'NHH'
p2358
F0.0
sS'NHK'
p2359
F0.0
sS'NHT'
p2360
F0.0
sS'KFA'
p2361
F0.0
sS'HIJ'
p2362
F0.0011260476887000534
sS'BAI'
p2363
F0.0
sS'HIL'
p2364
F0.00679111234937661
sS'KRPU'
p2365
F0.013570615959694459
sS'RGDA'
p2366
F0.022126256646003113
sS'KTX'
p2367
F0.00679111234937661
sS'NZT'
p2368
F0.00679111234937661
sS'KTU'
p2369
F0.0
sS'HGT'
p2370
F0.0
sS'KTW'
p2371
F0.006802721088435374
sS'KTQ'
p2372
F0.0
sS'TLWA'
p2373
F0.0
sS'KTM'
p2374
F0.0
sS'ABR'
p2375
F0.01846950384249263
sS'ABS'
p2376
F0.006326762787026073
sS'KTH'
p2377
F0.0
sS'HGH'
p2378
F0.0
sS'NZD'
p2379
F0.0
sS'JGNR'
p2380
F0.00679111234937661
sS'BANO'
p2381
F0.0
sS'BANI'
p2382
F0.0
sS'NZM'
p2383
F0.04765387383622391
sS'JIND'
p2384
F0.0
sS'BSGN'
p2385
F0.0
sS'BHL'
p2386
F0.00111443894964129
sS'BHC'
p2387
F0.00412110236586102
sS'BHB'
p2388
F0.0
sS'BHD'
p2389
F0.0
sS'BHZ'
p2390
F0.0
sS'BAGL'
p2391
F0.0
sS'CAF'
p2392
F0.0
sS'HTE'
p2393
F0.006802721088435374
sS'BHS'
p2394
F0.0
sS'BHT'
p2395
F0.0
sS'BHW'
p2396
F0.007441201736667363
sS'GNGD'
p2397
F0.0
sS'KKPM'
p2398
F0.0
sS'BAP'
p2399
F0.0
sS'MKRN'
p2400
F0.0
sS'DURE'
p2401
F0.0
sS'MKRH'
p2402
F0.0
sS'MLNH'
p2403
F0.0
sS'VPZ'
p2404
F0.00679111234937661
sS'RAG'
p2405
F0.0
sS'BAQ'
p2406
F0.0
sS'RAA'
p2407
F0.0
sS'FGR'
p2408
F0.0
sS'LBA'
p2409
F0.0
sS'SBM'
p2410
F0.0
sS'LLGM'
p2411
F0.0
sS'RAY'
p2412
F0.0
sS'MURI'
p2413
F0.007417984258549836
sS'BFD'
p2414
F0.0
sS'BFJ'
p2415
F0.0034129692832764505
sS'ATNR'
p2416
F0.0
sS'MURD'
p2417
F0.0
sS'BFM'
p2418
F0.0
sS'GMAN'
p2419
F0.0
sS'LPJ'
p2420
F0.0
sS'LPI'
p2421
F0.0
sS'LTHR'
p2422
F0.0
sS'PHN'
p2423
F0.0
sS'MDJN'
p2424
F0.0
sS'VID'
p2425
F0.0
sS'MZS'
p2426
F0.0034129692832764505
sS'GHGL'
p2427
F0.0
sS'SKR'
p2428
F0.0
sS'SDNR'
p2429
F0.00679111234937661
sS'STD'
p2430
F0.0
sS'FUT'
p2431
F0.00679111234937661
sS'CLKA'
p2432
F0.0
sS'LHLL'
p2433
F0.0
sS'URPR'
p2434
F0.0
sS'BNGN'
p2435
F0.0
sS'ABD'
p2436
F0.0
sS'BLGT'
p2437
F0.006802721088435374
sS'BLGR'
p2438
F0.006942025957140535
sS'PKR'
p2439
F0.007348331824197256
sS'PKQ'
p2440
F0.00679111234937661
sS'KHBJ'
p2441
F4.643495623505375e-05
sS'PKU'
p2442
F5.8043695293817184e-05
sS'RUSD'
p2443
F0.0067214599150240304
sS'DUMK'
p2444
F0.006802721088435374
sS'RNGG'
p2445
F0.0
sS'PKF'
p2446
F0.0
sS'JAMA'
p2447
F0.00679111234937661
sS'PKD'
p2448
F0.0
sS'ABI'
p2449
F0.0
sS'CHSM'
p2450
F0.0
sS'PKO'
p2451
F0.00679111234937661
sS'CSN'
p2452
F0.0034129692832764505
sS'CSA'
p2453
F0.0
sS'CSB'
p2454
F0.0
sS'NBR'
p2455
F0.0
sS'BKSL'
p2456
F0.0
sS'CSZ'
p2457
F0.0
sS'LUNI'
p2458
F0.00679111234937661
sS'BKSC'
p2459
F2.3217478117526874e-05
sS'ABP'
p2460
F0.0
sS'BAND'
p2461
F0.0
sS'AKVD'
p2462
F2.3217478117526874e-05
sS'KTRH'
p2463
F0.0
sS'HGL'
p2464
F0.0
sS'SGDP'
p2465
F0.0
sS'KTRR'
p2466
F0.0
sS'SGDM'
p2467
F0.0
sS'NNGE'
p2468
F0.0
sS'MUT'
p2469
F0.0
sS'MUW'
p2470
F0.0
sS'MUV'
p2471
F0.006802721088435374
sS'KTJ'
p2472
F0.0
sS'JBP'
p2473
F0.14502797706113163
sS'NNGL'
p2474
F0.0
sS'KLPM'
p2475
F0.0
sS'KUDA'
p2476
F0.0
sS'MUE'
p2477
F3.482621717629031e-05
sS'MUD'
p2478
F0.0
sS'KAPG'
p2479
F0.0
sS'KTE'
p2480
F0.008230595992663277
sS'JBN'
p2481
F0.006802721088435374
sS'JL'
p2482
F0.0033665343270413966
sS'ASR'
p2483
F0.006802721088435374
sS'SNDD'
p2484
F0.0
sS'ASV'
p2485
F0.003401360544217687
sS'AST'
p2486
F0.0
sS'DGI'
p2487
F0.0
sS'NUR'
p2488
F0.0
sS'DGO'
p2489
F0.0
sS'NUQ'
p2490
F0.0
sS'DGR'
p2491
F0.006338371526084837
sS'NUJ'
p2492
F0.0
sS'SLGR'
p2493
F0.0
sS'DGU'
p2494
F0.0
sS'ASK'
p2495
F0.0073367230851384925
sS'ORAI'
p2496
F0.027071579485036336
sS'NUD'
p2497
F0.013489354786283114
sS'ASH'
p2498
F0.006802721088435374
sS'ASN'
p2499
F0.027512711569269346
sS'ODM'
p2500
F0.0
sS'DUI'
p2501
F0.0012305263402289243
sS'DUJ'
p2502
F0.0
sS'CSTM'
p2503
F0.006802721088435374
sS'DUA'
p2504
F0.0
sS'DUB'
p2505
F0.0
sS'DUD'
p2506
F0.0
sS'BHTA'
p2507
F0.0
sS'R'
p2508
F0.05877504585451928
sS'MCRD'
p2509
F0.00679111234937661
sS'THDR'
p2510
F0.0
sS'MLPR'
p2511
F0.0
sS'NS'
p2512
F0.006802721088435374
sS'KK'
p2513
F0.0
sS'KJ'
p2514
F0.0
sS'KI'
p2515
F0.0
sS'KH'
p2516
F0.0
sS'KO'
p2517
F0.0
sS'KN'
p2518
F0.0
sS'OML'
p2519
F0.03726405237863063
sS'KS'
p2520
F0.0
sS'KP'
p2521
F0.0
sS'MNGD'
p2522
F0.0
sS'KT'
p2523
F0.0
sS'SKA'
p2524
F0.0
sS'KY'
p2525
F0.0
sS'NW'
p2526
F0.0
sS'ITR'
p2527
F0.0
sS'GBP'
p2528
F0.0
sS'AAM'
p2529
F0.00679111234937661
sS'AAL'
p2530
F0.0
sS'AAY'
p2531
F0.0
sS'BHRL'
p2532
F0.0
sS'BIO'
p2533
F0.0
sS'BIM'
p2534
F0.0
sS'SANR'
p2535
F0.0
sS'BIK'
p2536
F0.0
sS'BIH'
p2537
F0.0
sS'BIG'
p2538
F0.0
sS'BID'
p2539
F0.0
sS'KWM'
p2540
F0.0
sS'BIC'
p2541
F0.0
sS'KWO'
p2542
F0.0
sS'BIA'
p2543
F0.0
sS'KWP'
p2544
F0.0
sS'KWR'
p2545
F0.0
sS'BIX'
p2546
F0.006802721088435374
sS'BIY'
p2547
F0.0
sS'SLY'
p2548
F0.0
sS'JUC'
p2549
F0.04020106336049778
sS'SLT'
p2550
F0.0
sS'CTND'
p2551
F0.0
sS'SLR'
p2552
F0.00679111234937661
sS'SLN'
p2553
F0.007185809477374567
sS'SLO'
p2554
F0.0032968818926888163
sS'KLNK'
p2555
F0.0
sS'SLI'
p2556
F0.0
sS'SLJ'
p2557
F0.0
sS'BHP'
p2558
F0.006802721088435374
sS'DJHR'
p2559
F0.0
sS'SLF'
p2560
F0.0
sS'TRVL'
p2561
F0.0
sS'NCB'
p2562
F0.006802721088435374
sS'SLB'
p2563
F0.0
sS'JPH'
p2564
F0.0
sS'JPL'
p2565
F0.0
sS'MCI'
p2566
F0.0
sS'JPE'
p2567
F0.0
sS'KLRS'
p2568
F0.0
sS'MCA'
p2569
F0.01347774604722435
sS'BYNR'
p2570
F0.0
sS'JPZ'
p2571
F0.0
sS'MCU'
p2572
F0.0
sS'DMG'
p2573
F0.0
sS'MCQ'
p2574
F0.0
sS'SVPR'
p2575
F0.00679111234937661
sS'BGH'
p2576
F0.0
sS'MFL'
p2577
F0.0
sS'BGK'
p2578
F0.006802721088435374
sS'SHDM'
p2579
F0.0
sS'BGM'
p2580
F0.00032504469364537625
sS'BGP'
p2581
F0.015439622948155372
sS'YLG'
p2582
F0.0
sS'BGS'
p2583
F9.28699124701075e-05
sS'PYOL'
p2584
F0.0
sS'BSTP'
p2585
F0.0
sS'BGY'
p2586
F0.006802721088435374
sS'SVPI'
p2587
F4.643495623505375e-05
sS'YLM'
p2588
F0.0
sS'TCN'
p2589
F0.006802721088435374
sS'VNE'
p2590
F0.00679111234937661
sS'VNB'
p2591
F0.00679111234937661
sS'VNA'
p2592
F0.0
sS'PRNA'
p2593
F0.00679111234937661
sS'SDMD'
p2594
F0.0
sS'WENA'
p2595
F0.0
sS'DURG'
p2596
F0.013570615959694459
sS'SBBJ'
p2597
F0.0
sS'BUI'
p2598
F0.012142741055466555
sS'DDA'
p2599
F0.0
sS'DLPH'
p2600
F0.0
sS'GPH'
p2601
F0.0
sS'GPD'
p2602
F0.0
sS'BBMN'
p2603
F0.0
sS'GPB'
p2604
F0.0
sS'GPZ'
p2605
F0.00679111234937661
sS'THB'
p2606
F0.0
sS'THA'
p2607
F0.0
sS'HLAR'
p2608
F0.0
sS'HJP'
p2609
F0.019943813702955584
sS'NIL'
p2610
F0.006802721088435374
sS'KIS'
p2611
F0.0
sS'KIR'
p2612
F0.1508091291123958
sS'KIP'
p2613
F0.0
sS'KIT'
p2614
F0.0
sS'KIK'
p2615
F0.006802721088435374
sS'KIN'
p2616
F0.0
sS'KIM'
p2617
F0.0
sS'NIR'
p2618
F0.00679111234937661
sS'HJO'
p2619
F0.0
sS'NIQ'
p2620
F0.0
sS'HJI'
p2621
F0.0
sS'NIU'
p2622
F0.0
sS'CRR'
p2623
F0.0
sS'CRP'
p2624
F0.0
sS'FDB'
p2625
F0.0
sS'TATA'
p2626
F0.10631283230015556
sS'FDK'
p2627
F0.0012073088621113975
sS'CRY'
p2628
F0.0
sS'BIDR'
p2629
F0.006825938566552901
sS'BKRO'
p2630
F0.0
sS'CRJ'
p2631
F0.003505839195746558
sS'CTYL'
p2632
F0.0
sS'CRN'
p2633
F0.00679111234937661
sS'BKRD'
p2634
F0.0
sS'PS'
p2635
F0.0
sS'PP'
p2636
F0.013535789742518168
sS'JGN'
p2637
F0.0
sS'KRMR'
p2638
F0.006802721088435374
sS'PB'
p2639
F0.0
sS'KRMI'
p2640
F0.0
sS'MALM'
p2641
F0.0
sS'KMJ'
p2642
F0.0
sS'DDR'
p2643
F0.006802721088435374
sS'MALB'
p2644
F0.0
sS'SMLA'
p2645
F0.0
sS'BLS'
p2646
F0.00679111234937661
sS'FBD'
p2647
F0.006802721088435374
sS'RV'
p2648
F0.0
sS'S'
p2649
F0.0
sS'MKSR'
p2650
F0.0
sS'SKN'
p2651
F0.0
sS'KTCH'
p2652
F0.0
sS'KMBL'
p2653
F0.00679111234937661
sS'DOTL'
p2654
F0.0
sS'RNH'
p2655
F0.0
sS'RNO'
p2656
F0.0
sS'RNC'
p2657
F0.007998421211488008
sS'RNG'
p2658
F0.0
sS'RNY'
p2659
F0.013570615959694459
sS'OPL'
p2660
F0.0
sS'RNR'
p2661
F0.0
sS'RNQ'
p2662
F0.0
sS'SPRD'
p2663
F0.0
sS'RNV'
p2664
F0.0
sS'KPRR'
p2665
F0.0
sS'DVL'
p2666
F0.0
sS'NDLS'
p2667
F0.19698869308815675
sS'UMR'
p2668
F0.0005920456919969353
sS'DVD'
p2669
F0.047630656358106385
sS'DVG'
p2670
F0.01124886814794177
sS'BMLL'
p2671
F0.0
sS'GLG'
p2672
F0.0
sS'MHV'
p2673
F0.006802721088435374
sS'MABA'
p2674
F0.0
sS'UMB'
p2675
F0.09035081609435583
sS'SWPR'
p2676
F0.0
sS'GKC'
p2677
F0.0
sS'IKR'
p2678
F0.0
sS'ANDN'
p2679
F0.00679111234937661
sS'ANDI'
p2680
F0.006802721088435374
sS'MSMD'
p2681
F0.0
sS'IKK'
p2682
F0.0
sS'MBA'
p2683
F0.00679111234937661
sS'MZM'
p2684
F0.0
sS'BLDI'
p2685
F0.0
sS'ANVR'
p2686
F0.0
sS'KER'
p2687
F0.0
sS'FZR'
p2688
F0.007824290125606556
sS'BLDA'
p2689
F0.0
sS'PMKT'
p2690
F0.0
sS'OBR'
p2691
F0.0
sS'WTJ'
p2692
F0.0
sS'FZD'
p2693
F0.0
sS'BILD'
p2694
F0.0
sS'PLS'
p2695
F0.0
sS'ANB'
p2696
F0.0
sS'PLP'
p2697
F0.0
sS'CDM'
p2698
F0.0
sS'PLY'
p2699
F0.00679111234937661
sS'PLG'
p2700
F0.0
sS'PSB'
p2701
F0.0
sS'MRND'
p2702
F0.0
sS'RURA'
p2703
F0.0
sS'PLO'
p2704
F0.0
sS'PLK'
p2705
F0.0
sS'PLJ'
p2706
F0.0
sS'PLI'
p2707
F0.0
sS'BXY'
p2708
F0.0
sS'MOP'
p2709
F0.0
sS'BXP'
p2710
F0.0
sS'CDG'
p2711
F0.02029207587471849
sS'BPK'
p2712
F0.0
sS'TLGP'
p2713
F0.006802721088435374
sS'BXK'
p2714
F0.0
sS'BXJ'
p2715
F0.0
sS'BXM'
p2716
F0.0
sS'PSD'
p2717
F0.0
sS'BXN'
p2718
F0.0
sS'BXA'
p2719
F0.00679111234937661
sS'IPM'
p2720
F0.0
sS'MNTT'
p2721
F0.0
sS'SOA'
p2722
F0.0
sS'MBM'
p2723
F0.0
sS'MBI'
p2724
F0.00679111234937661
sS'SOG'
p2725
F0.0013698312089340855
sS'PPD'
p2726
F0.0
sS'SOH'
p2727
F0.0
sS'MBF'
p2728
F0.0034129692832764505
sS'MBG'
p2729
F0.013535789742518168
sS'PPO'
p2730
F0.0
sS'GAR'
p2731
F0.0
sS'MBB'
p2732
F0.00679111234937661
sS'GAP'
p2733
F0.0
sS'PPR'
p2734
F0.0
sS'GAM'
p2735
F0.0
sS'SOR'
p2736
F0.0
sS'GAGA'
p2737
F0.0
sS'MBY'
p2738
F0.0
sS'SOW'
p2739
F0.0
sS'PPT'
p2740
F0.0
sS'PPZ'
p2741
F0.0
sS'GAD'
p2742
F0.003401360544217687
sS'PNU'
p2743
F0.0
sS'MBS'
p2744
F0.0
sS'MTY'
p2745
F0.0
sS'ANR'
p2746
F0.0
sS'MTR'
p2747
F0.0
sS'MTP'
p2748
F0.006802721088435374
sS'MTPR'
p2749
F0.0
sS'MTU'
p2750
F0.0
sS'HLZ'
p2751
F0.006802721088435374
sS'SJN'
p2752
F0.0
sS'MTM'
p2753
F0.006802721088435374
sS'JCL'
p2754
F0.0
sS'MTC'
p2755
F0.00925216502983446
sS'NRGR'
p2756
F0.0
sS'MTD'
p2757
F0.0
sS'ARQ'
p2758
F0.00679111234937661
sS'JRNA'
p2759
F0.00679111234937661
sS'JNRD'
p2760
F0.006802721088435374
sS'BFR'
p2761
F0.0
sS'ARA'
p2762
F0.0
sS'SNGP'
p2763
F0.0
sS'MLD'
p2764
F0.0
sS'ARD'
p2765
F0.0
sS'WZJ'
p2766
F0.0
sS'ARJ'
p2767
F0.0
sS'TNGL'
p2768
F0.0
sS'BD'
p2769
F0.00679111234937661
sS'GSP'
p2770
F0.0
sS'BF'
p2771
F0.0
sS'BG'
p2772
F0.0
sS'BPO'
p2773
F0.00679111234937661
sS'TMQ'
p2774
F0.0
sS'BL'
p2775
F0.00746441921478489
sS'TIU'
p2776
F0.0
sS'BN'
p2777
F0.0
sS'TIW'
p2778
F0.0
sS'BH'
p2779
F0.0
sS'BCN'
p2780
F0.0
sS'BJ'
p2781
F0.0
sS'TIS'
p2782
F0.0
sS'BU'
p2783
F0.0
sS'BV'
p2784
F0.0
sS'VYA'
p2785
F0.0
sS'BP'
p2786
F0.0
sS'KMC'
p2787
F0.0
sS'TIG'
p2788
F0.021476167258712358
sS'VYN'
p2789
F0.0
sS'TIA'
p2790
F0.0
sS'BORA'
p2791
F0.0
sS'NNO'
p2792
F0.0
sS'NNN'
p2793
F0.0
sS'NNL'
p2794
F0.0
sS'EKMA'
p2795
F0.0
sS'BSPN'
p2796
F0.0
sS'KHT'
p2797
F0.0
sS'KHU'
p2798
F0.0
sS'NNA'
p2799
F0.0
sS'KHM'
p2800
F0.0
sS'BDBA'
p2801
F0.00679111234937661
sS'NNW'
p2802
F0.0
sS'NNR'
p2803
F0.0
sS'TDPR'
p2804
F0.0179703280629658
sS'NNP'
p2805
F0.0
sS'NAVI'
p2806
F0.0
sS'GTJT'
p2807
F0.0
sS'HNL'
p2808
F0.005351628706089944
sS'CKNI'
p2809
F0.0
sS'NXN'
p2810
F0.0
sS'BPP'
p2811
F0.0
sS'KVG'
p2812
F0.0
sS'BVQ'
p2813
F0.0
sS'BVP'
p2814
F0.0
sS'SQR'
p2815
F0.0
sS'KVM'
p2816
F0.0
sS'HNS'
p2817
F0.0
sS'BVC'
p2818
F0.006802721088435374
sS'KVU'
p2819
F0.0
sS'KVR'
p2820
F0.0
sS'SQN'
p2821
F0.0
sS'SQL'
p2822
F0.0
sS'BVI'
p2823
F0.017413108588145154
sS'BVH'
p2824
F0.0
sS'LHA'
p2825
F0.0
sS'SQF'
p2826
F0.0
sS'BVL'
p2827
F0.0
sS'JUJA'
p2828
F0.0
sS'MJZ'
p2829
F0.00679111234937661
sS'JTTN'
p2830
F0.0
sS'KAL'
p2831
F0.0
sS'ARGD'
p2832
F0.0
sS'CNS'
p2833
F0.0
sS'ROI'
p2834
F0.0
sS'ROK'
p2835
F0.03706670381463165
sS'LLR'
p2836
F0.0
sS'ICL'
p2837
F0.0
sS'BGPL'
p2838
F0.0
sS'LLI'
p2839
F0.0
sS'OSN'
p2840
F0.0
sS'ROP'
p2841
F0.00679111234937661
sS'ROU'
p2842
F0.0523554131550231
sS'BDC'
p2843
F0.003993406236214622
sS'BDM'
p2844
F0.0
sS'BDL'
p2845
F0.006802721088435374
sS'BUPH'
p2846
F0.0
sS'BDH'
p2847
F0.0
sS'BDJ'
p2848
F0.0
sS'BDU'
p2849
F0.0
sS'BDW'
p2850
F0.0
sS'BJUD'
p2851
F0.0
sS'MUPA'
p2852
F0.0
sS'BDY'
p2853
F0.0
sS'MLDT'
p2854
F0.03922592927956165
sS'DKGS'
p2855
F0.0
sS'LRD'
p2856
F0.0
sS'LRJ'
p2857
F0.0
sS'UR'
p2858
F0.0
sS'CNE'
p2859
F0.0
sS'UJ'
p2860
F0.0
sS'UD'
p2861
F0.05042836247126837
sS'UA'
p2862
F4.643495623505375e-05
sS'DBRG'
p2863
F0.006802721088435374
sS'NRZB'
p2864
F0.0
sS'MMY'
p2865
F0.0
sS'IDR'
p2866
F0.0
sS'IDH'
p2867
F0.0
sS'IDG'
p2868
F0.0
sS'PMT'
p2869
F0.0
sS'PMU'
p2870
F0.0
sS'PMP'
p2871
F0.0
sS'CGL'
p2872
F0.0
sS'PMR'
p2873
F0.0
sS'CGN'
p2874
F0.0
sS'PMY'
p2875
F0.0
sS'DWO'
p2876
F0.0
sS'CGY'
p2877
F0.0
sS'UDGR'
p2878
F0.00016252234682268812
sS'KCA'
p2879
F0.0
sS'PML'
p2880
F0.0
sS'TVI'
p2881
F0.00679111234937661
sS'CGS'
p2882
F0.0
sS'CGR'
p2883
F0.0
sS'PMK'
p2884
F0.00679111234937661
sS'VHGN'
p2885
F0.0
sS'MINJ'
p2886
F0.0
sS'CUR'
p2887
F4.643495623505375e-05
sS'MINA'
p2888
F0.0
sS'CUX'
p2889
F0.0
sS'KDU'
p2890
F0.0
sS'CUK'
p2891
F0.0
sS'MMZ'
p2892
F0.0
sS'KDRP'
p2893
F0.00679111234937661
sS'NOMD'
p2894
F0.0
sS'KRLR'
p2895
F0.00679111234937661
sS'ABLE'
p2896
F0.0
sS'KRLI'
p2897
F0.0
sS'PNGM'
p2898
F0.00679111234937661
sS'DINR'
p2899
F0.0
sS'AIT'
p2900
F0.0
sS'NSU'
p2901
F0.0
sS'MSZ'
p2902
F0.01817928536602354
sS'KART'
p2903
F0.0
sS'CJ'
p2904
F0.0
sS'MSW'
p2905
F0.0
sS'MST'
p2906
F0.0
sS'MSR'
p2907
F0.0
sS'CIL'
p2908
F0.0
sS'GZH'
p2909
F0.0
sS'NDJ'
p2910
F0.0
sS'MSK'
p2911
F0.0
sS'MSH'
p2912
F0.0017645283369320424
sS'DAA'
p2913
F0.0
sS'DAB'
p2914
F0.003401360544217687
sS'DAL'
p2915
F0.013535789742518168
sS'SRJ'
p2916
F0.0
sS'AQG'
p2917
F0.0
sS'BCA'
p2918
F0.0
sS'DAS'
p2919
F0.00679111234937661
sS'BTJL'
p2920
F0.0
sS'BCRD'
p2921
F0.0
sS'DWR'
p2922
F0.021197557521302035
sS'DWP'
p2923
F0.0
sS'SRI'
p2924
F0.0
sS'DWX'
p2925
F0.00679111234937661
sS'ULT'
p2926
F0.0
sS'TUVR'
p2927
F0.0
sS'SNTD'
p2928
F0.0
sS'ULL'
p2929
F0.0
sS'ULB'
p2930
F0.0
sS'DWK'
p2931
F0.00679111234937661
sS'ULG'
p2932
F0.00679111234937661
sS'ULD'
p2933
F0.0
sS'PKW'
p2934
F0.0
sS'IJK'
p2935
F0.0
sS'ABKP'
p2936
F0.006802721088435374
sS'PTRU'
p2937
F0.0
sS'NGG'
p2938
F0.0
sS'SELU'
p2939
F0.0
sS'PTRD'
p2940
F0.0
sS'PTRE'
p2941
F0.0
sS'KTV'
p2942
F0.0
s.